---
triple:          'arm64-apple-darwin'
binary-path:     test_custom
relocations:
  - { offsetInCU: 0x9E27, offset: 0x9E27, size: 0x8, addend: 0x0, symName: __ZNSt3__117__cxx_atomic_loadB8ue170006IbEET_PKNS_22__cxx_atomic_base_implIS1_EENS_12memory_orderE, symObjAddr: 0x97FC, symBinAddr: 0x10000C220, symSize: 0x84 }
  - { offsetInCU: 0xB4CD, offset: 0xB4CD, size: 0x8, addend: 0x0, symName: __ZNSt3__122__libcpp_thread_isnullB8ue170006EPKP17_opaque_pthread_t, symObjAddr: 0x158C, symBinAddr: 0x100003FB0, symSize: 0x30 }
  - { offsetInCU: 0xB4FB, offset: 0xB4FB, size: 0x8, addend: 0x0, symName: __ZNSt3__122__libcpp_thread_get_idB8ue170006EPKP17_opaque_pthread_t, symObjAddr: 0x15BC, symBinAddr: 0x100003FE0, symSize: 0x18 }
  - { offsetInCU: 0xB529, offset: 0xB529, size: 0x8, addend: 0x0, symName: __ZNSt3__134__libcpp_atomic_refcount_decrementB8ue170006IlEET_RS1_, symObjAddr: 0x17AC, symBinAddr: 0x1000041D0, symSize: 0x30 }
  - { offsetInCU: 0xB55E, offset: 0xB55E, size: 0x8, addend: 0x0, symName: __ZNSt3__1neB8ue170006ERKNS_16__deque_iteratorIiPiRiPS1_lLl1024EEES6_, symObjAddr: 0x1D80, symBinAddr: 0x1000047A4, symSize: 0x34 }
  - { offsetInCU: 0xB59B, offset: 0xB59B, size: 0x8, addend: 0x0, symName: __ZNSt3__1eqB8ue170006ERKNS_16__deque_iteratorIiPiRiPS1_lLl1024EEES6_, symObjAddr: 0x20CC, symBinAddr: 0x100004AF0, symSize: 0x30 }
  - { offsetInCU: 0xB5D8, offset: 0xB5D8, size: 0x8, addend: 0x0, symName: __ZNSt3__112__to_addressB8ue170006IiEEPT_S2_, symObjAddr: 0x275C, symBinAddr: 0x100005180, symSize: 0x14 }
  - { offsetInCU: 0xB60D, offset: 0xB60D, size: 0x8, addend: 0x0, symName: __ZNSt3__119__libcpp_deallocateB8ue170006EPvmm, symObjAddr: 0x28C8, symBinAddr: 0x1000052EC, symSize: 0x30 }
  - { offsetInCU: 0xB655, offset: 0xB655, size: 0x8, addend: 0x0, symName: __ZNSt3__127__do_deallocate_handle_sizeB8ue170006IJEEEvPvmDpT_, symObjAddr: 0x28F8, symBinAddr: 0x10000531C, symSize: 0x28 }
  - { offsetInCU: 0xB693, offset: 0xB693, size: 0x8, addend: 0x0, symName: __ZNSt3__124__libcpp_operator_deleteB8ue170006IJPvEEEvDpT_, symObjAddr: 0x2920, symBinAddr: 0x100005344, symSize: 0x24 }
  - { offsetInCU: 0xB6C8, offset: 0xB6C8, size: 0x8, addend: 0x0, symName: __ZNSt3__112__to_addressB8ue170006IPiEEPT_S3_, symObjAddr: 0x2BA4, symBinAddr: 0x1000055C8, symSize: 0x14 }
  - { offsetInCU: 0xB6FD, offset: 0xB6FD, size: 0x8, addend: 0x0, symName: __ZNSt3__1neB8ue170006ERKNS_16__deque_iteratorINS_8functionIFvvEEEPS3_RS3_PS4_lLl128EEES9_, symObjAddr: 0x3248, symBinAddr: 0x100005C6C, symSize: 0x34 }
  - { offsetInCU: 0xB73A, offset: 0xB73A, size: 0x8, addend: 0x0, symName: __ZNSt3__1eqB8ue170006ERKNS_16__deque_iteratorINS_8functionIFvvEEEPS3_RS3_PS4_lLl128EEES9_, symObjAddr: 0x3580, symBinAddr: 0x100005FA4, symSize: 0x30 }
  - { offsetInCU: 0xB777, offset: 0xB777, size: 0x8, addend: 0x0, symName: __ZNSt3__112__to_addressB8ue170006INS_8functionIFvvEEEEEPT_S5_, symObjAddr: 0x3C10, symBinAddr: 0x100006634, symSize: 0x14 }
  - { offsetInCU: 0xB7AC, offset: 0xB7AC, size: 0x8, addend: 0x0, symName: __ZNSt3__112__to_addressB8ue170006IPNS_8functionIFvvEEEEEPT_S6_, symObjAddr: 0x3FDC, symBinAddr: 0x100006A00, symSize: 0x14 }
  - { offsetInCU: 0xB7E1, offset: 0xB7E1, size: 0x8, addend: 0x0, symName: __ZNSt3__122__make_exception_guardB8ue170006INS_6vectorI6workerNS_9allocatorIS2_EEE16__destroy_vectorEEENS_28__exception_guard_exceptionsIT_EES8_, symObjAddr: 0x42A4, symBinAddr: 0x100006CC8, symSize: 0x40 }
  - { offsetInCU: 0xB816, offset: 0xB816, size: 0x8, addend: 0x0, symName: __ZNSt3__119__allocate_at_leastB8ue170006INS_9allocatorI6workerEEEENS_19__allocation_resultINS_16allocator_traitsIT_E7pointerEEERS6_m, symObjAddr: 0x4698, symBinAddr: 0x1000070BC, symSize: 0x40 }
  - { offsetInCU: 0xB859, offset: 0xB859, size: 0x8, addend: 0x0, symName: __ZNSt3__13minB8ue170006ImEERKT_S3_S3_, symObjAddr: 0x47F0, symBinAddr: 0x100007214, symSize: 0x2C }
  - { offsetInCU: 0xBA9D, offset: 0xBA9D, size: 0x8, addend: 0x0, symName: __ZNSt3__13minB8ue170006ImNS_6__lessIvvEEEERKT_S5_S5_T0_, symObjAddr: 0x487C, symBinAddr: 0x1000072A0, symSize: 0x54 }
  - { offsetInCU: 0xBB3C, offset: 0xBB3C, size: 0x8, addend: 0x0, symName: __ZNSt3__120__throw_length_errorB8ue170006EPKc, symObjAddr: 0x4964, symBinAddr: 0x100007388, symSize: 0x64 }
  - { offsetInCU: 0xBB66, offset: 0xBB66, size: 0x8, addend: 0x0, symName: __ZNSt3__117__libcpp_allocateB8ue170006Emm, symObjAddr: 0x4AD8, symBinAddr: 0x1000074FC, symSize: 0x28 }
  - { offsetInCU: 0xBBA3, offset: 0xBBA3, size: 0x8, addend: 0x0, symName: __ZNSt3__121__libcpp_operator_newB8ue170006IJmEEEPvDpT_, symObjAddr: 0x4B00, symBinAddr: 0x100007524, symSize: 0x24 }
  - { offsetInCU: 0xBBDC, offset: 0xBBDC, size: 0x8, addend: 0x0, symName: __ZNSt3__112__to_addressB8ue170006I6workerEEPT_S3_, symObjAddr: 0x4C1C, symBinAddr: 0x100007640, symSize: 0x14 }
  - { offsetInCU: 0xC00E, offset: 0xC00E, size: 0x8, addend: 0x0, symName: __ZNSt3__122__libcpp_thread_createB8ue170006EPP17_opaque_pthread_tPFPvS3_ES3_, symObjAddr: 0x5AA0, symBinAddr: 0x1000084C4, symSize: 0x38 }
  - { offsetInCU: 0xC05A, offset: 0xC05A, size: 0x8, addend: 0x0, symName: '__ZNSt3__114__thread_proxyB8ue170006INS_5tupleIJNS_10unique_ptrINS_15__thread_structENS_14default_deleteIS3_EEEEZN10ThreadPoolC1EmE3$_0EEEEEPvSA_', symObjAddr: 0x5AD8, symBinAddr: 0x1000084FC, symSize: 0x90 }
  - { offsetInCU: 0xC1B9, offset: 0xC1B9, size: 0x8, addend: 0x0, symName: '__ZNSt3__13getB8ue170006ILm0EJNS_10unique_ptrINS_15__thread_structENS_14default_deleteIS2_EEEEZN10ThreadPoolC1EmE3$_0EEERNS_13tuple_elementIXT_ENS_5tupleIJDpT0_EEEE4typeERSC_', symObjAddr: 0x618C, symBinAddr: 0x100008BB0, symSize: 0x24 }
  - { offsetInCU: 0xC201, offset: 0xC201, size: 0x8, addend: 0x0, symName: '__ZNSt3__116__thread_executeB8ue170006INS_10unique_ptrINS_15__thread_structENS_14default_deleteIS2_EEEEZN10ThreadPoolC1EmE3$_0JEJEEEvRNS_5tupleIJT_T0_DpT1_EEENS_15__tuple_indicesIJXspT2_EEEE', symObjAddr: 0x61B0, symBinAddr: 0x100008BD4, symSize: 0x28 }
  - { offsetInCU: 0xC24F, offset: 0xC24F, size: 0x8, addend: 0x0, symName: __ZNSt3__116__libcpp_tls_setB8ue170006EmPv, symObjAddr: 0x61D8, symBinAddr: 0x100008BFC, symSize: 0x2C }
  - { offsetInCU: 0xC28D, offset: 0xC28D, size: 0x8, addend: 0x0, symName: '__ZNSt3__18__invokeB8ue170006IZN10ThreadPoolC1EmE3$_0JEEEDTclclsr3stdE7declvalIT_EEspclsr3stdE7declvalIT0_EEEEOS3_DpOS4_', symObjAddr: 0x6218, symBinAddr: 0x100008C3C, symSize: 0x24 }
  - { offsetInCU: 0xC2C6, offset: 0xC2C6, size: 0x8, addend: 0x0, symName: '__ZNSt3__13getB8ue170006ILm1EJNS_10unique_ptrINS_15__thread_structENS_14default_deleteIS2_EEEEZN10ThreadPoolC1EmE3$_0EEERNS_13tuple_elementIXT_ENS_5tupleIJDpT0_EEEE4typeERSC_', symObjAddr: 0x623C, symBinAddr: 0x100008C60, symSize: 0x28 }
  - { offsetInCU: 0xC70A, offset: 0xC70A, size: 0x8, addend: 0x0, symName: '__ZNSt3__114__thread_proxyB8ue170006INS_5tupleIJNS_10unique_ptrINS_15__thread_structENS_14default_deleteIS3_EEEEZN10ThreadPoolC1EmE3$_1EEEEEPvSA_', symObjAddr: 0x67C4, symBinAddr: 0x1000091E8, symSize: 0x90 }
  - { offsetInCU: 0xC768, offset: 0xC768, size: 0x8, addend: 0x0, symName: '__ZNSt3__13getB8ue170006ILm0EJNS_10unique_ptrINS_15__thread_structENS_14default_deleteIS2_EEEEZN10ThreadPoolC1EmE3$_1EEERNS_13tuple_elementIXT_ENS_5tupleIJDpT0_EEEE4typeERSC_', symObjAddr: 0x6AC8, symBinAddr: 0x1000094EC, symSize: 0x24 }
  - { offsetInCU: 0xC7B0, offset: 0xC7B0, size: 0x8, addend: 0x0, symName: '__ZNSt3__116__thread_executeB8ue170006INS_10unique_ptrINS_15__thread_structENS_14default_deleteIS2_EEEEZN10ThreadPoolC1EmE3$_1JEJEEEvRNS_5tupleIJT_T0_DpT1_EEENS_15__tuple_indicesIJXspT2_EEEE', symObjAddr: 0x6AEC, symBinAddr: 0x100009510, symSize: 0x28 }
  - { offsetInCU: 0xC7FF, offset: 0xC7FF, size: 0x8, addend: 0x0, symName: '__ZNSt3__18__invokeB8ue170006IZN10ThreadPoolC1EmE3$_1JEEEDTclclsr3stdE7declvalIT_EEspclsr3stdE7declvalIT0_EEEEOS3_DpOS4_', symObjAddr: 0x6B14, symBinAddr: 0x100009538, symSize: 0x24 }
  - { offsetInCU: 0xC838, offset: 0xC838, size: 0x8, addend: 0x0, symName: '__ZNSt3__13getB8ue170006ILm1EJNS_10unique_ptrINS_15__thread_structENS_14default_deleteIS2_EEEEZN10ThreadPoolC1EmE3$_1EEERNS_13tuple_elementIXT_ENS_5tupleIJDpT0_EEEE4typeERSC_', symObjAddr: 0x6B38, symBinAddr: 0x10000955C, symSize: 0x28 }
  - { offsetInCU: 0xC87F, offset: 0xC87F, size: 0x8, addend: 0x0, symName: __ZNSt3__13maxB8ue170006ImEERKT_S3_S3_, symObjAddr: 0x7AEC, symBinAddr: 0x10000A510, symSize: 0x2C }
  - { offsetInCU: 0xCD1B, offset: 0xCD1B, size: 0x8, addend: 0x0, symName: __ZNSt3__14swapB8ue170006IPPiEENS_9enable_ifIXaasr21is_move_constructibleIT_EE5valuesr18is_move_assignableIS4_EE5valueEvE4typeERS4_S7_, symObjAddr: 0x80FC, symBinAddr: 0x10000AB20, symSize: 0x3C }
  - { offsetInCU: 0xCD6C, offset: 0xCD6C, size: 0x8, addend: 0x0, symName: __ZNSt3__14moveB8ue170006IPPiS2_EET0_T_S4_S3_, symObjAddr: 0x81E0, symBinAddr: 0x10000AC04, symSize: 0x40 }
  - { offsetInCU: 0xCDE3, offset: 0xCDE3, size: 0x8, addend: 0x0, symName: __ZNSt3__16__moveB8ue170006INS_17_ClassicAlgPolicyEPPiS3_S3_EENS_4pairIT0_T2_EES5_T1_S6_, symObjAddr: 0x82E8, symBinAddr: 0x10000AD0C, symSize: 0x44 }
  - { offsetInCU: 0xCE4F, offset: 0xCE4F, size: 0x8, addend: 0x0, symName: __ZNSt3__123__dispatch_copy_or_moveB8ue170006INS_17_ClassicAlgPolicyENS_11__move_loopIS1_EENS_14__move_trivialEPPiS6_S6_EENS_4pairIT2_T4_EES8_T3_S9_, symObjAddr: 0x832C, symBinAddr: 0x10000AD50, symSize: 0x44 }
  - { offsetInCU: 0xCECD, offset: 0xCECD, size: 0x8, addend: 0x0, symName: __ZNSt3__121__unwrap_and_dispatchB8ue170006INS_10__overloadINS_11__move_loopINS_17_ClassicAlgPolicyEEENS_14__move_trivialEEEPPiS8_S8_Li0EEENS_4pairIT0_T2_EESA_T1_SB_, symObjAddr: 0x8370, symBinAddr: 0x10000AD94, symSize: 0xB4 }
  - { offsetInCU: 0xCF5B, offset: 0xCF5B, size: 0x8, addend: 0x0, symName: __ZNSt3__114__unwrap_rangeB8ue170006IPPiS2_EENS_4pairIT0_S4_EET_S6_, symObjAddr: 0x8424, symBinAddr: 0x10000AE48, symSize: 0x60 }
  - { offsetInCU: 0xD15B, offset: 0xD15B, size: 0x8, addend: 0x0, symName: __ZNSt3__113__unwrap_iterB8ue170006IPPiNS_18__unwrap_iter_implIS2_Lb1EEELi0EEEDTclsrT0_8__unwrapclsr3stdE7declvalIT_EEEES6_, symObjAddr: 0x84CC, symBinAddr: 0x10000AEF0, symSize: 0x24 }
  - { offsetInCU: 0xD19F, offset: 0xD19F, size: 0x8, addend: 0x0, symName: __ZNSt3__19make_pairB8ue170006IPPiS2_EENS_4pairINS_18__unwrap_ref_decayIT_E4typeENS4_IT0_E4typeEEEOS5_OS8_, symObjAddr: 0x84F0, symBinAddr: 0x10000AF14, symSize: 0x38 }
  - { offsetInCU: 0xD1EE, offset: 0xD1EE, size: 0x8, addend: 0x0, symName: __ZNSt3__114__rewrap_rangeB8ue170006IPPiS2_EET_S3_T0_, symObjAddr: 0x8528, symBinAddr: 0x10000AF4C, symSize: 0x2C }
  - { offsetInCU: 0xD23A, offset: 0xD23A, size: 0x8, addend: 0x0, symName: __ZNSt3__113__rewrap_iterB8ue170006IPPiS2_NS_18__unwrap_iter_implIS2_Lb1EEEEET_S5_T0_, symObjAddr: 0x8554, symBinAddr: 0x10000AF78, symSize: 0x3C }
  - { offsetInCU: 0xD28F, offset: 0xD28F, size: 0x8, addend: 0x0, symName: __ZNSt3__119__copy_trivial_implB8ue170006IPiS1_EENS_4pairIPT_PT0_EES4_S4_S6_, symObjAddr: 0x8590, symBinAddr: 0x10000AFB4, symSize: 0x80 }
  - { offsetInCU: 0xD2F7, offset: 0xD2F7, size: 0x8, addend: 0x0, symName: __ZNSt3__119__constexpr_memmoveB8ue170006IPiS1_Li0EEEPT_S3_PT0_NS_15__element_countE, symObjAddr: 0x8610, symBinAddr: 0x10000B034, symSize: 0x64 }
  - { offsetInCU: 0xD365, offset: 0xD365, size: 0x8, addend: 0x0, symName: __ZNSt3__19make_pairB8ue170006IRPPiS2_EENS_4pairINS_18__unwrap_ref_decayIT_E4typeENS5_IT0_E4typeEEEOS6_OS9_, symObjAddr: 0x8674, symBinAddr: 0x10000B098, symSize: 0x38 }
  - { offsetInCU: 0xD407, offset: 0xD407, size: 0x8, addend: 0x0, symName: __ZNSt3__18distanceB8ue170006INS_13move_iteratorIPPiEEEENS_15iterator_traitsIT_E15difference_typeES6_S6_, symObjAddr: 0x88DC, symBinAddr: 0x10000B300, symSize: 0x3C }
  - { offsetInCU: 0xD44A, offset: 0xD44A, size: 0x8, addend: 0x0, symName: __ZNSt3__110__distanceB8ue170006INS_13move_iteratorIPPiEEEENS_15iterator_traitsIT_E15difference_typeES6_S6_NS_26random_access_iterator_tagE, symObjAddr: 0x8AE0, symBinAddr: 0x10000B504, symSize: 0x30 }
  - { offsetInCU: 0xD498, offset: 0xD498, size: 0x8, addend: 0x0, symName: __ZNSt3__1miB8ue170006IPPiS2_EEDTmicldtfp_4baseEcldtfp0_4baseEERKNS_13move_iteratorIT_EERKNS4_IT0_EE, symObjAddr: 0x8B10, symBinAddr: 0x10000B534, symSize: 0x48 }
  - { offsetInCU: 0xD4E7, offset: 0xD4E7, size: 0x8, addend: 0x0, symName: __ZNSt3__113move_backwardB8ue170006IPPiS2_EET0_T_S4_S3_, symObjAddr: 0x8C48, symBinAddr: 0x10000B66C, symSize: 0x40 }
  - { offsetInCU: 0xD541, offset: 0xD541, size: 0x8, addend: 0x0, symName: __ZNSt3__115__move_backwardB8ue170006INS_17_ClassicAlgPolicyEPPiS3_S3_EENS_4pairIT0_T2_EES5_T1_S6_, symObjAddr: 0x8C88, symBinAddr: 0x10000B6AC, symSize: 0x44 }
  - { offsetInCU: 0xD5AD, offset: 0xD5AD, size: 0x8, addend: 0x0, symName: __ZNSt3__123__dispatch_copy_or_moveB8ue170006INS_17_ClassicAlgPolicyENS_20__move_backward_loopIS1_EENS_23__move_backward_trivialEPPiS6_S6_EENS_4pairIT2_T4_EES8_T3_S9_, symObjAddr: 0x8CCC, symBinAddr: 0x10000B6F0, symSize: 0x44 }
  - { offsetInCU: 0xD62B, offset: 0xD62B, size: 0x8, addend: 0x0, symName: __ZNSt3__121__unwrap_and_dispatchB8ue170006INS_10__overloadINS_20__move_backward_loopINS_17_ClassicAlgPolicyEEENS_23__move_backward_trivialEEEPPiS8_S8_Li0EEENS_4pairIT0_T2_EESA_T1_SB_, symObjAddr: 0x8D10, symBinAddr: 0x10000B734, symSize: 0xB4 }
  - { offsetInCU: 0xD73B, offset: 0xD73B, size: 0x8, addend: 0x0, symName: __ZNSt3__128__copy_backward_trivial_implB8ue170006IPiS1_EENS_4pairIPT_PT0_EES4_S4_S6_, symObjAddr: 0x8E0C, symBinAddr: 0x10000B830, symSize: 0x90 }
  - { offsetInCU: 0xD7A3, offset: 0xD7A3, size: 0x8, addend: 0x0, symName: __ZNSt3__19make_pairB8ue170006IRPPiS3_EENS_4pairINS_18__unwrap_ref_decayIT_E4typeENS5_IT0_E4typeEEEOS6_OS9_, symObjAddr: 0x8E9C, symBinAddr: 0x10000B8C0, symSize: 0x38 }
  - { offsetInCU: 0xD7F2, offset: 0xD7F2, size: 0x8, addend: 0x0, symName: __ZNSt3__13maxB8ue170006ImNS_6__lessIvvEEEERKT_S5_S5_T0_, symObjAddr: 0x8F44, symBinAddr: 0x10000B968, symSize: 0x54 }
  - { offsetInCU: 0xD84C, offset: 0xD84C, size: 0x8, addend: 0x0, symName: __ZNSt3__119__allocate_at_leastB8ue170006INS_9allocatorIPiEEEENS_19__allocation_resultINS_16allocator_traitsIT_E7pointerEEERS6_m, symObjAddr: 0x90A8, symBinAddr: 0x10000BACC, symSize: 0x40 }
  - { offsetInCU: 0xDCE8, offset: 0xDCE8, size: 0x8, addend: 0x0, symName: __ZNSt3__14swapB8ue170006IPPNS_8functionIFvvEEEEENS_9enable_ifIXaasr21is_move_constructibleIT_EE5valuesr18is_move_assignableIS7_EE5valueEvE4typeERS7_SA_, symObjAddr: 0xAB60, symBinAddr: 0x10000D584, symSize: 0x3C }
  - { offsetInCU: 0xDD39, offset: 0xDD39, size: 0x8, addend: 0x0, symName: __ZNSt3__14moveB8ue170006IPPNS_8functionIFvvEEES5_EET0_T_S7_S6_, symObjAddr: 0xAC44, symBinAddr: 0x10000D668, symSize: 0x40 }
  - { offsetInCU: 0xDD93, offset: 0xDD93, size: 0x8, addend: 0x0, symName: __ZNSt3__16__moveB8ue170006INS_17_ClassicAlgPolicyEPPNS_8functionIFvvEEES6_S6_EENS_4pairIT0_T2_EES8_T1_S9_, symObjAddr: 0xAD4C, symBinAddr: 0x10000D770, symSize: 0x44 }
  - { offsetInCU: 0xDDFF, offset: 0xDDFF, size: 0x8, addend: 0x0, symName: __ZNSt3__123__dispatch_copy_or_moveB8ue170006INS_17_ClassicAlgPolicyENS_11__move_loopIS1_EENS_14__move_trivialEPPNS_8functionIFvvEEES9_S9_EENS_4pairIT2_T4_EESB_T3_SC_, symObjAddr: 0xAD90, symBinAddr: 0x10000D7B4, symSize: 0x44 }
  - { offsetInCU: 0xDE7D, offset: 0xDE7D, size: 0x8, addend: 0x0, symName: __ZNSt3__121__unwrap_and_dispatchB8ue170006INS_10__overloadINS_11__move_loopINS_17_ClassicAlgPolicyEEENS_14__move_trivialEEEPPNS_8functionIFvvEEESB_SB_Li0EEENS_4pairIT0_T2_EESD_T1_SE_, symObjAddr: 0xADD4, symBinAddr: 0x10000D7F8, symSize: 0xB4 }
  - { offsetInCU: 0xDF0B, offset: 0xDF0B, size: 0x8, addend: 0x0, symName: __ZNSt3__114__unwrap_rangeB8ue170006IPPNS_8functionIFvvEEES5_EENS_4pairIT0_S7_EET_S9_, symObjAddr: 0xAE88, symBinAddr: 0x10000D8AC, symSize: 0x60 }
  - { offsetInCU: 0xE089, offset: 0xE089, size: 0x8, addend: 0x0, symName: __ZNSt3__113__unwrap_iterB8ue170006IPPNS_8functionIFvvEEENS_18__unwrap_iter_implIS5_Lb1EEELi0EEEDTclsrT0_8__unwrapclsr3stdE7declvalIT_EEEES9_, symObjAddr: 0xAF30, symBinAddr: 0x10000D954, symSize: 0x24 }
  - { offsetInCU: 0xE0CD, offset: 0xE0CD, size: 0x8, addend: 0x0, symName: __ZNSt3__19make_pairB8ue170006IPPNS_8functionIFvvEEES5_EENS_4pairINS_18__unwrap_ref_decayIT_E4typeENS7_IT0_E4typeEEEOS8_OSB_, symObjAddr: 0xAF54, symBinAddr: 0x10000D978, symSize: 0x38 }
  - { offsetInCU: 0xE11C, offset: 0xE11C, size: 0x8, addend: 0x0, symName: __ZNSt3__114__rewrap_rangeB8ue170006IPPNS_8functionIFvvEEES5_EET_S6_T0_, symObjAddr: 0xAF8C, symBinAddr: 0x10000D9B0, symSize: 0x2C }
  - { offsetInCU: 0xE168, offset: 0xE168, size: 0x8, addend: 0x0, symName: __ZNSt3__113__rewrap_iterB8ue170006IPPNS_8functionIFvvEEES5_NS_18__unwrap_iter_implIS5_Lb1EEEEET_S8_T0_, symObjAddr: 0xAFB8, symBinAddr: 0x10000D9DC, symSize: 0x3C }
  - { offsetInCU: 0xE1BD, offset: 0xE1BD, size: 0x8, addend: 0x0, symName: __ZNSt3__119__copy_trivial_implB8ue170006IPNS_8functionIFvvEEES4_EENS_4pairIPT_PT0_EES7_S7_S9_, symObjAddr: 0xAFF4, symBinAddr: 0x10000DA18, symSize: 0x80 }
  - { offsetInCU: 0xE225, offset: 0xE225, size: 0x8, addend: 0x0, symName: __ZNSt3__119__constexpr_memmoveB8ue170006IPNS_8functionIFvvEEES4_Li0EEEPT_S6_PT0_NS_15__element_countE, symObjAddr: 0xB074, symBinAddr: 0x10000DA98, symSize: 0x64 }
  - { offsetInCU: 0xE293, offset: 0xE293, size: 0x8, addend: 0x0, symName: __ZNSt3__19make_pairB8ue170006IRPPNS_8functionIFvvEEES5_EENS_4pairINS_18__unwrap_ref_decayIT_E4typeENS8_IT0_E4typeEEEOS9_OSC_, symObjAddr: 0xB0D8, symBinAddr: 0x10000DAFC, symSize: 0x38 }
  - { offsetInCU: 0xE335, offset: 0xE335, size: 0x8, addend: 0x0, symName: __ZNSt3__18distanceB8ue170006INS_13move_iteratorIPPNS_8functionIFvvEEEEEEENS_15iterator_traitsIT_E15difference_typeES9_S9_, symObjAddr: 0xB340, symBinAddr: 0x10000DD64, symSize: 0x3C }
  - { offsetInCU: 0xE378, offset: 0xE378, size: 0x8, addend: 0x0, symName: __ZNSt3__110__distanceB8ue170006INS_13move_iteratorIPPNS_8functionIFvvEEEEEEENS_15iterator_traitsIT_E15difference_typeES9_S9_NS_26random_access_iterator_tagE, symObjAddr: 0xB544, symBinAddr: 0x10000DF68, symSize: 0x30 }
  - { offsetInCU: 0xE3C6, offset: 0xE3C6, size: 0x8, addend: 0x0, symName: __ZNSt3__1miB8ue170006IPPNS_8functionIFvvEEES5_EEDTmicldtfp_4baseEcldtfp0_4baseEERKNS_13move_iteratorIT_EERKNS7_IT0_EE, symObjAddr: 0xB574, symBinAddr: 0x10000DF98, symSize: 0x48 }
  - { offsetInCU: 0xE415, offset: 0xE415, size: 0x8, addend: 0x0, symName: __ZNSt3__113move_backwardB8ue170006IPPNS_8functionIFvvEEES5_EET0_T_S7_S6_, symObjAddr: 0xB6AC, symBinAddr: 0x10000E0D0, symSize: 0x40 }
  - { offsetInCU: 0xE46F, offset: 0xE46F, size: 0x8, addend: 0x0, symName: __ZNSt3__115__move_backwardB8ue170006INS_17_ClassicAlgPolicyEPPNS_8functionIFvvEEES6_S6_EENS_4pairIT0_T2_EES8_T1_S9_, symObjAddr: 0xB6EC, symBinAddr: 0x10000E110, symSize: 0x44 }
  - { offsetInCU: 0xE4DB, offset: 0xE4DB, size: 0x8, addend: 0x0, symName: __ZNSt3__123__dispatch_copy_or_moveB8ue170006INS_17_ClassicAlgPolicyENS_20__move_backward_loopIS1_EENS_23__move_backward_trivialEPPNS_8functionIFvvEEES9_S9_EENS_4pairIT2_T4_EESB_T3_SC_, symObjAddr: 0xB730, symBinAddr: 0x10000E154, symSize: 0x44 }
  - { offsetInCU: 0xE559, offset: 0xE559, size: 0x8, addend: 0x0, symName: __ZNSt3__121__unwrap_and_dispatchB8ue170006INS_10__overloadINS_20__move_backward_loopINS_17_ClassicAlgPolicyEEENS_23__move_backward_trivialEEEPPNS_8functionIFvvEEESB_SB_Li0EEENS_4pairIT0_T2_EESD_T1_SE_, symObjAddr: 0xB774, symBinAddr: 0x10000E198, symSize: 0xB4 }
  - { offsetInCU: 0xE5E7, offset: 0xE5E7, size: 0x8, addend: 0x0, symName: __ZNSt3__128__copy_backward_trivial_implB8ue170006IPNS_8functionIFvvEEES4_EENS_4pairIPT_PT0_EES7_S7_S9_, symObjAddr: 0xB870, symBinAddr: 0x10000E294, symSize: 0x90 }
  - { offsetInCU: 0xE64F, offset: 0xE64F, size: 0x8, addend: 0x0, symName: __ZNSt3__19make_pairB8ue170006IRPPNS_8functionIFvvEEES6_EENS_4pairINS_18__unwrap_ref_decayIT_E4typeENS8_IT0_E4typeEEEOS9_OSC_, symObjAddr: 0xB900, symBinAddr: 0x10000E324, symSize: 0x38 }
  - { offsetInCU: 0xE69E, offset: 0xE69E, size: 0x8, addend: 0x0, symName: __ZNSt3__119__allocate_at_leastB8ue170006INS_9allocatorIPNS_8functionIFvvEEEEEEENS_19__allocation_resultINS_16allocator_traitsIT_E7pointerEEERS9_m, symObjAddr: 0xBAB8, symBinAddr: 0x10000E4DC, symSize: 0x40 }
  - { offsetInCU: 0xE6E2, offset: 0xE6E2, size: 0x8, addend: 0x0, symName: __ZNSt3__125__throw_bad_function_callB8ue170006Ev, symObjAddr: 0xC3A4, symBinAddr: 0x10000EDC8, symSize: 0x38 }
  - { offsetInCU: 0xE732, offset: 0xE732, size: 0x8, addend: 0x0, symName: __ZNSt3__14swapB8ue170006IPNS_10__function6__baseIFvvEEEEENS_9enable_ifIXaasr21is_move_constructibleIT_EE5valuesr18is_move_assignableIS7_EE5valueEvE4typeERS7_SA_, symObjAddr: 0xC994, symBinAddr: 0x10000F3B8, symSize: 0x3C }
  - { offsetInCU: 0xE784, offset: 0xE784, size: 0x8, addend: 0x0, symName: __ZNSt3__118__cxx_atomic_storeB8ue170006IbEEvPNS_22__cxx_atomic_base_implIT_EES2_NS_12memory_orderE, symObjAddr: 0xCF40, symBinAddr: 0x10000F964, symSize: 0x90 }
  - { offsetInCU: 0xEE37, offset: 0xEE37, size: 0x8, addend: 0x0, symName: __ZSt28__throw_bad_array_new_lengthB8ue170006v, symObjAddr: 0x4AA4, symBinAddr: 0x1000074C8, symSize: 0x34 }
  - { offsetInCU: 0xFE27, offset: 0xFE27, size: 0x8, addend: 0x0, symName: __ZN10ThreadPoolC1Em, symObjAddr: 0x630, symBinAddr: 0x100003054, symSize: 0x34 }
  - { offsetInCU: 0x124B0, offset: 0x124B0, size: 0x8, addend: 0x0, symName: __ZN10ThreadPoolC2Em, symObjAddr: 0x0, symBinAddr: 0x100002A24, symSize: 0x2B0 }
  - { offsetInCU: 0x12515, offset: 0x12515, size: 0x8, addend: 0x0, symName: __ZNSt3__16threadC1B8ue170006Ev, symObjAddr: 0x2B0, symBinAddr: 0x100002CD4, symSize: 0x2C }
  - { offsetInCU: 0x1253F, offset: 0x1253F, size: 0x8, addend: 0x0, symName: __ZNSt3__16vectorI6workerNS_9allocatorIS1_EEEC1Em, symObjAddr: 0x2DC, symBinAddr: 0x100002D00, symSize: 0x34 }
  - { offsetInCU: 0x1257A, offset: 0x1257A, size: 0x8, addend: 0x0, symName: __ZNSt3__16atomicIbEC1B8ue170006Eb, symObjAddr: 0x310, symBinAddr: 0x100002D34, symSize: 0x40 }
  - { offsetInCU: 0x125B2, offset: 0x125B2, size: 0x8, addend: 0x0, symName: __ZNSt3__15mutexC1B8ue170006Ev, symObjAddr: 0x350, symBinAddr: 0x100002D74, symSize: 0x2C }
  - { offsetInCU: 0x125DC, offset: 0x125DC, size: 0x8, addend: 0x0, symName: __ZNSt3__15queueINS_8functionIFvvEEENS_5dequeIS3_NS_9allocatorIS3_EEEEEC1B8ue170006Ev, symObjAddr: 0x37C, symBinAddr: 0x100002DA0, symSize: 0x2C }
  - { offsetInCU: 0x12606, offset: 0x12606, size: 0x8, addend: 0x0, symName: __ZNSt3__118condition_variableC1B8ue170006Ev, symObjAddr: 0x3A8, symBinAddr: 0x100002DCC, symSize: 0x2C }
  - { offsetInCU: 0x12630, offset: 0x12630, size: 0x8, addend: 0x0, symName: __ZNSt3__15queueIiNS_5dequeIiNS_9allocatorIiEEEEEC1B8ue170006Ev, symObjAddr: 0x3D4, symBinAddr: 0x100002DF8, symSize: 0x2C }
  - { offsetInCU: 0x12660, offset: 0x12660, size: 0x8, addend: 0x0, symName: '__ZNSt3__16threadC1IZN10ThreadPoolC1EmE3$_0JEvEEOT_DpOT0_', symObjAddr: 0x400, symBinAddr: 0x100002E24, symSize: 0x34 }
  - { offsetInCU: 0x126A7, offset: 0x126A7, size: 0x8, addend: 0x0, symName: __ZNSt3__16threadaSB8ue170006EOS0_, symObjAddr: 0x434, symBinAddr: 0x100002E58, symSize: 0x60 }
  - { offsetInCU: 0x126E1, offset: 0x126E1, size: 0x8, addend: 0x0, symName: '__ZNSt3__16threadC1IZN10ThreadPoolC1EmE3$_1JEvEEOT_DpOT0_', symObjAddr: 0x494, symBinAddr: 0x100002EB8, symSize: 0x34 }
  - { offsetInCU: 0x12728, offset: 0x12728, size: 0x8, addend: 0x0, symName: __ZNSt3__16vectorI6workerNS_9allocatorIS1_EEEixB8ue170006Em, symObjAddr: 0x4C8, symBinAddr: 0x100002EEC, symSize: 0x2C }
  - { offsetInCU: 0x1277C, offset: 0x1277C, size: 0x8, addend: 0x0, symName: __ZNSt3__110lock_guardINS_5mutexEEC1B8ue170006ERS1_, symObjAddr: 0x4F4, symBinAddr: 0x100002F18, symSize: 0x34 }
  - { offsetInCU: 0x127B4, offset: 0x127B4, size: 0x8, addend: 0x0, symName: __ZNSt3__15queueIiNS_5dequeIiNS_9allocatorIiEEEEE4pushB8ue170006EOi, symObjAddr: 0x528, symBinAddr: 0x100002F4C, symSize: 0x2C }
  - { offsetInCU: 0x127E9, offset: 0x127E9, size: 0x8, addend: 0x0, symName: __ZNSt3__110lock_guardINS_5mutexEED1B8ue170006Ev, symObjAddr: 0x554, symBinAddr: 0x100002F78, symSize: 0x2C }
  - { offsetInCU: 0x12813, offset: 0x12813, size: 0x8, addend: 0x0, symName: __ZN9SemaphoreD1Ev, symObjAddr: 0x580, symBinAddr: 0x100002FA4, symSize: 0x2C }
  - { offsetInCU: 0x1283F, offset: 0x1283F, size: 0x8, addend: 0x0, symName: __ZNSt3__15queueIiNS_5dequeIiNS_9allocatorIiEEEEED1Ev, symObjAddr: 0x5AC, symBinAddr: 0x100002FD0, symSize: 0x2C }
  - { offsetInCU: 0x1286C, offset: 0x1286C, size: 0x8, addend: 0x0, symName: __ZNSt3__15queueINS_8functionIFvvEEENS_5dequeIS3_NS_9allocatorIS3_EEEEED1Ev, symObjAddr: 0x5D8, symBinAddr: 0x100002FFC, symSize: 0x2C }
  - { offsetInCU: 0x12899, offset: 0x12899, size: 0x8, addend: 0x0, symName: __ZNSt3__16vectorI6workerNS_9allocatorIS1_EEED1B8ue170006Ev, symObjAddr: 0x604, symBinAddr: 0x100003028, symSize: 0x2C }
  - { offsetInCU: 0x128C3, offset: 0x128C3, size: 0x8, addend: 0x0, symName: __ZN10ThreadPool8scheduleERKNSt3__18functionIFvvEEE, symObjAddr: 0x664, symBinAddr: 0x100003088, symSize: 0x17C }
  - { offsetInCU: 0x12933, offset: 0x12933, size: 0x8, addend: 0x0, symName: __ZNKSt3__18functionIFvvEEcvbB8ue170006Ev, symObjAddr: 0x7E0, symBinAddr: 0x100003204, symSize: 0x28 }
  - { offsetInCU: 0x12959, offset: 0x12959, size: 0x8, addend: 0x0, symName: __ZNSt16invalid_argumentC1B8ue170006EPKc, symObjAddr: 0x808, symBinAddr: 0x10000322C, symSize: 0x34 }
  - { offsetInCU: 0x12991, offset: 0x12991, size: 0x8, addend: 0x0, symName: __ZNSt3__111unique_lockINS_5mutexEEC1B8ue170006ERS1_, symObjAddr: 0x83C, symBinAddr: 0x100003260, symSize: 0x34 }
  - { offsetInCU: 0x129C9, offset: 0x129C9, size: 0x8, addend: 0x0, symName: __ZNKSt3__113__atomic_baseIbLb0EEcvbB8ue170006Ev, symObjAddr: 0x870, symBinAddr: 0x100003294, symSize: 0x2C }
  - { offsetInCU: 0x129EF, offset: 0x129EF, size: 0x8, addend: 0x0, symName: __ZNSt3__15queueINS_8functionIFvvEEENS_5dequeIS3_NS_9allocatorIS3_EEEEE4pushB8ue170006ERKS3_, symObjAddr: 0x89C, symBinAddr: 0x1000032C0, symSize: 0x2C }
  - { offsetInCU: 0x12A24, offset: 0x12A24, size: 0x8, addend: 0x0, symName: __ZNSt3__111unique_lockINS_5mutexEED1B8ue170006Ev, symObjAddr: 0x8C8, symBinAddr: 0x1000032EC, symSize: 0x2C }
  - { offsetInCU: 0x12A4E, offset: 0x12A4E, size: 0x8, addend: 0x0, symName: __ZN10ThreadPool6workerEi, symObjAddr: 0x8F4, symBinAddr: 0x100003318, symSize: 0x1F0 }
  - { offsetInCU: 0x12ACB, offset: 0x12ACB, size: 0x8, addend: 0x0, symName: __ZNSt3__18functionIFvvEEC1ERKS2_, symObjAddr: 0xAE4, symBinAddr: 0x100003508, symSize: 0x34 }
  - { offsetInCU: 0x12B06, offset: 0x12B06, size: 0x8, addend: 0x0, symName: __ZNKSt3__18functionIFvvEEclEv, symObjAddr: 0xB18, symBinAddr: 0x10000353C, symSize: 0x24 }
  - { offsetInCU: 0x12B2E, offset: 0x12B2E, size: 0x8, addend: 0x0, symName: __ZNSt3__15queueIiNS_5dequeIiNS_9allocatorIiEEEEE4pushB8ue170006ERKi, symObjAddr: 0xB3C, symBinAddr: 0x100003560, symSize: 0x2C }
  - { offsetInCU: 0x12B63, offset: 0x12B63, size: 0x8, addend: 0x0, symName: __ZNSt3__18functionIFvvEED1Ev, symObjAddr: 0xB68, symBinAddr: 0x10000358C, symSize: 0x2C }
  - { offsetInCU: 0x12B8F, offset: 0x12B8F, size: 0x8, addend: 0x0, symName: __ZN10ThreadPool10dispatcherEv, symObjAddr: 0xB94, symBinAddr: 0x1000035B8, symSize: 0x27C }
  - { offsetInCU: 0x12C04, offset: 0x12C04, size: 0x8, addend: 0x0, symName: __ZNSt3__18functionIFvvEEC1B8ue170006Ev, symObjAddr: 0xE10, symBinAddr: 0x100003834, symSize: 0x2C }
  - { offsetInCU: 0x12C2E, offset: 0x12C2E, size: 0x8, addend: 0x0, symName: __ZNKSt3__15queueINS_8functionIFvvEEENS_5dequeIS3_NS_9allocatorIS3_EEEEE5emptyB8ue170006Ev, symObjAddr: 0xE3C, symBinAddr: 0x100003860, symSize: 0x28 }
  - { offsetInCU: 0x12C54, offset: 0x12C54, size: 0x8, addend: 0x0, symName: __ZNSt3__15queueINS_8functionIFvvEEENS_5dequeIS3_NS_9allocatorIS3_EEEEE5frontB8ue170006Ev, symObjAddr: 0xE64, symBinAddr: 0x100003888, symSize: 0x24 }
  - { offsetInCU: 0x12C7A, offset: 0x12C7A, size: 0x8, addend: 0x0, symName: __ZNSt3__18functionIFvvEEaSERKS2_, symObjAddr: 0xE88, symBinAddr: 0x1000038AC, symSize: 0x84 }
  - { offsetInCU: 0x12CB1, offset: 0x12CB1, size: 0x8, addend: 0x0, symName: __ZNSt3__15queueINS_8functionIFvvEEENS_5dequeIS3_NS_9allocatorIS3_EEEEE3popB8ue170006Ev, symObjAddr: 0xF0C, symBinAddr: 0x100003930, symSize: 0x24 }
  - { offsetInCU: 0x12CD7, offset: 0x12CD7, size: 0x8, addend: 0x0, symName: __ZNSt3__15queueIiNS_5dequeIiNS_9allocatorIiEEEEE5frontB8ue170006Ev, symObjAddr: 0xF30, symBinAddr: 0x100003954, symSize: 0x24 }
  - { offsetInCU: 0x12CFD, offset: 0x12CFD, size: 0x8, addend: 0x0, symName: __ZNSt3__15queueIiNS_5dequeIiNS_9allocatorIiEEEEE3popB8ue170006Ev, symObjAddr: 0xF54, symBinAddr: 0x100003978, symSize: 0x24 }
  - { offsetInCU: 0x12D23, offset: 0x12D23, size: 0x8, addend: 0x0, symName: __ZN10ThreadPool4waitEv, symObjAddr: 0xF78, symBinAddr: 0x10000399C, symSize: 0x78 }
  - { offsetInCU: 0x12D8A, offset: 0x12D8A, size: 0x8, addend: 0x0, symName: '__ZNSt3__118condition_variable4waitIZN10ThreadPool4waitEvE3$_2EEvRNS_11unique_lockINS_5mutexEEET_', symObjAddr: 0xFF0, symBinAddr: 0x100003A14, symSize: 0x50 }
  - { offsetInCU: 0x12DD5, offset: 0x12DD5, size: 0x8, addend: 0x0, symName: __ZN10ThreadPoolD2Ev, symObjAddr: 0x1040, symBinAddr: 0x100003A64, symSize: 0x264 }
  - { offsetInCU: 0x12E92, offset: 0x12E92, size: 0x8, addend: 0x0, symName: __ZNSt3__16atomicIbEaSB8ue170006Eb, symObjAddr: 0x12B0, symBinAddr: 0x100003CD4, symSize: 0x44 }
  - { offsetInCU: 0x12EC6, offset: 0x12EC6, size: 0x8, addend: 0x0, symName: __ZNKSt3__16vectorI6workerNS_9allocatorIS1_EEE4sizeB8ue170006Ev, symObjAddr: 0x12F4, symBinAddr: 0x100003D18, symSize: 0x28 }
  - { offsetInCU: 0x12EEC, offset: 0x12EEC, size: 0x8, addend: 0x0, symName: __ZNSt3__18functionIFvvEEaSEDn, symObjAddr: 0x131C, symBinAddr: 0x100003D40, symSize: 0x3C }
  - { offsetInCU: 0x12F20, offset: 0x12F20, size: 0x8, addend: 0x0, symName: __ZNKSt3__16thread8joinableB8ue170006Ev, symObjAddr: 0x1358, symBinAddr: 0x100003D7C, symSize: 0x3C }
  - { offsetInCU: 0x12F46, offset: 0x12F46, size: 0x8, addend: 0x0, symName: __ZN10ThreadPoolD1Ev, symObjAddr: 0x1394, symBinAddr: 0x100003DB8, symSize: 0x2C }
  - { offsetInCU: 0x12F72, offset: 0x12F72, size: 0x8, addend: 0x0, symName: __ZNSt3__16threadC2B8ue170006Ev, symObjAddr: 0x13C0, symBinAddr: 0x100003DE4, symSize: 0x18 }
  - { offsetInCU: 0x12F9C, offset: 0x12F9C, size: 0x8, addend: 0x0, symName: __ZNSt3__16atomicIbEC2B8ue170006Eb, symObjAddr: 0x13D8, symBinAddr: 0x100003DFC, symSize: 0x40 }
  - { offsetInCU: 0x12FD4, offset: 0x12FD4, size: 0x8, addend: 0x0, symName: __ZNSt3__113__atomic_baseIbLb0EEC2B8ue170006Eb, symObjAddr: 0x1418, symBinAddr: 0x100003E3C, symSize: 0x40 }
  - { offsetInCU: 0x1300C, offset: 0x1300C, size: 0x8, addend: 0x0, symName: __ZNSt3__117__cxx_atomic_implIbNS_22__cxx_atomic_base_implIbEEEC1B8ue170006Eb, symObjAddr: 0x1458, symBinAddr: 0x100003E7C, symSize: 0x40 }
  - { offsetInCU: 0x13045, offset: 0x13045, size: 0x8, addend: 0x0, symName: __ZNSt3__117__cxx_atomic_implIbNS_22__cxx_atomic_base_implIbEEEC2B8ue170006Eb, symObjAddr: 0x1498, symBinAddr: 0x100003EBC, symSize: 0x40 }
  - { offsetInCU: 0x1307E, offset: 0x1307E, size: 0x8, addend: 0x0, symName: __ZNSt3__122__cxx_atomic_base_implIbEC2Eb, symObjAddr: 0x14D8, symBinAddr: 0x100003EFC, symSize: 0x2C }
  - { offsetInCU: 0x130B7, offset: 0x130B7, size: 0x8, addend: 0x0, symName: __ZNSt3__15mutexC2B8ue170006Ev, symObjAddr: 0x1504, symBinAddr: 0x100003F28, symSize: 0x44 }
  - { offsetInCU: 0x130E1, offset: 0x130E1, size: 0x8, addend: 0x0, symName: __ZNSt3__118condition_variableC2B8ue170006Ev, symObjAddr: 0x1548, symBinAddr: 0x100003F6C, symSize: 0x44 }
  - { offsetInCU: 0x1310B, offset: 0x1310B, size: 0x8, addend: 0x0, symName: __ZN9SemaphoreD2Ev, symObjAddr: 0x15D4, symBinAddr: 0x100003FF8, symSize: 0x3C }
  - { offsetInCU: 0x13137, offset: 0x13137, size: 0x8, addend: 0x0, symName: __ZNSt3__122condition_variable_anyD1Ev, symObjAddr: 0x1610, symBinAddr: 0x100004034, symSize: 0x2C }
  - { offsetInCU: 0x13163, offset: 0x13163, size: 0x8, addend: 0x0, symName: __ZNSt3__122condition_variable_anyD2Ev, symObjAddr: 0x163C, symBinAddr: 0x100004060, symSize: 0x38 }
  - { offsetInCU: 0x1318F, offset: 0x1318F, size: 0x8, addend: 0x0, symName: __ZNSt3__110shared_ptrINS_5mutexEED1B8ue170006Ev, symObjAddr: 0x1674, symBinAddr: 0x100004098, symSize: 0x2C }
  - { offsetInCU: 0x131B9, offset: 0x131B9, size: 0x8, addend: 0x0, symName: __ZNSt3__110shared_ptrINS_5mutexEED2B8ue170006Ev, symObjAddr: 0x16A0, symBinAddr: 0x1000040C4, symSize: 0x54 }
  - { offsetInCU: 0x131E3, offset: 0x131E3, size: 0x8, addend: 0x0, symName: __ZNSt3__119__shared_weak_count16__release_sharedB8ue170006Ev, symObjAddr: 0x16F4, symBinAddr: 0x100004118, symSize: 0x3C }
  - { offsetInCU: 0x13209, offset: 0x13209, size: 0x8, addend: 0x0, symName: __ZNSt3__114__shared_count16__release_sharedB8ue170006Ev, symObjAddr: 0x1730, symBinAddr: 0x100004154, symSize: 0x7C }
  - { offsetInCU: 0x1322F, offset: 0x1322F, size: 0x8, addend: 0x0, symName: __ZNSt3__15queueIiNS_5dequeIiNS_9allocatorIiEEEEED2Ev, symObjAddr: 0x17DC, symBinAddr: 0x100004200, symSize: 0x2C }
  - { offsetInCU: 0x1325C, offset: 0x1325C, size: 0x8, addend: 0x0, symName: __ZNSt3__15dequeIiNS_9allocatorIiEEED1B8ue170006Ev, symObjAddr: 0x1808, symBinAddr: 0x10000422C, symSize: 0x2C }
  - { offsetInCU: 0x13286, offset: 0x13286, size: 0x8, addend: 0x0, symName: __ZNSt3__15dequeIiNS_9allocatorIiEEED2B8ue170006Ev, symObjAddr: 0x1834, symBinAddr: 0x100004258, symSize: 0xA4 }
  - { offsetInCU: 0x132DF, offset: 0x132DF, size: 0x8, addend: 0x0, symName: __ZNSt3__15dequeIiNS_9allocatorIiEEE5clearEv, symObjAddr: 0x18D8, symBinAddr: 0x1000042FC, symSize: 0x194 }
  - { offsetInCU: 0x1333E, offset: 0x1333E, size: 0x8, addend: 0x0, symName: __ZNKSt3__15dequeIiNS_9allocatorIiEEE17__annotate_deleteB8ue170006Ev, symObjAddr: 0x1A6C, symBinAddr: 0x100004490, symSize: 0xE8 }
  - { offsetInCU: 0x13383, offset: 0x13383, size: 0x8, addend: 0x0, symName: __ZNSt3__114__split_bufferIPiNS_9allocatorIS1_EEE5beginB8ue170006Ev, symObjAddr: 0x1B54, symBinAddr: 0x100004578, symSize: 0x18 }
  - { offsetInCU: 0x133A9, offset: 0x133A9, size: 0x8, addend: 0x0, symName: __ZNSt3__114__split_bufferIPiNS_9allocatorIS1_EEE3endB8ue170006Ev, symObjAddr: 0x1B6C, symBinAddr: 0x100004590, symSize: 0x18 }
  - { offsetInCU: 0x133CF, offset: 0x133CF, size: 0x8, addend: 0x0, symName: __ZNSt3__116allocator_traitsINS_9allocatorIiEEE10deallocateB8ue170006ERS2_Pim, symObjAddr: 0x1B84, symBinAddr: 0x1000045A8, symSize: 0x34 }
  - { offsetInCU: 0x13411, offset: 0x13411, size: 0x8, addend: 0x0, symName: __ZNSt3__15dequeIiNS_9allocatorIiEEE7__allocB8ue170006Ev, symObjAddr: 0x1BB8, symBinAddr: 0x1000045DC, symSize: 0x28 }
  - { offsetInCU: 0x13437, offset: 0x13437, size: 0x8, addend: 0x0, symName: __ZNSt3__114__split_bufferIPiNS_9allocatorIS1_EEED1Ev, symObjAddr: 0x1BE0, symBinAddr: 0x100004604, symSize: 0x2C }
  - { offsetInCU: 0x13463, offset: 0x13463, size: 0x8, addend: 0x0, symName: __ZNSt3__15dequeIiNS_9allocatorIiEEE5beginB8ue170006Ev, symObjAddr: 0x1C0C, symBinAddr: 0x100004630, symSize: 0xB8 }
  - { offsetInCU: 0x13499, offset: 0x13499, size: 0x8, addend: 0x0, symName: __ZNSt3__15dequeIiNS_9allocatorIiEEE3endB8ue170006Ev, symObjAddr: 0x1CC4, symBinAddr: 0x1000046E8, symSize: 0xBC }
  - { offsetInCU: 0x134DF, offset: 0x134DF, size: 0x8, addend: 0x0, symName: __ZNSt3__116allocator_traitsINS_9allocatorIiEEE7destroyB8ue170006IivEEvRS2_PT_, symObjAddr: 0x1DB4, symBinAddr: 0x1000047D8, symSize: 0x2C }
  - { offsetInCU: 0x1351C, offset: 0x1351C, size: 0x8, addend: 0x0, symName: __ZNKSt3__116__deque_iteratorIiPiRiPS1_lLl1024EEdeB8ue170006Ev, symObjAddr: 0x1DE0, symBinAddr: 0x100004804, symSize: 0x18 }
  - { offsetInCU: 0x13542, offset: 0x13542, size: 0x8, addend: 0x0, symName: __ZNSt3__116__deque_iteratorIiPiRiPS1_lLl1024EEppB8ue170006Ev, symObjAddr: 0x1DF8, symBinAddr: 0x10000481C, symSize: 0x70 }
  - { offsetInCU: 0x13568, offset: 0x13568, size: 0x8, addend: 0x0, symName: __ZNSt3__15dequeIiNS_9allocatorIiEEE6__sizeB8ue170006Ev, symObjAddr: 0x1E68, symBinAddr: 0x10000488C, symSize: 0x28 }
  - { offsetInCU: 0x1358E, offset: 0x1358E, size: 0x8, addend: 0x0, symName: __ZNKSt3__114__split_bufferIPiNS_9allocatorIS1_EEE4sizeB8ue170006Ev, symObjAddr: 0x1E90, symBinAddr: 0x1000048B4, symSize: 0x28 }
  - { offsetInCU: 0x135B4, offset: 0x135B4, size: 0x8, addend: 0x0, symName: __ZNSt3__114__split_bufferIPiNS_9allocatorIS1_EEE5frontB8ue170006Ev, symObjAddr: 0x1EB8, symBinAddr: 0x1000048DC, symSize: 0x18 }
  - { offsetInCU: 0x135DA, offset: 0x135DA, size: 0x8, addend: 0x0, symName: __ZNSt3__114__split_bufferIPiNS_9allocatorIS1_EEE9pop_frontB8ue170006Ev, symObjAddr: 0x1ED0, symBinAddr: 0x1000048F4, symSize: 0x2C }
  - { offsetInCU: 0x13600, offset: 0x13600, size: 0x8, addend: 0x0, symName: __ZNKSt3__15dequeIiNS_9allocatorIiEEE14__annotate_newB8ue170006Em, symObjAddr: 0x1EFC, symBinAddr: 0x100004920, symSize: 0xB8 }
  - { offsetInCU: 0x13635, offset: 0x13635, size: 0x8, addend: 0x0, symName: __ZNKSt3__114__split_bufferIPiNS_9allocatorIS1_EEE5emptyB8ue170006Ev, symObjAddr: 0x1FB4, symBinAddr: 0x1000049D8, symSize: 0x28 }
  - { offsetInCU: 0x1365B, offset: 0x1365B, size: 0x8, addend: 0x0, symName: __ZNSt3__116__deque_iteratorIiPiRiPS1_lLl1024EEC1B8ue170006ES3_S1_, symObjAddr: 0x1FDC, symBinAddr: 0x100004A00, symSize: 0x3C }
  - { offsetInCU: 0x136A3, offset: 0x136A3, size: 0x8, addend: 0x0, symName: __ZNSt3__116__deque_iteratorIiPiRiPS1_lLl1024EEC2B8ue170006ES3_S1_, symObjAddr: 0x2018, symBinAddr: 0x100004A3C, symSize: 0x2C }
  - { offsetInCU: 0x136EB, offset: 0x136EB, size: 0x8, addend: 0x0, symName: __ZNKSt3__15dequeIiNS_9allocatorIiEEE4sizeB8ue170006Ev, symObjAddr: 0x2044, symBinAddr: 0x100004A68, symSize: 0x28 }
  - { offsetInCU: 0x13711, offset: 0x13711, size: 0x8, addend: 0x0, symName: __ZNKSt3__15dequeIiNS_9allocatorIiEEE6__sizeB8ue170006Ev, symObjAddr: 0x206C, symBinAddr: 0x100004A90, symSize: 0x28 }
  - { offsetInCU: 0x13737, offset: 0x13737, size: 0x8, addend: 0x0, symName: __ZNKSt3__117__compressed_pairImNS_9allocatorIiEEE5firstB8ue170006Ev, symObjAddr: 0x2094, symBinAddr: 0x100004AB8, symSize: 0x24 }
  - { offsetInCU: 0x1375D, offset: 0x1375D, size: 0x8, addend: 0x0, symName: __ZNKSt3__122__compressed_pair_elemImLi0ELb0EE5__getB8ue170006Ev, symObjAddr: 0x20B8, symBinAddr: 0x100004ADC, symSize: 0x14 }
  - { offsetInCU: 0x13783, offset: 0x13783, size: 0x8, addend: 0x0, symName: __ZNSt3__19allocatorIiE7destroyB8ue170006EPi, symObjAddr: 0x20FC, symBinAddr: 0x100004B20, symSize: 0x14 }
  - { offsetInCU: 0x137B7, offset: 0x137B7, size: 0x8, addend: 0x0, symName: __ZNSt3__117__compressed_pairImNS_9allocatorIiEEE5firstB8ue170006Ev, symObjAddr: 0x2110, symBinAddr: 0x100004B34, symSize: 0x24 }
  - { offsetInCU: 0x137DD, offset: 0x137DD, size: 0x8, addend: 0x0, symName: __ZNSt3__122__compressed_pair_elemImLi0ELb0EE5__getB8ue170006Ev, symObjAddr: 0x2134, symBinAddr: 0x100004B58, symSize: 0x14 }
  - { offsetInCU: 0x13803, offset: 0x13803, size: 0x8, addend: 0x0, symName: __ZNSt3__114__split_bufferIPiNS_9allocatorIS1_EEE19__destruct_at_beginB8ue170006EPS1_, symObjAddr: 0x2148, symBinAddr: 0x100004B6C, symSize: 0x2C }
  - { offsetInCU: 0x13837, offset: 0x13837, size: 0x8, addend: 0x0, symName: __ZNSt3__114__split_bufferIPiNS_9allocatorIS1_EEE19__destruct_at_beginEPS1_NS_17integral_constantIbLb1EEE, symObjAddr: 0x2174, symBinAddr: 0x100004B98, symSize: 0x20 }
  - { offsetInCU: 0x13878, offset: 0x13878, size: 0x8, addend: 0x0, symName: __ZNKSt3__15dequeIiNS_9allocatorIiEEE18__annotate_from_toB8ue170006EmmNS3_22__asan_annotation_typeENS3_23__asan_annotation_placeE, symObjAddr: 0x2194, symBinAddr: 0x100004BB8, symSize: 0x580 }
  - { offsetInCU: 0x13A4A, offset: 0x13A4A, size: 0x8, addend: 0x0, symName: __ZNKSt3__114__split_bufferIPiNS_9allocatorIS1_EEE5beginB8ue170006Ev, symObjAddr: 0x2714, symBinAddr: 0x100005138, symSize: 0x18 }
  - { offsetInCU: 0x13A70, offset: 0x13A70, size: 0x8, addend: 0x0, symName: __ZNKSt3__15dequeIiNS_9allocatorIiEEE5emptyB8ue170006Ev, symObjAddr: 0x272C, symBinAddr: 0x100005150, symSize: 0x30 }
  - { offsetInCU: 0x13A96, offset: 0x13A96, size: 0x8, addend: 0x0, symName: __ZNKSt3__15dequeIiNS_9allocatorIiEEE44__annotate_double_ended_contiguous_containerB8ue170006EPKvS5_S5_S5_S5_S5_, symObjAddr: 0x2770, symBinAddr: 0x100005194, symSize: 0x28 }
  - { offsetInCU: 0x13B04, offset: 0x13B04, size: 0x8, addend: 0x0, symName: __ZNKSt3__15dequeIiNS_9allocatorIiEEE22__annotate_whole_blockB8ue170006EmNS3_22__asan_annotation_typeE, symObjAddr: 0x2798, symBinAddr: 0x1000051BC, symSize: 0xAC }
  - { offsetInCU: 0x13B78, offset: 0x13B78, size: 0x8, addend: 0x0, symName: __ZNKSt3__15dequeIiNS_9allocatorIiEEE23__annotate_poison_blockB8ue170006EPKvS5_, symObjAddr: 0x2844, symBinAddr: 0x100005268, symSize: 0x44 }
  - { offsetInCU: 0x13BBC, offset: 0x13BBC, size: 0x8, addend: 0x0, symName: __ZNSt3__19allocatorIiE10deallocateB8ue170006EPim, symObjAddr: 0x2888, symBinAddr: 0x1000052AC, symSize: 0x40 }
  - { offsetInCU: 0x13BFE, offset: 0x13BFE, size: 0x8, addend: 0x0, symName: __ZNSt3__117__compressed_pairImNS_9allocatorIiEEE6secondB8ue170006Ev, symObjAddr: 0x2944, symBinAddr: 0x100005368, symSize: 0x24 }
  - { offsetInCU: 0x13C24, offset: 0x13C24, size: 0x8, addend: 0x0, symName: __ZNSt3__122__compressed_pair_elemINS_9allocatorIiEELi1ELb1EE5__getB8ue170006Ev, symObjAddr: 0x2968, symBinAddr: 0x10000538C, symSize: 0x14 }
  - { offsetInCU: 0x13C4A, offset: 0x13C4A, size: 0x8, addend: 0x0, symName: __ZNSt3__114__split_bufferIPiNS_9allocatorIS1_EEED2Ev, symObjAddr: 0x297C, symBinAddr: 0x1000053A0, symSize: 0x8C }
  - { offsetInCU: 0x13C76, offset: 0x13C76, size: 0x8, addend: 0x0, symName: __ZNSt3__114__split_bufferIPiNS_9allocatorIS1_EEE5clearB8ue170006Ev, symObjAddr: 0x2A08, symBinAddr: 0x10000542C, symSize: 0x28 }
  - { offsetInCU: 0x13C9C, offset: 0x13C9C, size: 0x8, addend: 0x0, symName: __ZNSt3__116allocator_traitsINS_9allocatorIPiEEE10deallocateB8ue170006ERS3_PS2_m, symObjAddr: 0x2A30, symBinAddr: 0x100005454, symSize: 0x34 }
  - { offsetInCU: 0x13CDE, offset: 0x13CDE, size: 0x8, addend: 0x0, symName: __ZNSt3__114__split_bufferIPiNS_9allocatorIS1_EEE7__allocB8ue170006Ev, symObjAddr: 0x2A64, symBinAddr: 0x100005488, symSize: 0x28 }
  - { offsetInCU: 0x13D04, offset: 0x13D04, size: 0x8, addend: 0x0, symName: __ZNKSt3__114__split_bufferIPiNS_9allocatorIS1_EEE8capacityB8ue170006Ev, symObjAddr: 0x2A8C, symBinAddr: 0x1000054B0, symSize: 0x40 }
  - { offsetInCU: 0x13D2A, offset: 0x13D2A, size: 0x8, addend: 0x0, symName: __ZNSt3__114__split_bufferIPiNS_9allocatorIS1_EEE17__destruct_at_endB8ue170006EPS1_, symObjAddr: 0x2ACC, symBinAddr: 0x1000054F0, symSize: 0x2C }
  - { offsetInCU: 0x13D5E, offset: 0x13D5E, size: 0x8, addend: 0x0, symName: __ZNSt3__114__split_bufferIPiNS_9allocatorIS1_EEE17__destruct_at_endB8ue170006EPS1_NS_17integral_constantIbLb0EEE, symObjAddr: 0x2AF8, symBinAddr: 0x10000551C, symSize: 0x80 }
  - { offsetInCU: 0x13D9F, offset: 0x13D9F, size: 0x8, addend: 0x0, symName: __ZNSt3__116allocator_traitsINS_9allocatorIPiEEE7destroyB8ue170006IS2_vEEvRS3_PT_, symObjAddr: 0x2B78, symBinAddr: 0x10000559C, symSize: 0x2C }
  - { offsetInCU: 0x13DDC, offset: 0x13DDC, size: 0x8, addend: 0x0, symName: __ZNSt3__19allocatorIPiE7destroyB8ue170006EPS1_, symObjAddr: 0x2BB8, symBinAddr: 0x1000055DC, symSize: 0x14 }
  - { offsetInCU: 0x13E10, offset: 0x13E10, size: 0x8, addend: 0x0, symName: __ZNSt3__19allocatorIPiE10deallocateB8ue170006EPS1_m, symObjAddr: 0x2BCC, symBinAddr: 0x1000055F0, symSize: 0x40 }
  - { offsetInCU: 0x13E52, offset: 0x13E52, size: 0x8, addend: 0x0, symName: __ZNSt3__117__compressed_pairIPPiNS_9allocatorIS1_EEE6secondB8ue170006Ev, symObjAddr: 0x2C0C, symBinAddr: 0x100005630, symSize: 0x24 }
  - { offsetInCU: 0x13E78, offset: 0x13E78, size: 0x8, addend: 0x0, symName: __ZNSt3__122__compressed_pair_elemINS_9allocatorIPiEELi1ELb1EE5__getB8ue170006Ev, symObjAddr: 0x2C30, symBinAddr: 0x100005654, symSize: 0x14 }
  - { offsetInCU: 0x13E9E, offset: 0x13E9E, size: 0x8, addend: 0x0, symName: __ZNKSt3__114__split_bufferIPiNS_9allocatorIS1_EEE9__end_capB8ue170006Ev, symObjAddr: 0x2C44, symBinAddr: 0x100005668, symSize: 0x28 }
  - { offsetInCU: 0x13EC4, offset: 0x13EC4, size: 0x8, addend: 0x0, symName: __ZNKSt3__117__compressed_pairIPPiNS_9allocatorIS1_EEE5firstB8ue170006Ev, symObjAddr: 0x2C6C, symBinAddr: 0x100005690, symSize: 0x24 }
  - { offsetInCU: 0x13EEA, offset: 0x13EEA, size: 0x8, addend: 0x0, symName: __ZNKSt3__122__compressed_pair_elemIPPiLi0ELb0EE5__getB8ue170006Ev, symObjAddr: 0x2C90, symBinAddr: 0x1000056B4, symSize: 0x14 }
  - { offsetInCU: 0x13F10, offset: 0x13F10, size: 0x8, addend: 0x0, symName: __ZNSt3__15queueINS_8functionIFvvEEENS_5dequeIS3_NS_9allocatorIS3_EEEEED2Ev, symObjAddr: 0x2CA4, symBinAddr: 0x1000056C8, symSize: 0x2C }
  - { offsetInCU: 0x13F3D, offset: 0x13F3D, size: 0x8, addend: 0x0, symName: __ZNSt3__15dequeINS_8functionIFvvEEENS_9allocatorIS3_EEED1B8ue170006Ev, symObjAddr: 0x2CD0, symBinAddr: 0x1000056F4, symSize: 0x2C }
  - { offsetInCU: 0x13F67, offset: 0x13F67, size: 0x8, addend: 0x0, symName: __ZNSt3__15dequeINS_8functionIFvvEEENS_9allocatorIS3_EEED2B8ue170006Ev, symObjAddr: 0x2CFC, symBinAddr: 0x100005720, symSize: 0xA4 }
  - { offsetInCU: 0x13FC0, offset: 0x13FC0, size: 0x8, addend: 0x0, symName: __ZNSt3__15dequeINS_8functionIFvvEEENS_9allocatorIS3_EEE5clearEv, symObjAddr: 0x2DA0, symBinAddr: 0x1000057C4, symSize: 0x194 }
  - { offsetInCU: 0x1401F, offset: 0x1401F, size: 0x8, addend: 0x0, symName: __ZNKSt3__15dequeINS_8functionIFvvEEENS_9allocatorIS3_EEE17__annotate_deleteB8ue170006Ev, symObjAddr: 0x2F34, symBinAddr: 0x100005958, symSize: 0xE8 }
  - { offsetInCU: 0x14064, offset: 0x14064, size: 0x8, addend: 0x0, symName: __ZNSt3__114__split_bufferIPNS_8functionIFvvEEENS_9allocatorIS4_EEE5beginB8ue170006Ev, symObjAddr: 0x301C, symBinAddr: 0x100005A40, symSize: 0x18 }
  - { offsetInCU: 0x1408A, offset: 0x1408A, size: 0x8, addend: 0x0, symName: __ZNSt3__114__split_bufferIPNS_8functionIFvvEEENS_9allocatorIS4_EEE3endB8ue170006Ev, symObjAddr: 0x3034, symBinAddr: 0x100005A58, symSize: 0x18 }
  - { offsetInCU: 0x140B0, offset: 0x140B0, size: 0x8, addend: 0x0, symName: __ZNSt3__116allocator_traitsINS_9allocatorINS_8functionIFvvEEEEEE10deallocateB8ue170006ERS5_PS4_m, symObjAddr: 0x304C, symBinAddr: 0x100005A70, symSize: 0x34 }
  - { offsetInCU: 0x140F2, offset: 0x140F2, size: 0x8, addend: 0x0, symName: __ZNSt3__15dequeINS_8functionIFvvEEENS_9allocatorIS3_EEE7__allocB8ue170006Ev, symObjAddr: 0x3080, symBinAddr: 0x100005AA4, symSize: 0x28 }
  - { offsetInCU: 0x14118, offset: 0x14118, size: 0x8, addend: 0x0, symName: __ZNSt3__114__split_bufferIPNS_8functionIFvvEEENS_9allocatorIS4_EEED1Ev, symObjAddr: 0x30A8, symBinAddr: 0x100005ACC, symSize: 0x2C }
  - { offsetInCU: 0x14144, offset: 0x14144, size: 0x8, addend: 0x0, symName: __ZNSt3__15dequeINS_8functionIFvvEEENS_9allocatorIS3_EEE5beginB8ue170006Ev, symObjAddr: 0x30D4, symBinAddr: 0x100005AF8, symSize: 0xB8 }
  - { offsetInCU: 0x1417A, offset: 0x1417A, size: 0x8, addend: 0x0, symName: __ZNSt3__15dequeINS_8functionIFvvEEENS_9allocatorIS3_EEE3endB8ue170006Ev, symObjAddr: 0x318C, symBinAddr: 0x100005BB0, symSize: 0xBC }
  - { offsetInCU: 0x141C0, offset: 0x141C0, size: 0x8, addend: 0x0, symName: __ZNSt3__116allocator_traitsINS_9allocatorINS_8functionIFvvEEEEEE7destroyB8ue170006IS4_vEEvRS5_PT_, symObjAddr: 0x327C, symBinAddr: 0x100005CA0, symSize: 0x2C }
  - { offsetInCU: 0x141FD, offset: 0x141FD, size: 0x8, addend: 0x0, symName: __ZNKSt3__116__deque_iteratorINS_8functionIFvvEEEPS3_RS3_PS4_lLl128EEdeB8ue170006Ev, symObjAddr: 0x32A8, symBinAddr: 0x100005CCC, symSize: 0x18 }
  - { offsetInCU: 0x14223, offset: 0x14223, size: 0x8, addend: 0x0, symName: __ZNSt3__116__deque_iteratorINS_8functionIFvvEEEPS3_RS3_PS4_lLl128EEppB8ue170006Ev, symObjAddr: 0x32C0, symBinAddr: 0x100005CE4, symSize: 0x70 }
  - { offsetInCU: 0x14249, offset: 0x14249, size: 0x8, addend: 0x0, symName: __ZNSt3__15dequeINS_8functionIFvvEEENS_9allocatorIS3_EEE6__sizeB8ue170006Ev, symObjAddr: 0x3330, symBinAddr: 0x100005D54, symSize: 0x28 }
  - { offsetInCU: 0x1426F, offset: 0x1426F, size: 0x8, addend: 0x0, symName: __ZNKSt3__114__split_bufferIPNS_8functionIFvvEEENS_9allocatorIS4_EEE4sizeB8ue170006Ev, symObjAddr: 0x3358, symBinAddr: 0x100005D7C, symSize: 0x28 }
  - { offsetInCU: 0x14295, offset: 0x14295, size: 0x8, addend: 0x0, symName: __ZNSt3__114__split_bufferIPNS_8functionIFvvEEENS_9allocatorIS4_EEE5frontB8ue170006Ev, symObjAddr: 0x3380, symBinAddr: 0x100005DA4, symSize: 0x18 }
  - { offsetInCU: 0x142BB, offset: 0x142BB, size: 0x8, addend: 0x0, symName: __ZNSt3__114__split_bufferIPNS_8functionIFvvEEENS_9allocatorIS4_EEE9pop_frontB8ue170006Ev, symObjAddr: 0x3398, symBinAddr: 0x100005DBC, symSize: 0x2C }
  - { offsetInCU: 0x142E1, offset: 0x142E1, size: 0x8, addend: 0x0, symName: __ZNKSt3__15dequeINS_8functionIFvvEEENS_9allocatorIS3_EEE14__annotate_newB8ue170006Em, symObjAddr: 0x33C4, symBinAddr: 0x100005DE8, symSize: 0xB8 }
  - { offsetInCU: 0x14316, offset: 0x14316, size: 0x8, addend: 0x0, symName: __ZNKSt3__114__split_bufferIPNS_8functionIFvvEEENS_9allocatorIS4_EEE5emptyB8ue170006Ev, symObjAddr: 0x347C, symBinAddr: 0x100005EA0, symSize: 0x28 }
  - { offsetInCU: 0x1433C, offset: 0x1433C, size: 0x8, addend: 0x0, symName: __ZNSt3__116__deque_iteratorINS_8functionIFvvEEEPS3_RS3_PS4_lLl128EEC1B8ue170006ES6_S4_, symObjAddr: 0x34A4, symBinAddr: 0x100005EC8, symSize: 0x3C }
  - { offsetInCU: 0x14384, offset: 0x14384, size: 0x8, addend: 0x0, symName: __ZNSt3__116__deque_iteratorINS_8functionIFvvEEEPS3_RS3_PS4_lLl128EEC2B8ue170006ES6_S4_, symObjAddr: 0x34E0, symBinAddr: 0x100005F04, symSize: 0x2C }
  - { offsetInCU: 0x143CC, offset: 0x143CC, size: 0x8, addend: 0x0, symName: __ZNKSt3__15dequeINS_8functionIFvvEEENS_9allocatorIS3_EEE4sizeB8ue170006Ev, symObjAddr: 0x350C, symBinAddr: 0x100005F30, symSize: 0x28 }
  - { offsetInCU: 0x143F2, offset: 0x143F2, size: 0x8, addend: 0x0, symName: __ZNKSt3__15dequeINS_8functionIFvvEEENS_9allocatorIS3_EEE6__sizeB8ue170006Ev, symObjAddr: 0x3534, symBinAddr: 0x100005F58, symSize: 0x28 }
  - { offsetInCU: 0x14418, offset: 0x14418, size: 0x8, addend: 0x0, symName: __ZNKSt3__117__compressed_pairImNS_9allocatorINS_8functionIFvvEEEEEE5firstB8ue170006Ev, symObjAddr: 0x355C, symBinAddr: 0x100005F80, symSize: 0x24 }
  - { offsetInCU: 0x1443E, offset: 0x1443E, size: 0x8, addend: 0x0, symName: __ZNSt3__19allocatorINS_8functionIFvvEEEE7destroyB8ue170006EPS3_, symObjAddr: 0x35B0, symBinAddr: 0x100005FD4, symSize: 0x28 }
  - { offsetInCU: 0x14472, offset: 0x14472, size: 0x8, addend: 0x0, symName: __ZNSt3__117__compressed_pairImNS_9allocatorINS_8functionIFvvEEEEEE5firstB8ue170006Ev, symObjAddr: 0x35D8, symBinAddr: 0x100005FFC, symSize: 0x24 }
  - { offsetInCU: 0x14498, offset: 0x14498, size: 0x8, addend: 0x0, symName: __ZNSt3__114__split_bufferIPNS_8functionIFvvEEENS_9allocatorIS4_EEE19__destruct_at_beginB8ue170006EPS4_, symObjAddr: 0x35FC, symBinAddr: 0x100006020, symSize: 0x2C }
  - { offsetInCU: 0x144CC, offset: 0x144CC, size: 0x8, addend: 0x0, symName: __ZNSt3__114__split_bufferIPNS_8functionIFvvEEENS_9allocatorIS4_EEE19__destruct_at_beginEPS4_NS_17integral_constantIbLb1EEE, symObjAddr: 0x3628, symBinAddr: 0x10000604C, symSize: 0x20 }
  - { offsetInCU: 0x1450D, offset: 0x1450D, size: 0x8, addend: 0x0, symName: __ZNKSt3__15dequeINS_8functionIFvvEEENS_9allocatorIS3_EEE18__annotate_from_toB8ue170006EmmNS6_22__asan_annotation_typeENS6_23__asan_annotation_placeE, symObjAddr: 0x3648, symBinAddr: 0x10000606C, symSize: 0x580 }
  - { offsetInCU: 0x146DF, offset: 0x146DF, size: 0x8, addend: 0x0, symName: __ZNKSt3__114__split_bufferIPNS_8functionIFvvEEENS_9allocatorIS4_EEE5beginB8ue170006Ev, symObjAddr: 0x3BC8, symBinAddr: 0x1000065EC, symSize: 0x18 }
  - { offsetInCU: 0x14705, offset: 0x14705, size: 0x8, addend: 0x0, symName: __ZNKSt3__15dequeINS_8functionIFvvEEENS_9allocatorIS3_EEE5emptyB8ue170006Ev, symObjAddr: 0x3BE0, symBinAddr: 0x100006604, symSize: 0x30 }
  - { offsetInCU: 0x1472B, offset: 0x1472B, size: 0x8, addend: 0x0, symName: __ZNKSt3__15dequeINS_8functionIFvvEEENS_9allocatorIS3_EEE44__annotate_double_ended_contiguous_containerB8ue170006EPKvS8_S8_S8_S8_S8_, symObjAddr: 0x3C24, symBinAddr: 0x100006648, symSize: 0x28 }
  - { offsetInCU: 0x14799, offset: 0x14799, size: 0x8, addend: 0x0, symName: __ZNKSt3__15dequeINS_8functionIFvvEEENS_9allocatorIS3_EEE22__annotate_whole_blockB8ue170006EmNS6_22__asan_annotation_typeE, symObjAddr: 0x3C4C, symBinAddr: 0x100006670, symSize: 0xAC }
  - { offsetInCU: 0x1480D, offset: 0x1480D, size: 0x8, addend: 0x0, symName: __ZNKSt3__15dequeINS_8functionIFvvEEENS_9allocatorIS3_EEE23__annotate_poison_blockB8ue170006EPKvS8_, symObjAddr: 0x3CF8, symBinAddr: 0x10000671C, symSize: 0x44 }
  - { offsetInCU: 0x14851, offset: 0x14851, size: 0x8, addend: 0x0, symName: __ZNSt3__19allocatorINS_8functionIFvvEEEE10deallocateB8ue170006EPS3_m, symObjAddr: 0x3D3C, symBinAddr: 0x100006760, symSize: 0x40 }
  - { offsetInCU: 0x14893, offset: 0x14893, size: 0x8, addend: 0x0, symName: __ZNSt3__117__compressed_pairImNS_9allocatorINS_8functionIFvvEEEEEE6secondB8ue170006Ev, symObjAddr: 0x3D7C, symBinAddr: 0x1000067A0, symSize: 0x24 }
  - { offsetInCU: 0x148B9, offset: 0x148B9, size: 0x8, addend: 0x0, symName: __ZNSt3__122__compressed_pair_elemINS_9allocatorINS_8functionIFvvEEEEELi1ELb1EE5__getB8ue170006Ev, symObjAddr: 0x3DA0, symBinAddr: 0x1000067C4, symSize: 0x14 }
  - { offsetInCU: 0x148DF, offset: 0x148DF, size: 0x8, addend: 0x0, symName: __ZNSt3__114__split_bufferIPNS_8functionIFvvEEENS_9allocatorIS4_EEED2Ev, symObjAddr: 0x3DB4, symBinAddr: 0x1000067D8, symSize: 0x8C }
  - { offsetInCU: 0x1490B, offset: 0x1490B, size: 0x8, addend: 0x0, symName: __ZNSt3__114__split_bufferIPNS_8functionIFvvEEENS_9allocatorIS4_EEE5clearB8ue170006Ev, symObjAddr: 0x3E40, symBinAddr: 0x100006864, symSize: 0x28 }
  - { offsetInCU: 0x14931, offset: 0x14931, size: 0x8, addend: 0x0, symName: __ZNSt3__116allocator_traitsINS_9allocatorIPNS_8functionIFvvEEEEEE10deallocateB8ue170006ERS6_PS5_m, symObjAddr: 0x3E68, symBinAddr: 0x10000688C, symSize: 0x34 }
  - { offsetInCU: 0x14973, offset: 0x14973, size: 0x8, addend: 0x0, symName: __ZNSt3__114__split_bufferIPNS_8functionIFvvEEENS_9allocatorIS4_EEE7__allocB8ue170006Ev, symObjAddr: 0x3E9C, symBinAddr: 0x1000068C0, symSize: 0x28 }
  - { offsetInCU: 0x14999, offset: 0x14999, size: 0x8, addend: 0x0, symName: __ZNKSt3__114__split_bufferIPNS_8functionIFvvEEENS_9allocatorIS4_EEE8capacityB8ue170006Ev, symObjAddr: 0x3EC4, symBinAddr: 0x1000068E8, symSize: 0x40 }
  - { offsetInCU: 0x149BF, offset: 0x149BF, size: 0x8, addend: 0x0, symName: __ZNSt3__114__split_bufferIPNS_8functionIFvvEEENS_9allocatorIS4_EEE17__destruct_at_endB8ue170006EPS4_, symObjAddr: 0x3F04, symBinAddr: 0x100006928, symSize: 0x2C }
  - { offsetInCU: 0x149F3, offset: 0x149F3, size: 0x8, addend: 0x0, symName: __ZNSt3__114__split_bufferIPNS_8functionIFvvEEENS_9allocatorIS4_EEE17__destruct_at_endB8ue170006EPS4_NS_17integral_constantIbLb0EEE, symObjAddr: 0x3F30, symBinAddr: 0x100006954, symSize: 0x80 }
  - { offsetInCU: 0x14A34, offset: 0x14A34, size: 0x8, addend: 0x0, symName: __ZNSt3__116allocator_traitsINS_9allocatorIPNS_8functionIFvvEEEEEE7destroyB8ue170006IS5_vEEvRS6_PT_, symObjAddr: 0x3FB0, symBinAddr: 0x1000069D4, symSize: 0x2C }
  - { offsetInCU: 0x14A71, offset: 0x14A71, size: 0x8, addend: 0x0, symName: __ZNSt3__19allocatorIPNS_8functionIFvvEEEE7destroyB8ue170006EPS4_, symObjAddr: 0x3FF0, symBinAddr: 0x100006A14, symSize: 0x14 }
  - { offsetInCU: 0x14AA5, offset: 0x14AA5, size: 0x8, addend: 0x0, symName: __ZNSt3__19allocatorIPNS_8functionIFvvEEEE10deallocateB8ue170006EPS4_m, symObjAddr: 0x4004, symBinAddr: 0x100006A28, symSize: 0x40 }
  - { offsetInCU: 0x14AE7, offset: 0x14AE7, size: 0x8, addend: 0x0, symName: __ZNSt3__117__compressed_pairIPPNS_8functionIFvvEEENS_9allocatorIS4_EEE6secondB8ue170006Ev, symObjAddr: 0x4044, symBinAddr: 0x100006A68, symSize: 0x24 }
  - { offsetInCU: 0x14B0D, offset: 0x14B0D, size: 0x8, addend: 0x0, symName: __ZNSt3__122__compressed_pair_elemINS_9allocatorIPNS_8functionIFvvEEEEELi1ELb1EE5__getB8ue170006Ev, symObjAddr: 0x4068, symBinAddr: 0x100006A8C, symSize: 0x14 }
  - { offsetInCU: 0x14B33, offset: 0x14B33, size: 0x8, addend: 0x0, symName: __ZNKSt3__114__split_bufferIPNS_8functionIFvvEEENS_9allocatorIS4_EEE9__end_capB8ue170006Ev, symObjAddr: 0x407C, symBinAddr: 0x100006AA0, symSize: 0x28 }
  - { offsetInCU: 0x14B59, offset: 0x14B59, size: 0x8, addend: 0x0, symName: __ZNKSt3__117__compressed_pairIPPNS_8functionIFvvEEENS_9allocatorIS4_EEE5firstB8ue170006Ev, symObjAddr: 0x40A4, symBinAddr: 0x100006AC8, symSize: 0x24 }
  - { offsetInCU: 0x14B7F, offset: 0x14B7F, size: 0x8, addend: 0x0, symName: __ZNKSt3__122__compressed_pair_elemIPPNS_8functionIFvvEEELi0ELb0EE5__getB8ue170006Ev, symObjAddr: 0x40C8, symBinAddr: 0x100006AEC, symSize: 0x14 }
  - { offsetInCU: 0x14BA5, offset: 0x14BA5, size: 0x8, addend: 0x0, symName: __ZNSt16invalid_argumentC2B8ue170006EPKc, symObjAddr: 0x40DC, symBinAddr: 0x100006B00, symSize: 0x4C }
  - { offsetInCU: 0x14BDD, offset: 0x14BDD, size: 0x8, addend: 0x0, symName: __ZNSt3__110lock_guardINS_5mutexEEC2B8ue170006ERS1_, symObjAddr: 0x4128, symBinAddr: 0x100006B4C, symSize: 0x3C }
  - { offsetInCU: 0x14C15, offset: 0x14C15, size: 0x8, addend: 0x0, symName: __ZNSt3__110lock_guardINS_5mutexEED2B8ue170006Ev, symObjAddr: 0x4164, symBinAddr: 0x100006B88, symSize: 0x30 }
  - { offsetInCU: 0x14C3F, offset: 0x14C3F, size: 0x8, addend: 0x0, symName: __ZNSt3__16vectorI6workerNS_9allocatorIS1_EEEC2Em, symObjAddr: 0x4194, symBinAddr: 0x100006BB8, symSize: 0xD4 }
  - { offsetInCU: 0x14C9D, offset: 0x14C9D, size: 0x8, addend: 0x0, symName: __ZNSt3__117__compressed_pairIP6workerNS_9allocatorIS1_EEEC1B8ue170006IDnNS_18__default_init_tagEEEOT_OT0_, symObjAddr: 0x4268, symBinAddr: 0x100006C8C, symSize: 0x3C }
  - { offsetInCU: 0x14CF5, offset: 0x14CF5, size: 0x8, addend: 0x0, symName: __ZNSt3__16vectorI6workerNS_9allocatorIS1_EEE16__destroy_vectorC1B8ue170006ERS4_, symObjAddr: 0x42E4, symBinAddr: 0x100006D08, symSize: 0x34 }
  - { offsetInCU: 0x14D2E, offset: 0x14D2E, size: 0x8, addend: 0x0, symName: __ZNSt3__16vectorI6workerNS_9allocatorIS1_EEE11__vallocateB8ue170006Em, symObjAddr: 0x4318, symBinAddr: 0x100006D3C, symSize: 0xB4 }
  - { offsetInCU: 0x14D73, offset: 0x14D73, size: 0x8, addend: 0x0, symName: __ZNSt3__16vectorI6workerNS_9allocatorIS1_EEE18__construct_at_endEm, symObjAddr: 0x43CC, symBinAddr: 0x100006DF0, symSize: 0xC8 }
  - { offsetInCU: 0x14DE9, offset: 0x14DE9, size: 0x8, addend: 0x0, symName: __ZNSt3__128__exception_guard_exceptionsINS_6vectorI6workerNS_9allocatorIS2_EEE16__destroy_vectorEE10__completeB8ue170006Ev, symObjAddr: 0x4494, symBinAddr: 0x100006EB8, symSize: 0x1C }
  - { offsetInCU: 0x14E0F, offset: 0x14E0F, size: 0x8, addend: 0x0, symName: __ZNSt3__128__exception_guard_exceptionsINS_6vectorI6workerNS_9allocatorIS2_EEE16__destroy_vectorEED1B8ue170006Ev, symObjAddr: 0x44B0, symBinAddr: 0x100006ED4, symSize: 0x2C }
  - { offsetInCU: 0x14E39, offset: 0x14E39, size: 0x8, addend: 0x0, symName: __ZNSt3__117__compressed_pairIP6workerNS_9allocatorIS1_EEEC2B8ue170006IDnNS_18__default_init_tagEEEOT_OT0_, symObjAddr: 0x44DC, symBinAddr: 0x100006F00, symSize: 0x40 }
  - { offsetInCU: 0x14E91, offset: 0x14E91, size: 0x8, addend: 0x0, symName: __ZNSt3__122__compressed_pair_elemIP6workerLi0ELb0EEC2B8ue170006IDnvEEOT_, symObjAddr: 0x451C, symBinAddr: 0x100006F40, symSize: 0x1C }
  - { offsetInCU: 0x14ED3, offset: 0x14ED3, size: 0x8, addend: 0x0, symName: __ZNSt3__122__compressed_pair_elemINS_9allocatorI6workerEELi1ELb1EEC2B8ue170006ENS_18__default_init_tagE, symObjAddr: 0x4538, symBinAddr: 0x100006F5C, symSize: 0x2C }
  - { offsetInCU: 0x14F08, offset: 0x14F08, size: 0x8, addend: 0x0, symName: __ZNSt3__19allocatorI6workerEC2B8ue170006Ev, symObjAddr: 0x4564, symBinAddr: 0x100006F88, symSize: 0x2C }
  - { offsetInCU: 0x14F32, offset: 0x14F32, size: 0x8, addend: 0x0, symName: __ZNSt3__116__non_trivial_ifILb1ENS_9allocatorI6workerEEEC2B8ue170006Ev, symObjAddr: 0x4590, symBinAddr: 0x100006FB4, symSize: 0x14 }
  - { offsetInCU: 0x14F5C, offset: 0x14F5C, size: 0x8, addend: 0x0, symName: __ZNSt3__128__exception_guard_exceptionsINS_6vectorI6workerNS_9allocatorIS2_EEE16__destroy_vectorEEC1B8ue170006ES6_, symObjAddr: 0x45A4, symBinAddr: 0x100006FC8, symSize: 0x34 }
  - { offsetInCU: 0x14F94, offset: 0x14F94, size: 0x8, addend: 0x0, symName: __ZNSt3__128__exception_guard_exceptionsINS_6vectorI6workerNS_9allocatorIS2_EEE16__destroy_vectorEEC2B8ue170006ES6_, symObjAddr: 0x45D8, symBinAddr: 0x100006FFC, symSize: 0x24 }
  - { offsetInCU: 0x14FCC, offset: 0x14FCC, size: 0x8, addend: 0x0, symName: __ZNSt3__16vectorI6workerNS_9allocatorIS1_EEE16__destroy_vectorC2B8ue170006ERS4_, symObjAddr: 0x45FC, symBinAddr: 0x100007020, symSize: 0x20 }
  - { offsetInCU: 0x15005, offset: 0x15005, size: 0x8, addend: 0x0, symName: __ZNKSt3__16vectorI6workerNS_9allocatorIS1_EEE8max_sizeEv, symObjAddr: 0x461C, symBinAddr: 0x100007040, symSize: 0x60 }
  - { offsetInCU: 0x1502D, offset: 0x1502D, size: 0x8, addend: 0x0, symName: __ZNKSt3__16vectorI6workerNS_9allocatorIS1_EEE20__throw_length_errorB8ue170006Ev, symObjAddr: 0x467C, symBinAddr: 0x1000070A0, symSize: 0x1C }
  - { offsetInCU: 0x15053, offset: 0x15053, size: 0x8, addend: 0x0, symName: __ZNSt3__16vectorI6workerNS_9allocatorIS1_EEE7__allocB8ue170006Ev, symObjAddr: 0x46D8, symBinAddr: 0x1000070FC, symSize: 0x28 }
  - { offsetInCU: 0x15079, offset: 0x15079, size: 0x8, addend: 0x0, symName: __ZNSt3__16vectorI6workerNS_9allocatorIS1_EEE9__end_capB8ue170006Ev, symObjAddr: 0x4700, symBinAddr: 0x100007124, symSize: 0x28 }
  - { offsetInCU: 0x1509F, offset: 0x1509F, size: 0x8, addend: 0x0, symName: __ZNKSt3__16vectorI6workerNS_9allocatorIS1_EEE14__annotate_newB8ue170006Em, symObjAddr: 0x4728, symBinAddr: 0x10000714C, symSize: 0xC8 }
  - { offsetInCU: 0x150DF, offset: 0x150DF, size: 0x8, addend: 0x0, symName: __ZNSt3__116allocator_traitsINS_9allocatorI6workerEEE8max_sizeB8ue170006IS3_vEEmRKS3_, symObjAddr: 0x481C, symBinAddr: 0x100007240, symSize: 0x24 }
  - { offsetInCU: 0x1510D, offset: 0x1510D, size: 0x8, addend: 0x0, symName: __ZNKSt3__16vectorI6workerNS_9allocatorIS1_EEE7__allocB8ue170006Ev, symObjAddr: 0x4840, symBinAddr: 0x100007264, symSize: 0x28 }
  - { offsetInCU: 0x15133, offset: 0x15133, size: 0x8, addend: 0x0, symName: __ZNSt3__114numeric_limitsIlE3maxB8ue170006Ev, symObjAddr: 0x4868, symBinAddr: 0x10000728C, symSize: 0x14 }
  - { offsetInCU: 0x15152, offset: 0x15152, size: 0x8, addend: 0x0, symName: __ZNKSt3__16__lessIvvEclB8ue170006ImmEEbRKT_RKT0_, symObjAddr: 0x48D0, symBinAddr: 0x1000072F4, symSize: 0x34 }
  - { offsetInCU: 0x151A6, offset: 0x151A6, size: 0x8, addend: 0x0, symName: __ZNKSt3__19allocatorI6workerE8max_sizeB8ue170006Ev, symObjAddr: 0x4904, symBinAddr: 0x100007328, symSize: 0x20 }
  - { offsetInCU: 0x151CC, offset: 0x151CC, size: 0x8, addend: 0x0, symName: __ZNKSt3__117__compressed_pairIP6workerNS_9allocatorIS1_EEE6secondB8ue170006Ev, symObjAddr: 0x4924, symBinAddr: 0x100007348, symSize: 0x24 }
  - { offsetInCU: 0x151F2, offset: 0x151F2, size: 0x8, addend: 0x0, symName: __ZNKSt3__122__compressed_pair_elemINS_9allocatorI6workerEELi1ELb1EE5__getB8ue170006Ev, symObjAddr: 0x4948, symBinAddr: 0x10000736C, symSize: 0x14 }
  - { offsetInCU: 0x15218, offset: 0x15218, size: 0x8, addend: 0x0, symName: __ZNSt3__123__libcpp_numeric_limitsIlLb1EE3maxB8ue170006Ev, symObjAddr: 0x495C, symBinAddr: 0x100007380, symSize: 0x8 }
  - { offsetInCU: 0x1522C, offset: 0x1522C, size: 0x8, addend: 0x0, symName: __ZNSt12length_errorC1B8ue170006EPKc, symObjAddr: 0x49C8, symBinAddr: 0x1000073EC, symSize: 0x34 }
  - { offsetInCU: 0x15264, offset: 0x15264, size: 0x8, addend: 0x0, symName: __ZNSt12length_errorC2B8ue170006EPKc, symObjAddr: 0x49FC, symBinAddr: 0x100007420, symSize: 0x4C }
  - { offsetInCU: 0x1529C, offset: 0x1529C, size: 0x8, addend: 0x0, symName: __ZNSt3__19allocatorI6workerE8allocateB8ue170006Em, symObjAddr: 0x4A48, symBinAddr: 0x10000746C, symSize: 0x5C }
  - { offsetInCU: 0x152D0, offset: 0x152D0, size: 0x8, addend: 0x0, symName: __ZNSt3__117__compressed_pairIP6workerNS_9allocatorIS1_EEE6secondB8ue170006Ev, symObjAddr: 0x4B24, symBinAddr: 0x100007548, symSize: 0x24 }
  - { offsetInCU: 0x152F6, offset: 0x152F6, size: 0x8, addend: 0x0, symName: __ZNSt3__122__compressed_pair_elemINS_9allocatorI6workerEELi1ELb1EE5__getB8ue170006Ev, symObjAddr: 0x4B48, symBinAddr: 0x10000756C, symSize: 0x14 }
  - { offsetInCU: 0x1531C, offset: 0x1531C, size: 0x8, addend: 0x0, symName: __ZNSt3__117__compressed_pairIP6workerNS_9allocatorIS1_EEE5firstB8ue170006Ev, symObjAddr: 0x4B5C, symBinAddr: 0x100007580, symSize: 0x24 }
  - { offsetInCU: 0x15342, offset: 0x15342, size: 0x8, addend: 0x0, symName: __ZNSt3__122__compressed_pair_elemIP6workerLi0ELb0EE5__getB8ue170006Ev, symObjAddr: 0x4B80, symBinAddr: 0x1000075A4, symSize: 0x14 }
  - { offsetInCU: 0x15368, offset: 0x15368, size: 0x8, addend: 0x0, symName: __ZNKSt3__16vectorI6workerNS_9allocatorIS1_EEE31__annotate_contiguous_containerB8ue170006EPKvS6_S6_S6_, symObjAddr: 0x4B94, symBinAddr: 0x1000075B8, symSize: 0x20 }
  - { offsetInCU: 0x153BE, offset: 0x153BE, size: 0x8, addend: 0x0, symName: __ZNKSt3__16vectorI6workerNS_9allocatorIS1_EEE4dataB8ue170006Ev, symObjAddr: 0x4BB4, symBinAddr: 0x1000075D8, symSize: 0x28 }
  - { offsetInCU: 0x153E4, offset: 0x153E4, size: 0x8, addend: 0x0, symName: __ZNKSt3__16vectorI6workerNS_9allocatorIS1_EEE8capacityB8ue170006Ev, symObjAddr: 0x4BDC, symBinAddr: 0x100007600, symSize: 0x40 }
  - { offsetInCU: 0x1540A, offset: 0x1540A, size: 0x8, addend: 0x0, symName: __ZNKSt3__16vectorI6workerNS_9allocatorIS1_EEE9__end_capB8ue170006Ev, symObjAddr: 0x4C30, symBinAddr: 0x100007654, symSize: 0x28 }
  - { offsetInCU: 0x15430, offset: 0x15430, size: 0x8, addend: 0x0, symName: __ZNKSt3__117__compressed_pairIP6workerNS_9allocatorIS1_EEE5firstB8ue170006Ev, symObjAddr: 0x4C58, symBinAddr: 0x10000767C, symSize: 0x24 }
  - { offsetInCU: 0x15456, offset: 0x15456, size: 0x8, addend: 0x0, symName: __ZNKSt3__122__compressed_pair_elemIP6workerLi0ELb0EE5__getB8ue170006Ev, symObjAddr: 0x4C7C, symBinAddr: 0x1000076A0, symSize: 0x14 }
  - { offsetInCU: 0x15498, offset: 0x15498, size: 0x8, addend: 0x0, symName: __ZNSt3__16vectorI6workerNS_9allocatorIS1_EEE21_ConstructTransactionC1B8ue170006ERS4_m, symObjAddr: 0x4C90, symBinAddr: 0x1000076B4, symSize: 0x3C }
  - { offsetInCU: 0x154E0, offset: 0x154E0, size: 0x8, addend: 0x0, symName: __ZNSt3__116allocator_traitsINS_9allocatorI6workerEEE9constructB8ue170006IS2_JEvEEvRS3_PT_DpOT0_, symObjAddr: 0x4CCC, symBinAddr: 0x1000076F0, symSize: 0x2C }
  - { offsetInCU: 0x15522, offset: 0x15522, size: 0x8, addend: 0x0, symName: __ZNSt3__16vectorI6workerNS_9allocatorIS1_EEE21_ConstructTransactionD1B8ue170006Ev, symObjAddr: 0x4CF8, symBinAddr: 0x10000771C, symSize: 0x2C }
  - { offsetInCU: 0x1554C, offset: 0x1554C, size: 0x8, addend: 0x0, symName: __ZNSt3__16vectorI6workerNS_9allocatorIS1_EEE21_ConstructTransactionC2B8ue170006ERS4_m, symObjAddr: 0x4D24, symBinAddr: 0x100007748, symSize: 0x4C }
  - { offsetInCU: 0x15594, offset: 0x15594, size: 0x8, addend: 0x0, symName: __ZNSt3__19allocatorI6workerE9constructB8ue170006IS1_JEEEvPT_DpOT0_, symObjAddr: 0x4D70, symBinAddr: 0x100007794, symSize: 0x3C }
  - { offsetInCU: 0x155DC, offset: 0x155DC, size: 0x8, addend: 0x0, symName: __ZN6workerC1Ev, symObjAddr: 0x4DAC, symBinAddr: 0x1000077D0, symSize: 0x2C }
  - { offsetInCU: 0x15608, offset: 0x15608, size: 0x8, addend: 0x0, symName: __ZN6workerC2Ev, symObjAddr: 0x4DD8, symBinAddr: 0x1000077FC, symSize: 0x7C }
  - { offsetInCU: 0x15634, offset: 0x15634, size: 0x8, addend: 0x0, symName: __ZNSt3__16vectorI6workerNS_9allocatorIS1_EEE21_ConstructTransactionD2B8ue170006Ev, symObjAddr: 0x4E54, symBinAddr: 0x100007878, symSize: 0x20 }
  - { offsetInCU: 0x1565E, offset: 0x1565E, size: 0x8, addend: 0x0, symName: __ZNSt3__128__exception_guard_exceptionsINS_6vectorI6workerNS_9allocatorIS2_EEE16__destroy_vectorEED2B8ue170006Ev, symObjAddr: 0x4E74, symBinAddr: 0x100007898, symSize: 0x50 }
  - { offsetInCU: 0x15688, offset: 0x15688, size: 0x8, addend: 0x0, symName: __ZNSt3__16vectorI6workerNS_9allocatorIS1_EEE16__destroy_vectorclB8ue170006Ev, symObjAddr: 0x4EC4, symBinAddr: 0x1000078E8, symSize: 0x90 }
  - { offsetInCU: 0x156AE, offset: 0x156AE, size: 0x8, addend: 0x0, symName: __ZNSt3__16vectorI6workerNS_9allocatorIS1_EEE7__clearB8ue170006Ev, symObjAddr: 0x4F54, symBinAddr: 0x100007978, symSize: 0x28 }
  - { offsetInCU: 0x156D4, offset: 0x156D4, size: 0x8, addend: 0x0, symName: __ZNKSt3__16vectorI6workerNS_9allocatorIS1_EEE17__annotate_deleteB8ue170006Ev, symObjAddr: 0x4F7C, symBinAddr: 0x1000079A0, symSize: 0xD4 }
  - { offsetInCU: 0x156FA, offset: 0x156FA, size: 0x8, addend: 0x0, symName: __ZNSt3__116allocator_traitsINS_9allocatorI6workerEEE10deallocateB8ue170006ERS3_PS2_m, symObjAddr: 0x5050, symBinAddr: 0x100007A74, symSize: 0x34 }
  - { offsetInCU: 0x1573C, offset: 0x1573C, size: 0x8, addend: 0x0, symName: __ZNSt3__16vectorI6workerNS_9allocatorIS1_EEE22__base_destruct_at_endB8ue170006EPS1_, symObjAddr: 0x5084, symBinAddr: 0x100007AA8, symSize: 0x8C }
  - { offsetInCU: 0x15781, offset: 0x15781, size: 0x8, addend: 0x0, symName: __ZNSt3__116allocator_traitsINS_9allocatorI6workerEEE7destroyB8ue170006IS2_vEEvRS3_PT_, symObjAddr: 0x5110, symBinAddr: 0x100007B34, symSize: 0x2C }
  - { offsetInCU: 0x157BE, offset: 0x157BE, size: 0x8, addend: 0x0, symName: __ZNSt3__19allocatorI6workerE7destroyB8ue170006EPS1_, symObjAddr: 0x513C, symBinAddr: 0x100007B60, symSize: 0x28 }
  - { offsetInCU: 0x157F2, offset: 0x157F2, size: 0x8, addend: 0x0, symName: __ZN6workerD1Ev, symObjAddr: 0x5164, symBinAddr: 0x100007B88, symSize: 0x2C }
  - { offsetInCU: 0x1581E, offset: 0x1581E, size: 0x8, addend: 0x0, symName: __ZN6workerD2Ev, symObjAddr: 0x5190, symBinAddr: 0x100007BB4, symSize: 0x44 }
  - { offsetInCU: 0x1584A, offset: 0x1584A, size: 0x8, addend: 0x0, symName: __ZNSt3__19allocatorI6workerE10deallocateB8ue170006EPS1_m, symObjAddr: 0x51D4, symBinAddr: 0x100007BF8, symSize: 0x44 }
  - { offsetInCU: 0x1588C, offset: 0x1588C, size: 0x8, addend: 0x0, symName: __ZNSt3__15queueINS_8functionIFvvEEENS_5dequeIS3_NS_9allocatorIS3_EEEEEC2B8ue170006Ev, symObjAddr: 0x5218, symBinAddr: 0x100007C3C, symSize: 0x2C }
  - { offsetInCU: 0x158B6, offset: 0x158B6, size: 0x8, addend: 0x0, symName: __ZNSt3__15dequeINS_8functionIFvvEEENS_9allocatorIS3_EEEC1B8ue170006Ev, symObjAddr: 0x5244, symBinAddr: 0x100007C68, symSize: 0x2C }
  - { offsetInCU: 0x158E0, offset: 0x158E0, size: 0x8, addend: 0x0, symName: __ZNSt3__15dequeINS_8functionIFvvEEENS_9allocatorIS3_EEEC2B8ue170006Ev, symObjAddr: 0x5270, symBinAddr: 0x100007C94, symSize: 0x5C }
  - { offsetInCU: 0x1590A, offset: 0x1590A, size: 0x8, addend: 0x0, symName: __ZNSt3__114__split_bufferIPNS_8functionIFvvEEENS_9allocatorIS4_EEEC1B8ue170006Ev, symObjAddr: 0x52CC, symBinAddr: 0x100007CF0, symSize: 0x2C }
  - { offsetInCU: 0x1593A, offset: 0x1593A, size: 0x8, addend: 0x0, symName: __ZNSt3__117__compressed_pairImNS_9allocatorINS_8functionIFvvEEEEEEC1B8ue170006IiNS_18__default_init_tagEEEOT_OT0_, symObjAddr: 0x52F8, symBinAddr: 0x100007D1C, symSize: 0x3C }
  - { offsetInCU: 0x15992, offset: 0x15992, size: 0x8, addend: 0x0, symName: __ZNSt3__114__split_bufferIPNS_8functionIFvvEEENS_9allocatorIS4_EEEC2B8ue170006Ev, symObjAddr: 0x5334, symBinAddr: 0x100007D58, symSize: 0x50 }
  - { offsetInCU: 0x159BC, offset: 0x159BC, size: 0x8, addend: 0x0, symName: __ZNSt3__117__compressed_pairIPPNS_8functionIFvvEEENS_9allocatorIS4_EEEC1B8ue170006IDnNS_18__default_init_tagEEEOT_OT0_, symObjAddr: 0x5384, symBinAddr: 0x100007DA8, symSize: 0x3C }
  - { offsetInCU: 0x15A14, offset: 0x15A14, size: 0x8, addend: 0x0, symName: __ZNSt3__117__compressed_pairIPPNS_8functionIFvvEEENS_9allocatorIS4_EEEC2B8ue170006IDnNS_18__default_init_tagEEEOT_OT0_, symObjAddr: 0x53C0, symBinAddr: 0x100007DE4, symSize: 0x40 }
  - { offsetInCU: 0x15A6C, offset: 0x15A6C, size: 0x8, addend: 0x0, symName: __ZNSt3__122__compressed_pair_elemIPPNS_8functionIFvvEEELi0ELb0EEC2B8ue170006IDnvEEOT_, symObjAddr: 0x5400, symBinAddr: 0x100007E24, symSize: 0x1C }
  - { offsetInCU: 0x15AAE, offset: 0x15AAE, size: 0x8, addend: 0x0, symName: __ZNSt3__122__compressed_pair_elemINS_9allocatorIPNS_8functionIFvvEEEEELi1ELb1EEC2B8ue170006ENS_18__default_init_tagE, symObjAddr: 0x541C, symBinAddr: 0x100007E40, symSize: 0x2C }
  - { offsetInCU: 0x15AE3, offset: 0x15AE3, size: 0x8, addend: 0x0, symName: __ZNSt3__19allocatorIPNS_8functionIFvvEEEEC2B8ue170006Ev, symObjAddr: 0x5448, symBinAddr: 0x100007E6C, symSize: 0x2C }
  - { offsetInCU: 0x15B0D, offset: 0x15B0D, size: 0x8, addend: 0x0, symName: __ZNSt3__116__non_trivial_ifILb1ENS_9allocatorIPNS_8functionIFvvEEEEEEC2B8ue170006Ev, symObjAddr: 0x5474, symBinAddr: 0x100007E98, symSize: 0x14 }
  - { offsetInCU: 0x15B37, offset: 0x15B37, size: 0x8, addend: 0x0, symName: __ZNSt3__117__compressed_pairImNS_9allocatorINS_8functionIFvvEEEEEEC2B8ue170006IiNS_18__default_init_tagEEEOT_OT0_, symObjAddr: 0x5488, symBinAddr: 0x100007EAC, symSize: 0x40 }
  - { offsetInCU: 0x15B8F, offset: 0x15B8F, size: 0x8, addend: 0x0, symName: __ZNSt3__122__compressed_pair_elemImLi0ELb0EEC2B8ue170006IivEEOT_, symObjAddr: 0x54C8, symBinAddr: 0x100007EEC, symSize: 0x24 }
  - { offsetInCU: 0x15BD1, offset: 0x15BD1, size: 0x8, addend: 0x0, symName: __ZNSt3__122__compressed_pair_elemINS_9allocatorINS_8functionIFvvEEEEELi1ELb1EEC2B8ue170006ENS_18__default_init_tagE, symObjAddr: 0x54EC, symBinAddr: 0x100007F10, symSize: 0x2C }
  - { offsetInCU: 0x15C06, offset: 0x15C06, size: 0x8, addend: 0x0, symName: __ZNSt3__19allocatorINS_8functionIFvvEEEEC2B8ue170006Ev, symObjAddr: 0x5518, symBinAddr: 0x100007F3C, symSize: 0x2C }
  - { offsetInCU: 0x15C30, offset: 0x15C30, size: 0x8, addend: 0x0, symName: __ZNSt3__116__non_trivial_ifILb1ENS_9allocatorINS_8functionIFvvEEEEEEC2B8ue170006Ev, symObjAddr: 0x5544, symBinAddr: 0x100007F68, symSize: 0x14 }
  - { offsetInCU: 0x15C5A, offset: 0x15C5A, size: 0x8, addend: 0x0, symName: __ZNSt3__15queueIiNS_5dequeIiNS_9allocatorIiEEEEEC2B8ue170006Ev, symObjAddr: 0x5558, symBinAddr: 0x100007F7C, symSize: 0x2C }
  - { offsetInCU: 0x15C84, offset: 0x15C84, size: 0x8, addend: 0x0, symName: __ZNSt3__15dequeIiNS_9allocatorIiEEEC1B8ue170006Ev, symObjAddr: 0x5584, symBinAddr: 0x100007FA8, symSize: 0x2C }
  - { offsetInCU: 0x15CAE, offset: 0x15CAE, size: 0x8, addend: 0x0, symName: __ZNSt3__15dequeIiNS_9allocatorIiEEEC2B8ue170006Ev, symObjAddr: 0x55B0, symBinAddr: 0x100007FD4, symSize: 0x5C }
  - { offsetInCU: 0x15CD8, offset: 0x15CD8, size: 0x8, addend: 0x0, symName: __ZNSt3__114__split_bufferIPiNS_9allocatorIS1_EEEC1B8ue170006Ev, symObjAddr: 0x560C, symBinAddr: 0x100008030, symSize: 0x2C }
  - { offsetInCU: 0x15D02, offset: 0x15D02, size: 0x8, addend: 0x0, symName: __ZNSt3__117__compressed_pairImNS_9allocatorIiEEEC1B8ue170006IiNS_18__default_init_tagEEEOT_OT0_, symObjAddr: 0x5638, symBinAddr: 0x10000805C, symSize: 0x3C }
  - { offsetInCU: 0x15D5A, offset: 0x15D5A, size: 0x8, addend: 0x0, symName: __ZNSt3__114__split_bufferIPiNS_9allocatorIS1_EEEC2B8ue170006Ev, symObjAddr: 0x5674, symBinAddr: 0x100008098, symSize: 0x50 }
  - { offsetInCU: 0x15D84, offset: 0x15D84, size: 0x8, addend: 0x0, symName: __ZNSt3__117__compressed_pairIPPiNS_9allocatorIS1_EEEC1B8ue170006IDnNS_18__default_init_tagEEEOT_OT0_, symObjAddr: 0x56C4, symBinAddr: 0x1000080E8, symSize: 0x3C }
  - { offsetInCU: 0x15DDC, offset: 0x15DDC, size: 0x8, addend: 0x0, symName: __ZNSt3__117__compressed_pairIPPiNS_9allocatorIS1_EEEC2B8ue170006IDnNS_18__default_init_tagEEEOT_OT0_, symObjAddr: 0x5700, symBinAddr: 0x100008124, symSize: 0x40 }
  - { offsetInCU: 0x15E34, offset: 0x15E34, size: 0x8, addend: 0x0, symName: __ZNSt3__122__compressed_pair_elemIPPiLi0ELb0EEC2B8ue170006IDnvEEOT_, symObjAddr: 0x5740, symBinAddr: 0x100008164, symSize: 0x1C }
  - { offsetInCU: 0x15E76, offset: 0x15E76, size: 0x8, addend: 0x0, symName: __ZNSt3__122__compressed_pair_elemINS_9allocatorIPiEELi1ELb1EEC2B8ue170006ENS_18__default_init_tagE, symObjAddr: 0x575C, symBinAddr: 0x100008180, symSize: 0x2C }
  - { offsetInCU: 0x15EAB, offset: 0x15EAB, size: 0x8, addend: 0x0, symName: __ZNSt3__19allocatorIPiEC2B8ue170006Ev, symObjAddr: 0x5788, symBinAddr: 0x1000081AC, symSize: 0x2C }
  - { offsetInCU: 0x15ED5, offset: 0x15ED5, size: 0x8, addend: 0x0, symName: __ZNSt3__116__non_trivial_ifILb1ENS_9allocatorIPiEEEC2B8ue170006Ev, symObjAddr: 0x57B4, symBinAddr: 0x1000081D8, symSize: 0x14 }
  - { offsetInCU: 0x15EFF, offset: 0x15EFF, size: 0x8, addend: 0x0, symName: __ZNSt3__117__compressed_pairImNS_9allocatorIiEEEC2B8ue170006IiNS_18__default_init_tagEEEOT_OT0_, symObjAddr: 0x57C8, symBinAddr: 0x1000081EC, symSize: 0x40 }
  - { offsetInCU: 0x15F57, offset: 0x15F57, size: 0x8, addend: 0x0, symName: __ZNSt3__122__compressed_pair_elemINS_9allocatorIiEELi1ELb1EEC2B8ue170006ENS_18__default_init_tagE, symObjAddr: 0x5808, symBinAddr: 0x10000822C, symSize: 0x2C }
  - { offsetInCU: 0x15F8C, offset: 0x15F8C, size: 0x8, addend: 0x0, symName: __ZNSt3__19allocatorIiEC2B8ue170006Ev, symObjAddr: 0x5834, symBinAddr: 0x100008258, symSize: 0x2C }
  - { offsetInCU: 0x15FB6, offset: 0x15FB6, size: 0x8, addend: 0x0, symName: __ZNSt3__116__non_trivial_ifILb1ENS_9allocatorIiEEEC2B8ue170006Ev, symObjAddr: 0x5860, symBinAddr: 0x100008284, symSize: 0x14 }
  - { offsetInCU: 0x15FE0, offset: 0x15FE0, size: 0x8, addend: 0x0, symName: __ZNSt3__16vectorI6workerNS_9allocatorIS1_EEED2B8ue170006Ev, symObjAddr: 0x5874, symBinAddr: 0x100008298, symSize: 0x40 }
  - { offsetInCU: 0x1600A, offset: 0x1600A, size: 0x8, addend: 0x0, symName: '__ZNSt3__16threadC2IZN10ThreadPoolC1EmE3$_0JEvEEOT_DpOT0_', symObjAddr: 0x58B4, symBinAddr: 0x1000082D8, symSize: 0x148 }
  - { offsetInCU: 0x16082, offset: 0x16082, size: 0x8, addend: 0x0, symName: __ZNSt3__110unique_ptrINS_15__thread_structENS_14default_deleteIS1_EEEC1B8ue170006ILb1EvEEPS1_, symObjAddr: 0x59FC, symBinAddr: 0x100008420, symSize: 0x34 }
  - { offsetInCU: 0x160C5, offset: 0x160C5, size: 0x8, addend: 0x0, symName: '__ZNSt3__15tupleIJNS_10unique_ptrINS_15__thread_structENS_14default_deleteIS2_EEEEZN10ThreadPoolC1EmE3$_0EEC1B8ue170006IJS5_S7_ELi0EEEDpOT_', symObjAddr: 0x5A30, symBinAddr: 0x100008454, symSize: 0x3C }
  - { offsetInCU: 0x161CA, offset: 0x161CA, size: 0x8, addend: 0x0, symName: '__ZNSt3__110unique_ptrINS_5tupleIJNS0_INS_15__thread_structENS_14default_deleteIS2_EEEEZN10ThreadPoolC1EmE3$_0EEENS3_IS8_EEEC1B8ue170006ILb1EvEEPS8_', symObjAddr: 0x5A6C, symBinAddr: 0x100008490, symSize: 0x34 }
  - { offsetInCU: 0x1620D, offset: 0x1620D, size: 0x8, addend: 0x0, symName: '__ZNKSt3__110unique_ptrINS_5tupleIJNS0_INS_15__thread_structENS_14default_deleteIS2_EEEEZN10ThreadPoolC1EmE3$_0EEENS3_IS8_EEE3getB8ue170006Ev', symObjAddr: 0x5B68, symBinAddr: 0x10000858C, symSize: 0x28 }
  - { offsetInCU: 0x16233, offset: 0x16233, size: 0x8, addend: 0x0, symName: '__ZNSt3__110unique_ptrINS_5tupleIJNS0_INS_15__thread_structENS_14default_deleteIS2_EEEEZN10ThreadPoolC1EmE3$_0EEENS3_IS8_EEE7releaseB8ue170006Ev', symObjAddr: 0x5B90, symBinAddr: 0x1000085B4, symSize: 0x44 }
  - { offsetInCU: 0x16269, offset: 0x16269, size: 0x8, addend: 0x0, symName: '__ZNSt3__110unique_ptrINS_5tupleIJNS0_INS_15__thread_structENS_14default_deleteIS2_EEEEZN10ThreadPoolC1EmE3$_0EEENS3_IS8_EEED1B8ue170006Ev', symObjAddr: 0x5BD4, symBinAddr: 0x1000085F8, symSize: 0x2C }
  - { offsetInCU: 0x16293, offset: 0x16293, size: 0x8, addend: 0x0, symName: __ZNSt3__110unique_ptrINS_15__thread_structENS_14default_deleteIS1_EEED1B8ue170006Ev, symObjAddr: 0x5C00, symBinAddr: 0x100008624, symSize: 0x2C }
  - { offsetInCU: 0x162BD, offset: 0x162BD, size: 0x8, addend: 0x0, symName: __ZNSt3__110unique_ptrINS_15__thread_structENS_14default_deleteIS1_EEEC2B8ue170006ILb1EvEEPS1_, symObjAddr: 0x5C2C, symBinAddr: 0x100008650, symSize: 0x44 }
  - { offsetInCU: 0x16306, offset: 0x16306, size: 0x8, addend: 0x0, symName: __ZNSt3__117__compressed_pairIPNS_15__thread_structENS_14default_deleteIS1_EEEC1B8ue170006IRS2_NS_16__value_init_tagEEEOT_OT0_, symObjAddr: 0x5C70, symBinAddr: 0x100008694, symSize: 0x3C }
  - { offsetInCU: 0x1635E, offset: 0x1635E, size: 0x8, addend: 0x0, symName: __ZNSt3__117__compressed_pairIPNS_15__thread_structENS_14default_deleteIS1_EEEC2B8ue170006IRS2_NS_16__value_init_tagEEEOT_OT0_, symObjAddr: 0x5CAC, symBinAddr: 0x1000086D0, symSize: 0x40 }
  - { offsetInCU: 0x163B6, offset: 0x163B6, size: 0x8, addend: 0x0, symName: __ZNSt3__122__compressed_pair_elemIPNS_15__thread_structELi0ELb0EEC2B8ue170006IRS2_vEEOT_, symObjAddr: 0x5CEC, symBinAddr: 0x100008710, symSize: 0x24 }
  - { offsetInCU: 0x163F8, offset: 0x163F8, size: 0x8, addend: 0x0, symName: __ZNSt3__122__compressed_pair_elemINS_14default_deleteINS_15__thread_structEEELi1ELb1EEC2B8ue170006ENS_16__value_init_tagE, symObjAddr: 0x5D10, symBinAddr: 0x100008734, symSize: 0x14 }
  - { offsetInCU: 0x1642D, offset: 0x1642D, size: 0x8, addend: 0x0, symName: '__ZNSt3__15tupleIJNS_10unique_ptrINS_15__thread_structENS_14default_deleteIS2_EEEEZN10ThreadPoolC1EmE3$_0EEC2B8ue170006IJS5_S7_ELi0EEEDpOT_', symObjAddr: 0x5D24, symBinAddr: 0x100008748, symSize: 0x3C }
  - { offsetInCU: 0x1648B, offset: 0x1648B, size: 0x8, addend: 0x0, symName: '__ZNSt3__112__tuple_implINS_15__tuple_indicesIJLm0ELm1EEEEJNS_10unique_ptrINS_15__thread_structENS_14default_deleteIS4_EEEEZN10ThreadPoolC1EmE3$_0EEC1B8ue170006IJLm0ELm1EEJS7_S9_EJEJEJS7_S9_EEENS1_IJXspT_EEEENS_13__tuple_typesIJDpT0_EEENS1_IJXspT1_EEEENSD_IJDpT2_EEEDpOT3_', symObjAddr: 0x5D60, symBinAddr: 0x100008784, symSize: 0x3C }
  - { offsetInCU: 0x1653F, offset: 0x1653F, size: 0x8, addend: 0x0, symName: '__ZNSt3__112__tuple_implINS_15__tuple_indicesIJLm0ELm1EEEEJNS_10unique_ptrINS_15__thread_structENS_14default_deleteIS4_EEEEZN10ThreadPoolC1EmE3$_0EEC2B8ue170006IJLm0ELm1EEJS7_S9_EJEJEJS7_S9_EEENS1_IJXspT_EEEENS_13__tuple_typesIJDpT0_EEENS1_IJXspT1_EEEENSD_IJDpT2_EEEDpOT3_', symObjAddr: 0x5D9C, symBinAddr: 0x1000087C0, symSize: 0x48 }
  - { offsetInCU: 0x165F3, offset: 0x165F3, size: 0x8, addend: 0x0, symName: __ZNSt3__112__tuple_leafILm0ENS_10unique_ptrINS_15__thread_structENS_14default_deleteIS2_EEEELb0EEC2B8ue170006IS5_vEEOT_, symObjAddr: 0x5DE4, symBinAddr: 0x100008808, symSize: 0x34 }
  - { offsetInCU: 0x16636, offset: 0x16636, size: 0x8, addend: 0x0, symName: '__ZNSt3__112__tuple_leafILm1EZN10ThreadPoolC1EmE3$_0Lb0EEC2B8ue170006IS2_vEEOT_', symObjAddr: 0x5E18, symBinAddr: 0x10000883C, symSize: 0x24 }
  - { offsetInCU: 0x16679, offset: 0x16679, size: 0x8, addend: 0x0, symName: __ZNSt3__110unique_ptrINS_15__thread_structENS_14default_deleteIS1_EEEC1B8ue170006EOS4_, symObjAddr: 0x5E3C, symBinAddr: 0x100008860, symSize: 0x34 }
  - { offsetInCU: 0x166B1, offset: 0x166B1, size: 0x8, addend: 0x0, symName: __ZNSt3__110unique_ptrINS_15__thread_structENS_14default_deleteIS1_EEEC2B8ue170006EOS4_, symObjAddr: 0x5E70, symBinAddr: 0x100008894, symSize: 0x60 }
  - { offsetInCU: 0x166E9, offset: 0x166E9, size: 0x8, addend: 0x0, symName: __ZNSt3__110unique_ptrINS_15__thread_structENS_14default_deleteIS1_EEE7releaseB8ue170006Ev, symObjAddr: 0x5ED0, symBinAddr: 0x1000088F4, symSize: 0x44 }
  - { offsetInCU: 0x1671F, offset: 0x1671F, size: 0x8, addend: 0x0, symName: __ZNSt3__110unique_ptrINS_15__thread_structENS_14default_deleteIS1_EEE11get_deleterB8ue170006Ev, symObjAddr: 0x5F14, symBinAddr: 0x100008938, symSize: 0x24 }
  - { offsetInCU: 0x16751, offset: 0x16751, size: 0x8, addend: 0x0, symName: __ZNSt3__117__compressed_pairIPNS_15__thread_structENS_14default_deleteIS1_EEEC1B8ue170006IS2_S4_EEOT_OT0_, symObjAddr: 0x5F38, symBinAddr: 0x10000895C, symSize: 0x3C }
  - { offsetInCU: 0x167A9, offset: 0x167A9, size: 0x8, addend: 0x0, symName: __ZNSt3__117__compressed_pairIPNS_15__thread_structENS_14default_deleteIS1_EEE5firstB8ue170006Ev, symObjAddr: 0x5F74, symBinAddr: 0x100008998, symSize: 0x24 }
  - { offsetInCU: 0x167CF, offset: 0x167CF, size: 0x8, addend: 0x0, symName: __ZNSt3__122__compressed_pair_elemIPNS_15__thread_structELi0ELb0EE5__getB8ue170006Ev, symObjAddr: 0x5F98, symBinAddr: 0x1000089BC, symSize: 0x14 }
  - { offsetInCU: 0x167F5, offset: 0x167F5, size: 0x8, addend: 0x0, symName: __ZNSt3__117__compressed_pairIPNS_15__thread_structENS_14default_deleteIS1_EEE6secondB8ue170006Ev, symObjAddr: 0x5FAC, symBinAddr: 0x1000089D0, symSize: 0x24 }
  - { offsetInCU: 0x1681B, offset: 0x1681B, size: 0x8, addend: 0x0, symName: __ZNSt3__122__compressed_pair_elemINS_14default_deleteINS_15__thread_structEEELi1ELb1EE5__getB8ue170006Ev, symObjAddr: 0x5FD0, symBinAddr: 0x1000089F4, symSize: 0x14 }
  - { offsetInCU: 0x16841, offset: 0x16841, size: 0x8, addend: 0x0, symName: __ZNSt3__117__compressed_pairIPNS_15__thread_structENS_14default_deleteIS1_EEEC2B8ue170006IS2_S4_EEOT_OT0_, symObjAddr: 0x5FE4, symBinAddr: 0x100008A08, symSize: 0x44 }
  - { offsetInCU: 0x16899, offset: 0x16899, size: 0x8, addend: 0x0, symName: __ZNSt3__122__compressed_pair_elemIPNS_15__thread_structELi0ELb0EEC2B8ue170006IS2_vEEOT_, symObjAddr: 0x6028, symBinAddr: 0x100008A4C, symSize: 0x24 }
  - { offsetInCU: 0x168DB, offset: 0x168DB, size: 0x8, addend: 0x0, symName: __ZNSt3__122__compressed_pair_elemINS_14default_deleteINS_15__thread_structEEELi1ELb1EEC2B8ue170006IS3_vEEOT_, symObjAddr: 0x604C, symBinAddr: 0x100008A70, symSize: 0x18 }
  - { offsetInCU: 0x1691D, offset: 0x1691D, size: 0x8, addend: 0x0, symName: '__ZNSt3__110unique_ptrINS_5tupleIJNS0_INS_15__thread_structENS_14default_deleteIS2_EEEEZN10ThreadPoolC1EmE3$_0EEENS3_IS8_EEEC2B8ue170006ILb1EvEEPS8_', symObjAddr: 0x6064, symBinAddr: 0x100008A88, symSize: 0x44 }
  - { offsetInCU: 0x16960, offset: 0x16960, size: 0x8, addend: 0x0, symName: '__ZNSt3__117__compressed_pairIPNS_5tupleIJNS_10unique_ptrINS_15__thread_structENS_14default_deleteIS3_EEEEZN10ThreadPoolC1EmE3$_0EEENS4_IS9_EEEC1B8ue170006IRSA_NS_16__value_init_tagEEEOT_OT0_', symObjAddr: 0x60A8, symBinAddr: 0x100008ACC, symSize: 0x3C }
  - { offsetInCU: 0x169B8, offset: 0x169B8, size: 0x8, addend: 0x0, symName: '__ZNSt3__117__compressed_pairIPNS_5tupleIJNS_10unique_ptrINS_15__thread_structENS_14default_deleteIS3_EEEEZN10ThreadPoolC1EmE3$_0EEENS4_IS9_EEEC2B8ue170006IRSA_NS_16__value_init_tagEEEOT_OT0_', symObjAddr: 0x60E4, symBinAddr: 0x100008B08, symSize: 0x40 }
  - { offsetInCU: 0x16A10, offset: 0x16A10, size: 0x8, addend: 0x0, symName: '__ZNSt3__122__compressed_pair_elemIPNS_5tupleIJNS_10unique_ptrINS_15__thread_structENS_14default_deleteIS3_EEEEZN10ThreadPoolC1EmE3$_0EEELi0ELb0EEC2B8ue170006IRSA_vEEOT_', symObjAddr: 0x6124, symBinAddr: 0x100008B48, symSize: 0x24 }
  - { offsetInCU: 0x16A52, offset: 0x16A52, size: 0x8, addend: 0x0, symName: '__ZNSt3__122__compressed_pair_elemINS_14default_deleteINS_5tupleIJNS_10unique_ptrINS_15__thread_structENS1_IS4_EEEEZN10ThreadPoolC1EmE3$_0EEEEELi1ELb1EEC2B8ue170006ENS_16__value_init_tagE', symObjAddr: 0x6148, symBinAddr: 0x100008B6C, symSize: 0x14 }
  - { offsetInCU: 0x16ABA, offset: 0x16ABA, size: 0x8, addend: 0x0, symName: __ZNSt3__121__thread_specific_ptrINS_15__thread_structEE11set_pointerEPS1_, symObjAddr: 0x615C, symBinAddr: 0x100008B80, symSize: 0x30 }
  - { offsetInCU: 0x16AEF, offset: 0x16AEF, size: 0x8, addend: 0x0, symName: __ZNSt3__112__tuple_leafILm0ENS_10unique_ptrINS_15__thread_structENS_14default_deleteIS2_EEEELb0EE3getB8ue170006Ev, symObjAddr: 0x6204, symBinAddr: 0x100008C28, symSize: 0x14 }
  - { offsetInCU: 0x16B15, offset: 0x16B15, size: 0x8, addend: 0x0, symName: '__ZZN10ThreadPoolC1EmENK3$_0clEv', symObjAddr: 0x6264, symBinAddr: 0x100008C88, symSize: 0x28 }
  - { offsetInCU: 0x16B3F, offset: 0x16B3F, size: 0x8, addend: 0x0, symName: '__ZNSt3__112__tuple_leafILm1EZN10ThreadPoolC1EmE3$_0Lb0EE3getB8ue170006Ev', symObjAddr: 0x628C, symBinAddr: 0x100008CB0, symSize: 0x14 }
  - { offsetInCU: 0x16B65, offset: 0x16B65, size: 0x8, addend: 0x0, symName: '__ZNKSt3__117__compressed_pairIPNS_5tupleIJNS_10unique_ptrINS_15__thread_structENS_14default_deleteIS3_EEEEZN10ThreadPoolC1EmE3$_0EEENS4_IS9_EEE5firstB8ue170006Ev', symObjAddr: 0x62A0, symBinAddr: 0x100008CC4, symSize: 0x24 }
  - { offsetInCU: 0x16B8B, offset: 0x16B8B, size: 0x8, addend: 0x0, symName: '__ZNKSt3__122__compressed_pair_elemIPNS_5tupleIJNS_10unique_ptrINS_15__thread_structENS_14default_deleteIS3_EEEEZN10ThreadPoolC1EmE3$_0EEELi0ELb0EE5__getB8ue170006Ev', symObjAddr: 0x62C4, symBinAddr: 0x100008CE8, symSize: 0x14 }
  - { offsetInCU: 0x16BB1, offset: 0x16BB1, size: 0x8, addend: 0x0, symName: '__ZNSt3__117__compressed_pairIPNS_5tupleIJNS_10unique_ptrINS_15__thread_structENS_14default_deleteIS3_EEEEZN10ThreadPoolC1EmE3$_0EEENS4_IS9_EEE5firstB8ue170006Ev', symObjAddr: 0x62D8, symBinAddr: 0x100008CFC, symSize: 0x24 }
  - { offsetInCU: 0x16BD7, offset: 0x16BD7, size: 0x8, addend: 0x0, symName: '__ZNSt3__122__compressed_pair_elemIPNS_5tupleIJNS_10unique_ptrINS_15__thread_structENS_14default_deleteIS3_EEEEZN10ThreadPoolC1EmE3$_0EEELi0ELb0EE5__getB8ue170006Ev', symObjAddr: 0x62FC, symBinAddr: 0x100008D20, symSize: 0x14 }
  - { offsetInCU: 0x16BFD, offset: 0x16BFD, size: 0x8, addend: 0x0, symName: '__ZNSt3__110unique_ptrINS_5tupleIJNS0_INS_15__thread_structENS_14default_deleteIS2_EEEEZN10ThreadPoolC1EmE3$_0EEENS3_IS8_EEED2B8ue170006Ev', symObjAddr: 0x6310, symBinAddr: 0x100008D34, symSize: 0x30 }
  - { offsetInCU: 0x16C27, offset: 0x16C27, size: 0x8, addend: 0x0, symName: '__ZNSt3__110unique_ptrINS_5tupleIJNS0_INS_15__thread_structENS_14default_deleteIS2_EEEEZN10ThreadPoolC1EmE3$_0EEENS3_IS8_EEE5resetB8ue170006EPS8_', symObjAddr: 0x6340, symBinAddr: 0x100008D64, symSize: 0x78 }
  - { offsetInCU: 0x16C6C, offset: 0x16C6C, size: 0x8, addend: 0x0, symName: '__ZNSt3__117__compressed_pairIPNS_5tupleIJNS_10unique_ptrINS_15__thread_structENS_14default_deleteIS3_EEEEZN10ThreadPoolC1EmE3$_0EEENS4_IS9_EEE6secondB8ue170006Ev', symObjAddr: 0x63B8, symBinAddr: 0x100008DDC, symSize: 0x24 }
  - { offsetInCU: 0x16C92, offset: 0x16C92, size: 0x8, addend: 0x0, symName: '__ZNKSt3__114default_deleteINS_5tupleIJNS_10unique_ptrINS_15__thread_structENS0_IS3_EEEEZN10ThreadPoolC1EmE3$_0EEEEclB8ue170006EPS8_', symObjAddr: 0x63DC, symBinAddr: 0x100008E00, symSize: 0x4C }
  - { offsetInCU: 0x16CC6, offset: 0x16CC6, size: 0x8, addend: 0x0, symName: '__ZNSt3__122__compressed_pair_elemINS_14default_deleteINS_5tupleIJNS_10unique_ptrINS_15__thread_structENS1_IS4_EEEEZN10ThreadPoolC1EmE3$_0EEEEELi1ELb1EE5__getB8ue170006Ev', symObjAddr: 0x6428, symBinAddr: 0x100008E4C, symSize: 0x14 }
  - { offsetInCU: 0x16CEC, offset: 0x16CEC, size: 0x8, addend: 0x0, symName: '__ZNSt3__15tupleIJNS_10unique_ptrINS_15__thread_structENS_14default_deleteIS2_EEEEZN10ThreadPoolC1EmE3$_0EED1Ev', symObjAddr: 0x643C, symBinAddr: 0x100008E60, symSize: 0x2C }
  - { offsetInCU: 0x16D19, offset: 0x16D19, size: 0x8, addend: 0x0, symName: '__ZNSt3__15tupleIJNS_10unique_ptrINS_15__thread_structENS_14default_deleteIS2_EEEEZN10ThreadPoolC1EmE3$_0EED2Ev', symObjAddr: 0x6468, symBinAddr: 0x100008E8C, symSize: 0x2C }
  - { offsetInCU: 0x16D46, offset: 0x16D46, size: 0x8, addend: 0x0, symName: '__ZNSt3__112__tuple_implINS_15__tuple_indicesIJLm0ELm1EEEEJNS_10unique_ptrINS_15__thread_structENS_14default_deleteIS4_EEEEZN10ThreadPoolC1EmE3$_0EED1Ev', symObjAddr: 0x6494, symBinAddr: 0x100008EB8, symSize: 0x2C }
  - { offsetInCU: 0x16D73, offset: 0x16D73, size: 0x8, addend: 0x0, symName: '__ZNSt3__112__tuple_implINS_15__tuple_indicesIJLm0ELm1EEEEJNS_10unique_ptrINS_15__thread_structENS_14default_deleteIS4_EEEEZN10ThreadPoolC1EmE3$_0EED2Ev', symObjAddr: 0x64C0, symBinAddr: 0x100008EE4, symSize: 0x2C }
  - { offsetInCU: 0x16DA0, offset: 0x16DA0, size: 0x8, addend: 0x0, symName: __ZNSt3__112__tuple_leafILm0ENS_10unique_ptrINS_15__thread_structENS_14default_deleteIS2_EEEELb0EED2Ev, symObjAddr: 0x64EC, symBinAddr: 0x100008F10, symSize: 0x2C }
  - { offsetInCU: 0x16DCD, offset: 0x16DCD, size: 0x8, addend: 0x0, symName: __ZNSt3__110unique_ptrINS_15__thread_structENS_14default_deleteIS1_EEED2B8ue170006Ev, symObjAddr: 0x6518, symBinAddr: 0x100008F3C, symSize: 0x30 }
  - { offsetInCU: 0x16DF7, offset: 0x16DF7, size: 0x8, addend: 0x0, symName: __ZNSt3__110unique_ptrINS_15__thread_structENS_14default_deleteIS1_EEE5resetB8ue170006EPS1_, symObjAddr: 0x6548, symBinAddr: 0x100008F6C, symSize: 0x78 }
  - { offsetInCU: 0x16E3C, offset: 0x16E3C, size: 0x8, addend: 0x0, symName: __ZNKSt3__114default_deleteINS_15__thread_structEEclB8ue170006EPS1_, symObjAddr: 0x65C0, symBinAddr: 0x100008FE4, symSize: 0x4C }
  - { offsetInCU: 0x16E70, offset: 0x16E70, size: 0x8, addend: 0x0, symName: '__ZNSt3__16threadC2IZN10ThreadPoolC1EmE3$_1JEvEEOT_DpOT0_', symObjAddr: 0x660C, symBinAddr: 0x100009030, symSize: 0x148 }
  - { offsetInCU: 0x16EE8, offset: 0x16EE8, size: 0x8, addend: 0x0, symName: '__ZNSt3__15tupleIJNS_10unique_ptrINS_15__thread_structENS_14default_deleteIS2_EEEEZN10ThreadPoolC1EmE3$_1EEC1B8ue170006IJS5_S7_ELi0EEEDpOT_', symObjAddr: 0x6754, symBinAddr: 0x100009178, symSize: 0x3C }
  - { offsetInCU: 0x16FED, offset: 0x16FED, size: 0x8, addend: 0x0, symName: '__ZNSt3__110unique_ptrINS_5tupleIJNS0_INS_15__thread_structENS_14default_deleteIS2_EEEEZN10ThreadPoolC1EmE3$_1EEENS3_IS8_EEEC1B8ue170006ILb1EvEEPS8_', symObjAddr: 0x6790, symBinAddr: 0x1000091B4, symSize: 0x34 }
  - { offsetInCU: 0x17030, offset: 0x17030, size: 0x8, addend: 0x0, symName: '__ZNKSt3__110unique_ptrINS_5tupleIJNS0_INS_15__thread_structENS_14default_deleteIS2_EEEEZN10ThreadPoolC1EmE3$_1EEENS3_IS8_EEE3getB8ue170006Ev', symObjAddr: 0x6854, symBinAddr: 0x100009278, symSize: 0x28 }
  - { offsetInCU: 0x17056, offset: 0x17056, size: 0x8, addend: 0x0, symName: '__ZNSt3__110unique_ptrINS_5tupleIJNS0_INS_15__thread_structENS_14default_deleteIS2_EEEEZN10ThreadPoolC1EmE3$_1EEENS3_IS8_EEE7releaseB8ue170006Ev', symObjAddr: 0x687C, symBinAddr: 0x1000092A0, symSize: 0x44 }
  - { offsetInCU: 0x1708C, offset: 0x1708C, size: 0x8, addend: 0x0, symName: '__ZNSt3__110unique_ptrINS_5tupleIJNS0_INS_15__thread_structENS_14default_deleteIS2_EEEEZN10ThreadPoolC1EmE3$_1EEENS3_IS8_EEED1B8ue170006Ev', symObjAddr: 0x68C0, symBinAddr: 0x1000092E4, symSize: 0x2C }
  - { offsetInCU: 0x170B6, offset: 0x170B6, size: 0x8, addend: 0x0, symName: '__ZNSt3__15tupleIJNS_10unique_ptrINS_15__thread_structENS_14default_deleteIS2_EEEEZN10ThreadPoolC1EmE3$_1EEC2B8ue170006IJS5_S7_ELi0EEEDpOT_', symObjAddr: 0x68EC, symBinAddr: 0x100009310, symSize: 0x3C }
  - { offsetInCU: 0x17114, offset: 0x17114, size: 0x8, addend: 0x0, symName: '__ZNSt3__112__tuple_implINS_15__tuple_indicesIJLm0ELm1EEEEJNS_10unique_ptrINS_15__thread_structENS_14default_deleteIS4_EEEEZN10ThreadPoolC1EmE3$_1EEC1B8ue170006IJLm0ELm1EEJS7_S9_EJEJEJS7_S9_EEENS1_IJXspT_EEEENS_13__tuple_typesIJDpT0_EEENS1_IJXspT1_EEEENSD_IJDpT2_EEEDpOT3_', symObjAddr: 0x6928, symBinAddr: 0x10000934C, symSize: 0x3C }
  - { offsetInCU: 0x171C8, offset: 0x171C8, size: 0x8, addend: 0x0, symName: '__ZNSt3__112__tuple_implINS_15__tuple_indicesIJLm0ELm1EEEEJNS_10unique_ptrINS_15__thread_structENS_14default_deleteIS4_EEEEZN10ThreadPoolC1EmE3$_1EEC2B8ue170006IJLm0ELm1EEJS7_S9_EJEJEJS7_S9_EEENS1_IJXspT_EEEENS_13__tuple_typesIJDpT0_EEENS1_IJXspT1_EEEENSD_IJDpT2_EEEDpOT3_', symObjAddr: 0x6964, symBinAddr: 0x100009388, symSize: 0x48 }
  - { offsetInCU: 0x1727C, offset: 0x1727C, size: 0x8, addend: 0x0, symName: '__ZNSt3__112__tuple_leafILm1EZN10ThreadPoolC1EmE3$_1Lb0EEC2B8ue170006IS2_vEEOT_', symObjAddr: 0x69AC, symBinAddr: 0x1000093D0, symSize: 0x24 }
  - { offsetInCU: 0x172BF, offset: 0x172BF, size: 0x8, addend: 0x0, symName: '__ZNSt3__110unique_ptrINS_5tupleIJNS0_INS_15__thread_structENS_14default_deleteIS2_EEEEZN10ThreadPoolC1EmE3$_1EEENS3_IS8_EEEC2B8ue170006ILb1EvEEPS8_', symObjAddr: 0x69D0, symBinAddr: 0x1000093F4, symSize: 0x44 }
  - { offsetInCU: 0x17302, offset: 0x17302, size: 0x8, addend: 0x0, symName: '__ZNSt3__117__compressed_pairIPNS_5tupleIJNS_10unique_ptrINS_15__thread_structENS_14default_deleteIS3_EEEEZN10ThreadPoolC1EmE3$_1EEENS4_IS9_EEEC1B8ue170006IRSA_NS_16__value_init_tagEEEOT_OT0_', symObjAddr: 0x6A14, symBinAddr: 0x100009438, symSize: 0x3C }
  - { offsetInCU: 0x1735A, offset: 0x1735A, size: 0x8, addend: 0x0, symName: '__ZNSt3__117__compressed_pairIPNS_5tupleIJNS_10unique_ptrINS_15__thread_structENS_14default_deleteIS3_EEEEZN10ThreadPoolC1EmE3$_1EEENS4_IS9_EEEC2B8ue170006IRSA_NS_16__value_init_tagEEEOT_OT0_', symObjAddr: 0x6A50, symBinAddr: 0x100009474, symSize: 0x40 }
  - { offsetInCU: 0x173B2, offset: 0x173B2, size: 0x8, addend: 0x0, symName: '__ZNSt3__122__compressed_pair_elemIPNS_5tupleIJNS_10unique_ptrINS_15__thread_structENS_14default_deleteIS3_EEEEZN10ThreadPoolC1EmE3$_1EEELi0ELb0EEC2B8ue170006IRSA_vEEOT_', symObjAddr: 0x6A90, symBinAddr: 0x1000094B4, symSize: 0x24 }
  - { offsetInCU: 0x173F4, offset: 0x173F4, size: 0x8, addend: 0x0, symName: '__ZNSt3__122__compressed_pair_elemINS_14default_deleteINS_5tupleIJNS_10unique_ptrINS_15__thread_structENS1_IS4_EEEEZN10ThreadPoolC1EmE3$_1EEEEELi1ELb1EEC2B8ue170006ENS_16__value_init_tagE', symObjAddr: 0x6AB4, symBinAddr: 0x1000094D8, symSize: 0x14 }
  - { offsetInCU: 0x17429, offset: 0x17429, size: 0x8, addend: 0x0, symName: '__ZZN10ThreadPoolC1EmENK3$_1clEv', symObjAddr: 0x6B60, symBinAddr: 0x100009584, symSize: 0x30 }
  - { offsetInCU: 0x17453, offset: 0x17453, size: 0x8, addend: 0x0, symName: '__ZNSt3__112__tuple_leafILm1EZN10ThreadPoolC1EmE3$_1Lb0EE3getB8ue170006Ev', symObjAddr: 0x6B90, symBinAddr: 0x1000095B4, symSize: 0x14 }
  - { offsetInCU: 0x17479, offset: 0x17479, size: 0x8, addend: 0x0, symName: '__ZNKSt3__117__compressed_pairIPNS_5tupleIJNS_10unique_ptrINS_15__thread_structENS_14default_deleteIS3_EEEEZN10ThreadPoolC1EmE3$_1EEENS4_IS9_EEE5firstB8ue170006Ev', symObjAddr: 0x6BA4, symBinAddr: 0x1000095C8, symSize: 0x24 }
  - { offsetInCU: 0x1749F, offset: 0x1749F, size: 0x8, addend: 0x0, symName: '__ZNKSt3__122__compressed_pair_elemIPNS_5tupleIJNS_10unique_ptrINS_15__thread_structENS_14default_deleteIS3_EEEEZN10ThreadPoolC1EmE3$_1EEELi0ELb0EE5__getB8ue170006Ev', symObjAddr: 0x6BC8, symBinAddr: 0x1000095EC, symSize: 0x14 }
  - { offsetInCU: 0x174C5, offset: 0x174C5, size: 0x8, addend: 0x0, symName: '__ZNSt3__117__compressed_pairIPNS_5tupleIJNS_10unique_ptrINS_15__thread_structENS_14default_deleteIS3_EEEEZN10ThreadPoolC1EmE3$_1EEENS4_IS9_EEE5firstB8ue170006Ev', symObjAddr: 0x6BDC, symBinAddr: 0x100009600, symSize: 0x24 }
  - { offsetInCU: 0x174EB, offset: 0x174EB, size: 0x8, addend: 0x0, symName: '__ZNSt3__122__compressed_pair_elemIPNS_5tupleIJNS_10unique_ptrINS_15__thread_structENS_14default_deleteIS3_EEEEZN10ThreadPoolC1EmE3$_1EEELi0ELb0EE5__getB8ue170006Ev', symObjAddr: 0x6C00, symBinAddr: 0x100009624, symSize: 0x14 }
  - { offsetInCU: 0x17511, offset: 0x17511, size: 0x8, addend: 0x0, symName: '__ZNSt3__110unique_ptrINS_5tupleIJNS0_INS_15__thread_structENS_14default_deleteIS2_EEEEZN10ThreadPoolC1EmE3$_1EEENS3_IS8_EEED2B8ue170006Ev', symObjAddr: 0x6C14, symBinAddr: 0x100009638, symSize: 0x30 }
  - { offsetInCU: 0x1753B, offset: 0x1753B, size: 0x8, addend: 0x0, symName: '__ZNSt3__110unique_ptrINS_5tupleIJNS0_INS_15__thread_structENS_14default_deleteIS2_EEEEZN10ThreadPoolC1EmE3$_1EEENS3_IS8_EEE5resetB8ue170006EPS8_', symObjAddr: 0x6C44, symBinAddr: 0x100009668, symSize: 0x78 }
  - { offsetInCU: 0x17580, offset: 0x17580, size: 0x8, addend: 0x0, symName: '__ZNSt3__117__compressed_pairIPNS_5tupleIJNS_10unique_ptrINS_15__thread_structENS_14default_deleteIS3_EEEEZN10ThreadPoolC1EmE3$_1EEENS4_IS9_EEE6secondB8ue170006Ev', symObjAddr: 0x6CBC, symBinAddr: 0x1000096E0, symSize: 0x24 }
  - { offsetInCU: 0x175A6, offset: 0x175A6, size: 0x8, addend: 0x0, symName: '__ZNKSt3__114default_deleteINS_5tupleIJNS_10unique_ptrINS_15__thread_structENS0_IS3_EEEEZN10ThreadPoolC1EmE3$_1EEEEclB8ue170006EPS8_', symObjAddr: 0x6CE0, symBinAddr: 0x100009704, symSize: 0x4C }
  - { offsetInCU: 0x175DA, offset: 0x175DA, size: 0x8, addend: 0x0, symName: '__ZNSt3__122__compressed_pair_elemINS_14default_deleteINS_5tupleIJNS_10unique_ptrINS_15__thread_structENS1_IS4_EEEEZN10ThreadPoolC1EmE3$_1EEEEELi1ELb1EE5__getB8ue170006Ev', symObjAddr: 0x6D2C, symBinAddr: 0x100009750, symSize: 0x14 }
  - { offsetInCU: 0x17600, offset: 0x17600, size: 0x8, addend: 0x0, symName: '__ZNSt3__15tupleIJNS_10unique_ptrINS_15__thread_structENS_14default_deleteIS2_EEEEZN10ThreadPoolC1EmE3$_1EED1Ev', symObjAddr: 0x6D40, symBinAddr: 0x100009764, symSize: 0x2C }
  - { offsetInCU: 0x1762D, offset: 0x1762D, size: 0x8, addend: 0x0, symName: '__ZNSt3__15tupleIJNS_10unique_ptrINS_15__thread_structENS_14default_deleteIS2_EEEEZN10ThreadPoolC1EmE3$_1EED2Ev', symObjAddr: 0x6D6C, symBinAddr: 0x100009790, symSize: 0x2C }
  - { offsetInCU: 0x1765A, offset: 0x1765A, size: 0x8, addend: 0x0, symName: '__ZNSt3__112__tuple_implINS_15__tuple_indicesIJLm0ELm1EEEEJNS_10unique_ptrINS_15__thread_structENS_14default_deleteIS4_EEEEZN10ThreadPoolC1EmE3$_1EED1Ev', symObjAddr: 0x6D98, symBinAddr: 0x1000097BC, symSize: 0x2C }
  - { offsetInCU: 0x17687, offset: 0x17687, size: 0x8, addend: 0x0, symName: '__ZNSt3__112__tuple_implINS_15__tuple_indicesIJLm0ELm1EEEEJNS_10unique_ptrINS_15__thread_structENS_14default_deleteIS4_EEEEZN10ThreadPoolC1EmE3$_1EED2Ev', symObjAddr: 0x6DC4, symBinAddr: 0x1000097E8, symSize: 0x2C }
  - { offsetInCU: 0x176B4, offset: 0x176B4, size: 0x8, addend: 0x0, symName: __ZNSt3__15dequeIiNS_9allocatorIiEEE9push_backEOi, symObjAddr: 0x6DF0, symBinAddr: 0x100009814, symSize: 0xAC }
  - { offsetInCU: 0x176FB, offset: 0x176FB, size: 0x8, addend: 0x0, symName: __ZNKSt3__15dequeIiNS_9allocatorIiEEE12__back_spareB8ue170006Ev, symObjAddr: 0x6E9C, symBinAddr: 0x1000098C0, symSize: 0x54 }
  - { offsetInCU: 0x17721, offset: 0x17721, size: 0x8, addend: 0x0, symName: __ZNSt3__15dequeIiNS_9allocatorIiEEE19__add_back_capacityEv, symObjAddr: 0x6EF0, symBinAddr: 0x100009914, symSize: 0x34C }
  - { offsetInCU: 0x177E0, offset: 0x177E0, size: 0x8, addend: 0x0, symName: __ZNKSt3__15dequeIiNS_9allocatorIiEEE24__annotate_increase_backB8ue170006Em, symObjAddr: 0x723C, symBinAddr: 0x100009C60, symSize: 0x7C }
  - { offsetInCU: 0x17815, offset: 0x17815, size: 0x8, addend: 0x0, symName: __ZNSt3__116allocator_traitsINS_9allocatorIiEEE9constructB8ue170006IiJiEvEEvRS2_PT_DpOT0_, symObjAddr: 0x72B8, symBinAddr: 0x100009CDC, symSize: 0x34 }
  - { offsetInCU: 0x1786C, offset: 0x1786C, size: 0x8, addend: 0x0, symName: __ZNKSt3__15dequeIiNS_9allocatorIiEEE10__capacityB8ue170006Ev, symObjAddr: 0x72EC, symBinAddr: 0x100009D10, symSize: 0x60 }
  - { offsetInCU: 0x17892, offset: 0x17892, size: 0x8, addend: 0x0, symName: __ZNKSt3__15dequeIiNS_9allocatorIiEEE13__front_spareB8ue170006Ev, symObjAddr: 0x734C, symBinAddr: 0x100009D70, symSize: 0x18 }
  - { offsetInCU: 0x178B8, offset: 0x178B8, size: 0x8, addend: 0x0, symName: __ZNSt3__114__split_bufferIPiNS_9allocatorIS1_EEE9push_backB8ue170006ERKS1_, symObjAddr: 0x7364, symBinAddr: 0x100009D88, symSize: 0x260 }
  - { offsetInCU: 0x17935, offset: 0x17935, size: 0x8, addend: 0x0, symName: __ZNKSt3__114__split_bufferIPiNS_9allocatorIS1_EEE12__back_spareB8ue170006Ev, symObjAddr: 0x75C4, symBinAddr: 0x100009FE8, symSize: 0x40 }
  - { offsetInCU: 0x1795B, offset: 0x1795B, size: 0x8, addend: 0x0, symName: __ZNSt3__114__split_bufferIPiNS_9allocatorIS1_EEE9push_backEOS1_, symObjAddr: 0x7604, symBinAddr: 0x10000A028, symSize: 0x260 }
  - { offsetInCU: 0x179D8, offset: 0x179D8, size: 0x8, addend: 0x0, symName: __ZNSt3__116allocator_traitsINS_9allocatorIiEEE8allocateB8ue170006ERS2_m, symObjAddr: 0x7864, symBinAddr: 0x10000A288, symSize: 0x2C }
  - { offsetInCU: 0x17A0B, offset: 0x17A0B, size: 0x8, addend: 0x0, symName: __ZNSt3__114__split_bufferIPiNS_9allocatorIS1_EEE10push_frontEOS1_, symObjAddr: 0x7890, symBinAddr: 0x10000A2B4, symSize: 0x25C }
  - { offsetInCU: 0x17A88, offset: 0x17A88, size: 0x8, addend: 0x0, symName: __ZNSt3__114__split_bufferIPiRNS_9allocatorIS1_EEEC1EmmS4_, symObjAddr: 0x7B18, symBinAddr: 0x10000A53C, symSize: 0x44 }
  - { offsetInCU: 0x17AE4, offset: 0x17AE4, size: 0x8, addend: 0x0, symName: __ZNSt3__122__allocator_destructorINS_9allocatorIiEEEC1B8ue170006ERS2_m, symObjAddr: 0x7B5C, symBinAddr: 0x10000A580, symSize: 0x3C }
  - { offsetInCU: 0x17BBA, offset: 0x17BBA, size: 0x8, addend: 0x0, symName: __ZNSt3__110unique_ptrIPiNS_22__allocator_destructorINS_9allocatorIiEEEEEC1B8ue170006ILb1EvEES1_NS_16__dependent_typeINS_27__unique_ptr_deleter_sfinaeIS5_EEXT_EE20__good_rval_ref_typeE, symObjAddr: 0x7B98, symBinAddr: 0x10000A5BC, symSize: 0x3C }
  - { offsetInCU: 0x17C0B, offset: 0x17C0B, size: 0x8, addend: 0x0, symName: __ZNSt3__114__split_bufferIPiRNS_9allocatorIS1_EEE9push_backEOS1_, symObjAddr: 0x7BD4, symBinAddr: 0x10000A5F8, symSize: 0x260 }
  - { offsetInCU: 0x17C88, offset: 0x17C88, size: 0x8, addend: 0x0, symName: __ZNKSt3__110unique_ptrIPiNS_22__allocator_destructorINS_9allocatorIiEEEEE3getB8ue170006Ev, symObjAddr: 0x7E34, symBinAddr: 0x10000A858, symSize: 0x28 }
  - { offsetInCU: 0x17CAE, offset: 0x17CAE, size: 0x8, addend: 0x0, symName: __ZNSt3__110unique_ptrIPiNS_22__allocator_destructorINS_9allocatorIiEEEEE7releaseB8ue170006Ev, symObjAddr: 0x7E5C, symBinAddr: 0x10000A880, symSize: 0x44 }
  - { offsetInCU: 0x17CE4, offset: 0x17CE4, size: 0x8, addend: 0x0, symName: __ZNSt3__114__split_bufferIPiRNS_9allocatorIS1_EEE10push_frontERKS1_, symObjAddr: 0x7EA0, symBinAddr: 0x10000A8C4, symSize: 0x25C }
  - { offsetInCU: 0x17D61, offset: 0x17D61, size: 0x8, addend: 0x0, symName: __ZNSt3__114__split_bufferIPiNS_9allocatorIS1_EEE9__end_capB8ue170006Ev, symObjAddr: 0x8138, symBinAddr: 0x10000AB5C, symSize: 0x28 }
  - { offsetInCU: 0x17D87, offset: 0x17D87, size: 0x8, addend: 0x0, symName: __ZNSt3__114__split_bufferIPiRNS_9allocatorIS1_EEE9__end_capB8ue170006Ev, symObjAddr: 0x8160, symBinAddr: 0x10000AB84, symSize: 0x28 }
  - { offsetInCU: 0x17DAD, offset: 0x17DAD, size: 0x8, addend: 0x0, symName: __ZNSt3__110unique_ptrIPiNS_22__allocator_destructorINS_9allocatorIiEEEEED1B8ue170006Ev, symObjAddr: 0x8188, symBinAddr: 0x10000ABAC, symSize: 0x2C }
  - { offsetInCU: 0x17DD7, offset: 0x17DD7, size: 0x8, addend: 0x0, symName: __ZNSt3__114__split_bufferIPiRNS_9allocatorIS1_EEED1Ev, symObjAddr: 0x81B4, symBinAddr: 0x10000ABD8, symSize: 0x2C }
  - { offsetInCU: 0x17E03, offset: 0x17E03, size: 0x8, addend: 0x0, symName: __ZNSt3__114__split_bufferIPiRNS_9allocatorIS1_EEE18__construct_at_endINS_13move_iteratorIPS1_EEEENS_9enable_ifIXsr31__has_forward_iterator_categoryIT_EE5valueEvE4typeESB_SB_, symObjAddr: 0x8220, symBinAddr: 0x10000AC44, symSize: 0x60 }
  - { offsetInCU: 0x17E50, offset: 0x17E50, size: 0x8, addend: 0x0, symName: __ZNSt3__113move_iteratorIPPiEC1B8ue170006ES2_, symObjAddr: 0x8280, symBinAddr: 0x10000ACA4, symSize: 0x34 }
  - { offsetInCU: 0x17E88, offset: 0x17E88, size: 0x8, addend: 0x0, symName: __ZNSt3__116allocator_traitsINS_9allocatorIPiEEE9constructB8ue170006IS2_JRKS2_EvEEvRS3_PT_DpOT0_, symObjAddr: 0x82B4, symBinAddr: 0x10000ACD8, symSize: 0x34 }
  - { offsetInCU: 0x17F07, offset: 0x17F07, size: 0x8, addend: 0x0, symName: __ZNKSt3__114__move_trivialclB8ue170006IPiS2_Li0EEENS_4pairIPT_PT0_EES5_S5_S7_, symObjAddr: 0x8484, symBinAddr: 0x10000AEA8, symSize: 0x48 }
  - { offsetInCU: 0x17F75, offset: 0x17F75, size: 0x8, addend: 0x0, symName: __ZNSt3__14pairIPPiS2_EC1B8ue170006IRS2_S2_LPv0EEEOT_OT0_, symObjAddr: 0x86AC, symBinAddr: 0x10000B0D0, symSize: 0x3C }
  - { offsetInCU: 0x17FD3, offset: 0x17FD3, size: 0x8, addend: 0x0, symName: __ZNSt3__14pairIPPiS2_EC2B8ue170006IRS2_S2_LPv0EEEOT_OT0_, symObjAddr: 0x86E8, symBinAddr: 0x10000B10C, symSize: 0x34 }
  - { offsetInCU: 0x18031, offset: 0x18031, size: 0x8, addend: 0x0, symName: __ZNSt3__118__unwrap_iter_implIPPiLb1EE8__unwrapB8ue170006ES2_, symObjAddr: 0x871C, symBinAddr: 0x10000B140, symSize: 0x24 }
  - { offsetInCU: 0x18054, offset: 0x18054, size: 0x8, addend: 0x0, symName: __ZNSt3__14pairIPPiS2_EC1B8ue170006IS2_S2_LPv0EEEOT_OT0_, symObjAddr: 0x8740, symBinAddr: 0x10000B164, symSize: 0x3C }
  - { offsetInCU: 0x180B2, offset: 0x180B2, size: 0x8, addend: 0x0, symName: __ZNSt3__14pairIPPiS2_EC2B8ue170006IS2_S2_LPv0EEEOT_OT0_, symObjAddr: 0x877C, symBinAddr: 0x10000B1A0, symSize: 0x34 }
  - { offsetInCU: 0x18110, offset: 0x18110, size: 0x8, addend: 0x0, symName: __ZNSt3__118__unwrap_iter_implIPPiLb1EE8__rewrapB8ue170006ES2_S2_, symObjAddr: 0x87B0, symBinAddr: 0x10000B1D4, symSize: 0x50 }
  - { offsetInCU: 0x18141, offset: 0x18141, size: 0x8, addend: 0x0, symName: __ZNSt3__114__split_bufferIPiRNS_9allocatorIS1_EEE28__construct_at_end_with_sizeINS_13move_iteratorIPS1_EEEEvT_m, symObjAddr: 0x8800, symBinAddr: 0x10000B224, symSize: 0xDC }
  - { offsetInCU: 0x181AA, offset: 0x181AA, size: 0x8, addend: 0x0, symName: __ZNSt3__114__split_bufferIPiRNS_9allocatorIS1_EEE21_ConstructTransactionC1B8ue170006EPPS1_m, symObjAddr: 0x8918, symBinAddr: 0x10000B33C, symSize: 0x3C }
  - { offsetInCU: 0x181F0, offset: 0x181F0, size: 0x8, addend: 0x0, symName: __ZNSt3__116allocator_traitsINS_9allocatorIPiEEE9constructB8ue170006IS2_JS2_EvEEvRS3_PT_DpOT0_, symObjAddr: 0x8954, symBinAddr: 0x10000B378, symSize: 0x34 }
  - { offsetInCU: 0x18247, offset: 0x18247, size: 0x8, addend: 0x0, symName: __ZNSt3__114__split_bufferIPiRNS_9allocatorIS1_EEE7__allocB8ue170006Ev, symObjAddr: 0x8988, symBinAddr: 0x10000B3AC, symSize: 0x28 }
  - { offsetInCU: 0x1826D, offset: 0x1826D, size: 0x8, addend: 0x0, symName: __ZNKSt3__113move_iteratorIPPiEdeB8ue170006Ev, symObjAddr: 0x89B0, symBinAddr: 0x10000B3D4, symSize: 0x18 }
  - { offsetInCU: 0x18293, offset: 0x18293, size: 0x8, addend: 0x0, symName: __ZNSt3__113move_iteratorIPPiEppB8ue170006Ev, symObjAddr: 0x89C8, symBinAddr: 0x10000B3EC, symSize: 0x20 }
  - { offsetInCU: 0x182B9, offset: 0x182B9, size: 0x8, addend: 0x0, symName: __ZNSt3__114__split_bufferIPiRNS_9allocatorIS1_EEE21_ConstructTransactionD1B8ue170006Ev, symObjAddr: 0x89E8, symBinAddr: 0x10000B40C, symSize: 0x2C }
  - { offsetInCU: 0x182E3, offset: 0x182E3, size: 0x8, addend: 0x0, symName: __ZNSt3__114__split_bufferIPiRNS_9allocatorIS1_EEE21_ConstructTransactionC2B8ue170006EPPS1_m, symObjAddr: 0x8A14, symBinAddr: 0x10000B438, symSize: 0x44 }
  - { offsetInCU: 0x18329, offset: 0x18329, size: 0x8, addend: 0x0, symName: __ZNSt3__19allocatorIPiE9constructB8ue170006IS1_JS1_EEEvPT_DpOT0_, symObjAddr: 0x8A58, symBinAddr: 0x10000B47C, symSize: 0x28 }
  - { offsetInCU: 0x1837F, offset: 0x1837F, size: 0x8, addend: 0x0, symName: __ZNSt3__117__compressed_pairIPPiRNS_9allocatorIS1_EEE6secondB8ue170006Ev, symObjAddr: 0x8A80, symBinAddr: 0x10000B4A4, symSize: 0x28 }
  - { offsetInCU: 0x183A5, offset: 0x183A5, size: 0x8, addend: 0x0, symName: __ZNSt3__122__compressed_pair_elemIRNS_9allocatorIPiEELi1ELb0EE5__getB8ue170006Ev, symObjAddr: 0x8AA8, symBinAddr: 0x10000B4CC, symSize: 0x18 }
  - { offsetInCU: 0x183CB, offset: 0x183CB, size: 0x8, addend: 0x0, symName: __ZNSt3__114__split_bufferIPiRNS_9allocatorIS1_EEE21_ConstructTransactionD2B8ue170006Ev, symObjAddr: 0x8AC0, symBinAddr: 0x10000B4E4, symSize: 0x20 }
  - { offsetInCU: 0x183F5, offset: 0x183F5, size: 0x8, addend: 0x0, symName: __ZNKSt3__113move_iteratorIPPiE4baseB8ue170006Ev, symObjAddr: 0x8B58, symBinAddr: 0x10000B57C, symSize: 0x18 }
  - { offsetInCU: 0x1841B, offset: 0x1841B, size: 0x8, addend: 0x0, symName: __ZNSt3__113move_iteratorIPPiEC2B8ue170006ES2_, symObjAddr: 0x8B70, symBinAddr: 0x10000B594, symSize: 0x20 }
  - { offsetInCU: 0x18453, offset: 0x18453, size: 0x8, addend: 0x0, symName: __ZNSt3__19allocatorIPiE9constructB8ue170006IS1_JRKS1_EEEvPT_DpOT0_, symObjAddr: 0x8B90, symBinAddr: 0x10000B5B4, symSize: 0x28 }
  - { offsetInCU: 0x184A9, offset: 0x184A9, size: 0x8, addend: 0x0, symName: __ZNSt3__19allocatorIiE8allocateB8ue170006Em, symObjAddr: 0x8BB8, symBinAddr: 0x10000B5DC, symSize: 0x58 }
  - { offsetInCU: 0x184E8, offset: 0x184E8, size: 0x8, addend: 0x0, symName: __ZNSt3__116allocator_traitsINS_9allocatorIiEEE8max_sizeB8ue170006IS2_vEEmRKS2_, symObjAddr: 0x8C10, symBinAddr: 0x10000B634, symSize: 0x24 }
  - { offsetInCU: 0x18516, offset: 0x18516, size: 0x8, addend: 0x0, symName: __ZNKSt3__19allocatorIiE8max_sizeB8ue170006Ev, symObjAddr: 0x8C34, symBinAddr: 0x10000B658, symSize: 0x14 }
  - { offsetInCU: 0x18547, offset: 0x18547, size: 0x8, addend: 0x0, symName: __ZNKSt3__123__move_backward_trivialclB8ue170006IPiS2_Li0EEENS_4pairIPT_PT0_EES5_S5_S7_, symObjAddr: 0x8DC4, symBinAddr: 0x10000B7E8, symSize: 0x48 }
  - { offsetInCU: 0x185AF, offset: 0x185AF, size: 0x8, addend: 0x0, symName: __ZNSt3__14pairIPPiS2_EC1B8ue170006IRS2_S5_LPv0EEEOT_OT0_, symObjAddr: 0x8ED4, symBinAddr: 0x10000B8F8, symSize: 0x3C }
  - { offsetInCU: 0x1860D, offset: 0x1860D, size: 0x8, addend: 0x0, symName: __ZNSt3__14pairIPPiS2_EC2B8ue170006IRS2_S5_LPv0EEEOT_OT0_, symObjAddr: 0x8F10, symBinAddr: 0x10000B934, symSize: 0x34 }
  - { offsetInCU: 0x1866B, offset: 0x1866B, size: 0x8, addend: 0x0, symName: __ZNSt3__114__split_bufferIPiRNS_9allocatorIS1_EEEC2EmmS4_, symObjAddr: 0x8F98, symBinAddr: 0x10000B9BC, symSize: 0xD4 }
  - { offsetInCU: 0x186E0, offset: 0x186E0, size: 0x8, addend: 0x0, symName: __ZNSt3__117__compressed_pairIPPiRNS_9allocatorIS1_EEEC1B8ue170006IDnS5_EEOT_OT0_, symObjAddr: 0x906C, symBinAddr: 0x10000BA90, symSize: 0x3C }
  - { offsetInCU: 0x18738, offset: 0x18738, size: 0x8, addend: 0x0, symName: __ZNSt3__117__compressed_pairIPPiRNS_9allocatorIS1_EEEC2B8ue170006IDnS5_EEOT_OT0_, symObjAddr: 0x90E8, symBinAddr: 0x10000BB0C, symSize: 0x48 }
  - { offsetInCU: 0x18790, offset: 0x18790, size: 0x8, addend: 0x0, symName: __ZNSt3__122__compressed_pair_elemIRNS_9allocatorIPiEELi1ELb0EEC2B8ue170006IS4_vEEOT_, symObjAddr: 0x9130, symBinAddr: 0x10000BB54, symSize: 0x20 }
  - { offsetInCU: 0x187D2, offset: 0x187D2, size: 0x8, addend: 0x0, symName: __ZNSt3__19allocatorIPiE8allocateB8ue170006Em, symObjAddr: 0x9150, symBinAddr: 0x10000BB74, symSize: 0x58 }
  - { offsetInCU: 0x18811, offset: 0x18811, size: 0x8, addend: 0x0, symName: __ZNSt3__116allocator_traitsINS_9allocatorIPiEEE8max_sizeB8ue170006IS3_vEEmRKS3_, symObjAddr: 0x91A8, symBinAddr: 0x10000BBCC, symSize: 0x24 }
  - { offsetInCU: 0x1883F, offset: 0x1883F, size: 0x8, addend: 0x0, symName: __ZNKSt3__19allocatorIPiE8max_sizeB8ue170006Ev, symObjAddr: 0x91CC, symBinAddr: 0x10000BBF0, symSize: 0x14 }
  - { offsetInCU: 0x18865, offset: 0x18865, size: 0x8, addend: 0x0, symName: __ZNSt3__122__allocator_destructorINS_9allocatorIiEEEC2B8ue170006ERS2_m, symObjAddr: 0x91E0, symBinAddr: 0x10000BC04, symSize: 0x2C }
  - { offsetInCU: 0x188AB, offset: 0x188AB, size: 0x8, addend: 0x0, symName: __ZNSt3__110unique_ptrIPiNS_22__allocator_destructorINS_9allocatorIiEEEEEC2B8ue170006ILb1EvEES1_NS_16__dependent_typeINS_27__unique_ptr_deleter_sfinaeIS5_EEXT_EE20__good_rval_ref_typeE, symObjAddr: 0x920C, symBinAddr: 0x10000BC30, symSize: 0x48 }
  - { offsetInCU: 0x188FC, offset: 0x188FC, size: 0x8, addend: 0x0, symName: __ZNSt3__117__compressed_pairIPiNS_22__allocator_destructorINS_9allocatorIiEEEEEC1B8ue170006IRS1_S5_EEOT_OT0_, symObjAddr: 0x9254, symBinAddr: 0x10000BC78, symSize: 0x3C }
  - { offsetInCU: 0x18954, offset: 0x18954, size: 0x8, addend: 0x0, symName: __ZNSt3__117__compressed_pairIPiNS_22__allocator_destructorINS_9allocatorIiEEEEEC2B8ue170006IRS1_S5_EEOT_OT0_, symObjAddr: 0x9290, symBinAddr: 0x10000BCB4, symSize: 0x48 }
  - { offsetInCU: 0x189AC, offset: 0x189AC, size: 0x8, addend: 0x0, symName: __ZNSt3__122__compressed_pair_elemIPiLi0ELb0EEC2B8ue170006IRS1_vEEOT_, symObjAddr: 0x92D8, symBinAddr: 0x10000BCFC, symSize: 0x24 }
  - { offsetInCU: 0x189EE, offset: 0x189EE, size: 0x8, addend: 0x0, symName: __ZNSt3__122__compressed_pair_elemINS_22__allocator_destructorINS_9allocatorIiEEEELi1ELb0EEC2B8ue170006IS4_vEEOT_, symObjAddr: 0x92FC, symBinAddr: 0x10000BD20, symSize: 0x24 }
  - { offsetInCU: 0x18A30, offset: 0x18A30, size: 0x8, addend: 0x0, symName: __ZNKSt3__117__compressed_pairIPiNS_22__allocator_destructorINS_9allocatorIiEEEEE5firstB8ue170006Ev, symObjAddr: 0x9320, symBinAddr: 0x10000BD44, symSize: 0x24 }
  - { offsetInCU: 0x18A56, offset: 0x18A56, size: 0x8, addend: 0x0, symName: __ZNKSt3__122__compressed_pair_elemIPiLi0ELb0EE5__getB8ue170006Ev, symObjAddr: 0x9344, symBinAddr: 0x10000BD68, symSize: 0x14 }
  - { offsetInCU: 0x18A7C, offset: 0x18A7C, size: 0x8, addend: 0x0, symName: __ZNSt3__117__compressed_pairIPiNS_22__allocator_destructorINS_9allocatorIiEEEEE5firstB8ue170006Ev, symObjAddr: 0x9358, symBinAddr: 0x10000BD7C, symSize: 0x24 }
  - { offsetInCU: 0x18AA2, offset: 0x18AA2, size: 0x8, addend: 0x0, symName: __ZNSt3__122__compressed_pair_elemIPiLi0ELb0EE5__getB8ue170006Ev, symObjAddr: 0x937C, symBinAddr: 0x10000BDA0, symSize: 0x14 }
  - { offsetInCU: 0x18AC8, offset: 0x18AC8, size: 0x8, addend: 0x0, symName: __ZNSt3__117__compressed_pairIPPiNS_9allocatorIS1_EEE5firstB8ue170006Ev, symObjAddr: 0x9390, symBinAddr: 0x10000BDB4, symSize: 0x24 }
  - { offsetInCU: 0x18AEE, offset: 0x18AEE, size: 0x8, addend: 0x0, symName: __ZNSt3__122__compressed_pair_elemIPPiLi0ELb0EE5__getB8ue170006Ev, symObjAddr: 0x93B4, symBinAddr: 0x10000BDD8, symSize: 0x14 }
  - { offsetInCU: 0x18B14, offset: 0x18B14, size: 0x8, addend: 0x0, symName: __ZNSt3__117__compressed_pairIPPiRNS_9allocatorIS1_EEE5firstB8ue170006Ev, symObjAddr: 0x93C8, symBinAddr: 0x10000BDEC, symSize: 0x24 }
  - { offsetInCU: 0x18B3A, offset: 0x18B3A, size: 0x8, addend: 0x0, symName: __ZNSt3__110unique_ptrIPiNS_22__allocator_destructorINS_9allocatorIiEEEEED2B8ue170006Ev, symObjAddr: 0x93EC, symBinAddr: 0x10000BE10, symSize: 0x30 }
  - { offsetInCU: 0x18B64, offset: 0x18B64, size: 0x8, addend: 0x0, symName: __ZNSt3__110unique_ptrIPiNS_22__allocator_destructorINS_9allocatorIiEEEEE5resetB8ue170006ES1_, symObjAddr: 0x941C, symBinAddr: 0x10000BE40, symSize: 0x78 }
  - { offsetInCU: 0x18BA9, offset: 0x18BA9, size: 0x8, addend: 0x0, symName: __ZNSt3__117__compressed_pairIPiNS_22__allocator_destructorINS_9allocatorIiEEEEE6secondB8ue170006Ev, symObjAddr: 0x9494, symBinAddr: 0x10000BEB8, symSize: 0x28 }
  - { offsetInCU: 0x18BCF, offset: 0x18BCF, size: 0x8, addend: 0x0, symName: __ZNSt3__122__allocator_destructorINS_9allocatorIiEEEclB8ue170006EPi, symObjAddr: 0x94BC, symBinAddr: 0x10000BEE0, symSize: 0x34 }
  - { offsetInCU: 0x18C03, offset: 0x18C03, size: 0x8, addend: 0x0, symName: __ZNSt3__122__compressed_pair_elemINS_22__allocator_destructorINS_9allocatorIiEEEELi1ELb0EE5__getB8ue170006Ev, symObjAddr: 0x94F0, symBinAddr: 0x10000BF14, symSize: 0x14 }
  - { offsetInCU: 0x18C29, offset: 0x18C29, size: 0x8, addend: 0x0, symName: __ZNSt3__114__split_bufferIPiRNS_9allocatorIS1_EEED2Ev, symObjAddr: 0x9504, symBinAddr: 0x10000BF28, symSize: 0x8C }
  - { offsetInCU: 0x18C55, offset: 0x18C55, size: 0x8, addend: 0x0, symName: __ZNSt3__114__split_bufferIPiRNS_9allocatorIS1_EEE5clearB8ue170006Ev, symObjAddr: 0x9590, symBinAddr: 0x10000BFB4, symSize: 0x28 }
  - { offsetInCU: 0x18C7B, offset: 0x18C7B, size: 0x8, addend: 0x0, symName: __ZNKSt3__114__split_bufferIPiRNS_9allocatorIS1_EEE8capacityB8ue170006Ev, symObjAddr: 0x95B8, symBinAddr: 0x10000BFDC, symSize: 0x40 }
  - { offsetInCU: 0x18CA1, offset: 0x18CA1, size: 0x8, addend: 0x0, symName: __ZNSt3__114__split_bufferIPiRNS_9allocatorIS1_EEE17__destruct_at_endB8ue170006EPS1_, symObjAddr: 0x95F8, symBinAddr: 0x10000C01C, symSize: 0x2C }
  - { offsetInCU: 0x18CD5, offset: 0x18CD5, size: 0x8, addend: 0x0, symName: __ZNSt3__114__split_bufferIPiRNS_9allocatorIS1_EEE17__destruct_at_endB8ue170006EPS1_NS_17integral_constantIbLb0EEE, symObjAddr: 0x9624, symBinAddr: 0x10000C048, symSize: 0x80 }
  - { offsetInCU: 0x18D16, offset: 0x18D16, size: 0x8, addend: 0x0, symName: __ZNKSt3__114__split_bufferIPiRNS_9allocatorIS1_EEE9__end_capB8ue170006Ev, symObjAddr: 0x96A4, symBinAddr: 0x10000C0C8, symSize: 0x28 }
  - { offsetInCU: 0x18D3C, offset: 0x18D3C, size: 0x8, addend: 0x0, symName: __ZNKSt3__117__compressed_pairIPPiRNS_9allocatorIS1_EEE5firstB8ue170006Ev, symObjAddr: 0x96CC, symBinAddr: 0x10000C0F0, symSize: 0x24 }
  - { offsetInCU: 0x18D62, offset: 0x18D62, size: 0x8, addend: 0x0, symName: __ZNSt3__19allocatorIiE9constructB8ue170006IiJiEEEvPT_DpOT0_, symObjAddr: 0x96F0, symBinAddr: 0x10000C114, symSize: 0x28 }
  - { offsetInCU: 0x18DB8, offset: 0x18DB8, size: 0x8, addend: 0x0, symName: __ZNKSt3__110__function12__value_funcIFvvEEcvbB8ue170006Ev, symObjAddr: 0x9718, symBinAddr: 0x10000C13C, symSize: 0x24 }
  - { offsetInCU: 0x18DDE, offset: 0x18DDE, size: 0x8, addend: 0x0, symName: __ZNSt3__111unique_lockINS_5mutexEEC2B8ue170006ERS1_, symObjAddr: 0x973C, symBinAddr: 0x10000C160, symSize: 0x44 }
  - { offsetInCU: 0x18E16, offset: 0x18E16, size: 0x8, addend: 0x0, symName: __ZNSt3__111unique_lockINS_5mutexEED2B8ue170006Ev, symObjAddr: 0x9780, symBinAddr: 0x10000C1A4, symSize: 0x4C }
  - { offsetInCU: 0x18E40, offset: 0x18E40, size: 0x8, addend: 0x0, symName: __ZNKSt3__113__atomic_baseIbLb0EE4loadB8ue170006ENS_12memory_orderE, symObjAddr: 0x97CC, symBinAddr: 0x10000C1F0, symSize: 0x30 }
  - { offsetInCU: 0x18E74, offset: 0x18E74, size: 0x8, addend: 0x0, symName: __ZNSt3__15dequeINS_8functionIFvvEEENS_9allocatorIS3_EEE9push_backERKS3_, symObjAddr: 0x9880, symBinAddr: 0x10000C2A4, symSize: 0xAC }
  - { offsetInCU: 0x18EBB, offset: 0x18EBB, size: 0x8, addend: 0x0, symName: __ZNKSt3__15dequeINS_8functionIFvvEEENS_9allocatorIS3_EEE12__back_spareB8ue170006Ev, symObjAddr: 0x992C, symBinAddr: 0x10000C350, symSize: 0x54 }
  - { offsetInCU: 0x18EE1, offset: 0x18EE1, size: 0x8, addend: 0x0, symName: __ZNSt3__15dequeINS_8functionIFvvEEENS_9allocatorIS3_EEE19__add_back_capacityEv, symObjAddr: 0x9980, symBinAddr: 0x10000C3A4, symSize: 0x34C }
  - { offsetInCU: 0x18FA0, offset: 0x18FA0, size: 0x8, addend: 0x0, symName: __ZNKSt3__15dequeINS_8functionIFvvEEENS_9allocatorIS3_EEE24__annotate_increase_backB8ue170006Em, symObjAddr: 0x9CCC, symBinAddr: 0x10000C6F0, symSize: 0x7C }
  - { offsetInCU: 0x18FD5, offset: 0x18FD5, size: 0x8, addend: 0x0, symName: __ZNSt3__116allocator_traitsINS_9allocatorINS_8functionIFvvEEEEEE9constructB8ue170006IS4_JRKS4_EvEEvRS5_PT_DpOT0_, symObjAddr: 0x9D48, symBinAddr: 0x10000C76C, symSize: 0x34 }
  - { offsetInCU: 0x1902C, offset: 0x1902C, size: 0x8, addend: 0x0, symName: __ZNKSt3__15dequeINS_8functionIFvvEEENS_9allocatorIS3_EEE10__capacityB8ue170006Ev, symObjAddr: 0x9D7C, symBinAddr: 0x10000C7A0, symSize: 0x60 }
  - { offsetInCU: 0x19052, offset: 0x19052, size: 0x8, addend: 0x0, symName: __ZNKSt3__15dequeINS_8functionIFvvEEENS_9allocatorIS3_EEE13__front_spareB8ue170006Ev, symObjAddr: 0x9DDC, symBinAddr: 0x10000C800, symSize: 0x18 }
  - { offsetInCU: 0x19078, offset: 0x19078, size: 0x8, addend: 0x0, symName: __ZNSt3__114__split_bufferIPNS_8functionIFvvEEENS_9allocatorIS4_EEE9push_backB8ue170006ERKS4_, symObjAddr: 0x9DF4, symBinAddr: 0x10000C818, symSize: 0x260 }
  - { offsetInCU: 0x190F5, offset: 0x190F5, size: 0x8, addend: 0x0, symName: __ZNKSt3__114__split_bufferIPNS_8functionIFvvEEENS_9allocatorIS4_EEE12__back_spareB8ue170006Ev, symObjAddr: 0xA054, symBinAddr: 0x10000CA78, symSize: 0x40 }
  - { offsetInCU: 0x1911B, offset: 0x1911B, size: 0x8, addend: 0x0, symName: __ZNSt3__114__split_bufferIPNS_8functionIFvvEEENS_9allocatorIS4_EEE9push_backEOS4_, symObjAddr: 0xA094, symBinAddr: 0x10000CAB8, symSize: 0x260 }
  - { offsetInCU: 0x19198, offset: 0x19198, size: 0x8, addend: 0x0, symName: __ZNSt3__116allocator_traitsINS_9allocatorINS_8functionIFvvEEEEEE8allocateB8ue170006ERS5_m, symObjAddr: 0xA2F4, symBinAddr: 0x10000CD18, symSize: 0x2C }
  - { offsetInCU: 0x191CB, offset: 0x191CB, size: 0x8, addend: 0x0, symName: __ZNSt3__114__split_bufferIPNS_8functionIFvvEEENS_9allocatorIS4_EEE10push_frontEOS4_, symObjAddr: 0xA320, symBinAddr: 0x10000CD44, symSize: 0x25C }
  - { offsetInCU: 0x19248, offset: 0x19248, size: 0x8, addend: 0x0, symName: __ZNSt3__114__split_bufferIPNS_8functionIFvvEEERNS_9allocatorIS4_EEEC1EmmS7_, symObjAddr: 0xA57C, symBinAddr: 0x10000CFA0, symSize: 0x44 }
  - { offsetInCU: 0x192A4, offset: 0x192A4, size: 0x8, addend: 0x0, symName: __ZNSt3__122__allocator_destructorINS_9allocatorINS_8functionIFvvEEEEEEC1B8ue170006ERS5_m, symObjAddr: 0xA5C0, symBinAddr: 0x10000CFE4, symSize: 0x3C }
  - { offsetInCU: 0x1937A, offset: 0x1937A, size: 0x8, addend: 0x0, symName: __ZNSt3__110unique_ptrIPNS_8functionIFvvEEENS_22__allocator_destructorINS_9allocatorIS3_EEEEEC1B8ue170006ILb1EvEES4_NS_16__dependent_typeINS_27__unique_ptr_deleter_sfinaeIS8_EEXT_EE20__good_rval_ref_typeE, symObjAddr: 0xA5FC, symBinAddr: 0x10000D020, symSize: 0x3C }
  - { offsetInCU: 0x193CB, offset: 0x193CB, size: 0x8, addend: 0x0, symName: __ZNSt3__114__split_bufferIPNS_8functionIFvvEEERNS_9allocatorIS4_EEE9push_backEOS4_, symObjAddr: 0xA638, symBinAddr: 0x10000D05C, symSize: 0x260 }
  - { offsetInCU: 0x19448, offset: 0x19448, size: 0x8, addend: 0x0, symName: __ZNKSt3__110unique_ptrIPNS_8functionIFvvEEENS_22__allocator_destructorINS_9allocatorIS3_EEEEE3getB8ue170006Ev, symObjAddr: 0xA898, symBinAddr: 0x10000D2BC, symSize: 0x28 }
  - { offsetInCU: 0x1946E, offset: 0x1946E, size: 0x8, addend: 0x0, symName: __ZNSt3__110unique_ptrIPNS_8functionIFvvEEENS_22__allocator_destructorINS_9allocatorIS3_EEEEE7releaseB8ue170006Ev, symObjAddr: 0xA8C0, symBinAddr: 0x10000D2E4, symSize: 0x44 }
  - { offsetInCU: 0x194A4, offset: 0x194A4, size: 0x8, addend: 0x0, symName: __ZNSt3__114__split_bufferIPNS_8functionIFvvEEERNS_9allocatorIS4_EEE10push_frontERKS4_, symObjAddr: 0xA904, symBinAddr: 0x10000D328, symSize: 0x25C }
  - { offsetInCU: 0x19521, offset: 0x19521, size: 0x8, addend: 0x0, symName: __ZNSt3__114__split_bufferIPNS_8functionIFvvEEENS_9allocatorIS4_EEE9__end_capB8ue170006Ev, symObjAddr: 0xAB9C, symBinAddr: 0x10000D5C0, symSize: 0x28 }
  - { offsetInCU: 0x19547, offset: 0x19547, size: 0x8, addend: 0x0, symName: __ZNSt3__114__split_bufferIPNS_8functionIFvvEEERNS_9allocatorIS4_EEE9__end_capB8ue170006Ev, symObjAddr: 0xABC4, symBinAddr: 0x10000D5E8, symSize: 0x28 }
  - { offsetInCU: 0x1956D, offset: 0x1956D, size: 0x8, addend: 0x0, symName: __ZNSt3__110unique_ptrIPNS_8functionIFvvEEENS_22__allocator_destructorINS_9allocatorIS3_EEEEED1B8ue170006Ev, symObjAddr: 0xABEC, symBinAddr: 0x10000D610, symSize: 0x2C }
  - { offsetInCU: 0x19597, offset: 0x19597, size: 0x8, addend: 0x0, symName: __ZNSt3__114__split_bufferIPNS_8functionIFvvEEERNS_9allocatorIS4_EEED1Ev, symObjAddr: 0xAC18, symBinAddr: 0x10000D63C, symSize: 0x2C }
  - { offsetInCU: 0x195C3, offset: 0x195C3, size: 0x8, addend: 0x0, symName: __ZNSt3__114__split_bufferIPNS_8functionIFvvEEERNS_9allocatorIS4_EEE18__construct_at_endINS_13move_iteratorIPS4_EEEENS_9enable_ifIXsr31__has_forward_iterator_categoryIT_EE5valueEvE4typeESE_SE_, symObjAddr: 0xAC84, symBinAddr: 0x10000D6A8, symSize: 0x60 }
  - { offsetInCU: 0x19610, offset: 0x19610, size: 0x8, addend: 0x0, symName: __ZNSt3__113move_iteratorIPPNS_8functionIFvvEEEEC1B8ue170006ES5_, symObjAddr: 0xACE4, symBinAddr: 0x10000D708, symSize: 0x34 }
  - { offsetInCU: 0x19648, offset: 0x19648, size: 0x8, addend: 0x0, symName: __ZNSt3__116allocator_traitsINS_9allocatorIPNS_8functionIFvvEEEEEE9constructB8ue170006IS5_JRKS5_EvEEvRS6_PT_DpOT0_, symObjAddr: 0xAD18, symBinAddr: 0x10000D73C, symSize: 0x34 }
  - { offsetInCU: 0x196BC, offset: 0x196BC, size: 0x8, addend: 0x0, symName: __ZNKSt3__114__move_trivialclB8ue170006IPNS_8functionIFvvEEES5_Li0EEENS_4pairIPT_PT0_EES8_S8_SA_, symObjAddr: 0xAEE8, symBinAddr: 0x10000D90C, symSize: 0x48 }
  - { offsetInCU: 0x1972A, offset: 0x1972A, size: 0x8, addend: 0x0, symName: __ZNSt3__14pairIPPNS_8functionIFvvEEES5_EC1B8ue170006IRS5_S5_LPv0EEEOT_OT0_, symObjAddr: 0xB110, symBinAddr: 0x10000DB34, symSize: 0x3C }
  - { offsetInCU: 0x19788, offset: 0x19788, size: 0x8, addend: 0x0, symName: __ZNSt3__14pairIPPNS_8functionIFvvEEES5_EC2B8ue170006IRS5_S5_LPv0EEEOT_OT0_, symObjAddr: 0xB14C, symBinAddr: 0x10000DB70, symSize: 0x34 }
  - { offsetInCU: 0x197E6, offset: 0x197E6, size: 0x8, addend: 0x0, symName: __ZNSt3__118__unwrap_iter_implIPPNS_8functionIFvvEEELb1EE8__unwrapB8ue170006ES5_, symObjAddr: 0xB180, symBinAddr: 0x10000DBA4, symSize: 0x24 }
  - { offsetInCU: 0x19809, offset: 0x19809, size: 0x8, addend: 0x0, symName: __ZNSt3__14pairIPPNS_8functionIFvvEEES5_EC1B8ue170006IS5_S5_LPv0EEEOT_OT0_, symObjAddr: 0xB1A4, symBinAddr: 0x10000DBC8, symSize: 0x3C }
  - { offsetInCU: 0x19867, offset: 0x19867, size: 0x8, addend: 0x0, symName: __ZNSt3__14pairIPPNS_8functionIFvvEEES5_EC2B8ue170006IS5_S5_LPv0EEEOT_OT0_, symObjAddr: 0xB1E0, symBinAddr: 0x10000DC04, symSize: 0x34 }
  - { offsetInCU: 0x198C5, offset: 0x198C5, size: 0x8, addend: 0x0, symName: __ZNSt3__118__unwrap_iter_implIPPNS_8functionIFvvEEELb1EE8__rewrapB8ue170006ES5_S5_, symObjAddr: 0xB214, symBinAddr: 0x10000DC38, symSize: 0x50 }
  - { offsetInCU: 0x198F6, offset: 0x198F6, size: 0x8, addend: 0x0, symName: __ZNSt3__114__split_bufferIPNS_8functionIFvvEEERNS_9allocatorIS4_EEE28__construct_at_end_with_sizeINS_13move_iteratorIPS4_EEEEvT_m, symObjAddr: 0xB264, symBinAddr: 0x10000DC88, symSize: 0xDC }
  - { offsetInCU: 0x1995F, offset: 0x1995F, size: 0x8, addend: 0x0, symName: __ZNSt3__114__split_bufferIPNS_8functionIFvvEEERNS_9allocatorIS4_EEE21_ConstructTransactionC1B8ue170006EPPS4_m, symObjAddr: 0xB37C, symBinAddr: 0x10000DDA0, symSize: 0x3C }
  - { offsetInCU: 0x199A5, offset: 0x199A5, size: 0x8, addend: 0x0, symName: __ZNSt3__116allocator_traitsINS_9allocatorIPNS_8functionIFvvEEEEEE9constructB8ue170006IS5_JS5_EvEEvRS6_PT_DpOT0_, symObjAddr: 0xB3B8, symBinAddr: 0x10000DDDC, symSize: 0x34 }
  - { offsetInCU: 0x199FC, offset: 0x199FC, size: 0x8, addend: 0x0, symName: __ZNSt3__114__split_bufferIPNS_8functionIFvvEEERNS_9allocatorIS4_EEE7__allocB8ue170006Ev, symObjAddr: 0xB3EC, symBinAddr: 0x10000DE10, symSize: 0x28 }
  - { offsetInCU: 0x19A22, offset: 0x19A22, size: 0x8, addend: 0x0, symName: __ZNKSt3__113move_iteratorIPPNS_8functionIFvvEEEEdeB8ue170006Ev, symObjAddr: 0xB414, symBinAddr: 0x10000DE38, symSize: 0x18 }
  - { offsetInCU: 0x19A48, offset: 0x19A48, size: 0x8, addend: 0x0, symName: __ZNSt3__113move_iteratorIPPNS_8functionIFvvEEEEppB8ue170006Ev, symObjAddr: 0xB42C, symBinAddr: 0x10000DE50, symSize: 0x20 }
  - { offsetInCU: 0x19A6E, offset: 0x19A6E, size: 0x8, addend: 0x0, symName: __ZNSt3__114__split_bufferIPNS_8functionIFvvEEERNS_9allocatorIS4_EEE21_ConstructTransactionD1B8ue170006Ev, symObjAddr: 0xB44C, symBinAddr: 0x10000DE70, symSize: 0x2C }
  - { offsetInCU: 0x19A98, offset: 0x19A98, size: 0x8, addend: 0x0, symName: __ZNSt3__114__split_bufferIPNS_8functionIFvvEEERNS_9allocatorIS4_EEE21_ConstructTransactionC2B8ue170006EPPS4_m, symObjAddr: 0xB478, symBinAddr: 0x10000DE9C, symSize: 0x44 }
  - { offsetInCU: 0x19ADE, offset: 0x19ADE, size: 0x8, addend: 0x0, symName: __ZNSt3__19allocatorIPNS_8functionIFvvEEEE9constructB8ue170006IS4_JS4_EEEvPT_DpOT0_, symObjAddr: 0xB4BC, symBinAddr: 0x10000DEE0, symSize: 0x28 }
  - { offsetInCU: 0x19B34, offset: 0x19B34, size: 0x8, addend: 0x0, symName: __ZNSt3__117__compressed_pairIPPNS_8functionIFvvEEERNS_9allocatorIS4_EEE6secondB8ue170006Ev, symObjAddr: 0xB4E4, symBinAddr: 0x10000DF08, symSize: 0x28 }
  - { offsetInCU: 0x19B5A, offset: 0x19B5A, size: 0x8, addend: 0x0, symName: __ZNSt3__122__compressed_pair_elemIRNS_9allocatorIPNS_8functionIFvvEEEEELi1ELb0EE5__getB8ue170006Ev, symObjAddr: 0xB50C, symBinAddr: 0x10000DF30, symSize: 0x18 }
  - { offsetInCU: 0x19B80, offset: 0x19B80, size: 0x8, addend: 0x0, symName: __ZNSt3__114__split_bufferIPNS_8functionIFvvEEERNS_9allocatorIS4_EEE21_ConstructTransactionD2B8ue170006Ev, symObjAddr: 0xB524, symBinAddr: 0x10000DF48, symSize: 0x20 }
  - { offsetInCU: 0x19BAA, offset: 0x19BAA, size: 0x8, addend: 0x0, symName: __ZNKSt3__113move_iteratorIPPNS_8functionIFvvEEEE4baseB8ue170006Ev, symObjAddr: 0xB5BC, symBinAddr: 0x10000DFE0, symSize: 0x18 }
  - { offsetInCU: 0x19BD0, offset: 0x19BD0, size: 0x8, addend: 0x0, symName: __ZNSt3__113move_iteratorIPPNS_8functionIFvvEEEEC2B8ue170006ES5_, symObjAddr: 0xB5D4, symBinAddr: 0x10000DFF8, symSize: 0x20 }
  - { offsetInCU: 0x19C08, offset: 0x19C08, size: 0x8, addend: 0x0, symName: __ZNSt3__19allocatorIPNS_8functionIFvvEEEE9constructB8ue170006IS4_JRKS4_EEEvPT_DpOT0_, symObjAddr: 0xB5F4, symBinAddr: 0x10000E018, symSize: 0x28 }
  - { offsetInCU: 0x19C5E, offset: 0x19C5E, size: 0x8, addend: 0x0, symName: __ZNSt3__19allocatorINS_8functionIFvvEEEE8allocateB8ue170006Em, symObjAddr: 0xB61C, symBinAddr: 0x10000E040, symSize: 0x58 }
  - { offsetInCU: 0x19C9D, offset: 0x19C9D, size: 0x8, addend: 0x0, symName: __ZNSt3__116allocator_traitsINS_9allocatorINS_8functionIFvvEEEEEE8max_sizeB8ue170006IS5_vEEmRKS5_, symObjAddr: 0xB674, symBinAddr: 0x10000E098, symSize: 0x24 }
  - { offsetInCU: 0x19CCB, offset: 0x19CCB, size: 0x8, addend: 0x0, symName: __ZNKSt3__19allocatorINS_8functionIFvvEEEE8max_sizeB8ue170006Ev, symObjAddr: 0xB698, symBinAddr: 0x10000E0BC, symSize: 0x14 }
  - { offsetInCU: 0x19CF1, offset: 0x19CF1, size: 0x8, addend: 0x0, symName: __ZNKSt3__123__move_backward_trivialclB8ue170006IPNS_8functionIFvvEEES5_Li0EEENS_4pairIPT_PT0_EES8_S8_SA_, symObjAddr: 0xB828, symBinAddr: 0x10000E24C, symSize: 0x48 }
  - { offsetInCU: 0x19D59, offset: 0x19D59, size: 0x8, addend: 0x0, symName: __ZNSt3__14pairIPPNS_8functionIFvvEEES5_EC1B8ue170006IRS5_S8_LPv0EEEOT_OT0_, symObjAddr: 0xB938, symBinAddr: 0x10000E35C, symSize: 0x3C }
  - { offsetInCU: 0x19DB7, offset: 0x19DB7, size: 0x8, addend: 0x0, symName: __ZNSt3__14pairIPPNS_8functionIFvvEEES5_EC2B8ue170006IRS5_S8_LPv0EEEOT_OT0_, symObjAddr: 0xB974, symBinAddr: 0x10000E398, symSize: 0x34 }
  - { offsetInCU: 0x19E15, offset: 0x19E15, size: 0x8, addend: 0x0, symName: __ZNSt3__114__split_bufferIPNS_8functionIFvvEEERNS_9allocatorIS4_EEEC2EmmS7_, symObjAddr: 0xB9A8, symBinAddr: 0x10000E3CC, symSize: 0xD4 }
  - { offsetInCU: 0x19E8A, offset: 0x19E8A, size: 0x8, addend: 0x0, symName: __ZNSt3__117__compressed_pairIPPNS_8functionIFvvEEERNS_9allocatorIS4_EEEC1B8ue170006IDnS8_EEOT_OT0_, symObjAddr: 0xBA7C, symBinAddr: 0x10000E4A0, symSize: 0x3C }
  - { offsetInCU: 0x19EE2, offset: 0x19EE2, size: 0x8, addend: 0x0, symName: __ZNSt3__117__compressed_pairIPPNS_8functionIFvvEEERNS_9allocatorIS4_EEEC2B8ue170006IDnS8_EEOT_OT0_, symObjAddr: 0xBAF8, symBinAddr: 0x10000E51C, symSize: 0x48 }
  - { offsetInCU: 0x19F3A, offset: 0x19F3A, size: 0x8, addend: 0x0, symName: __ZNSt3__122__compressed_pair_elemIRNS_9allocatorIPNS_8functionIFvvEEEEELi1ELb0EEC2B8ue170006IS7_vEEOT_, symObjAddr: 0xBB40, symBinAddr: 0x10000E564, symSize: 0x20 }
  - { offsetInCU: 0x19F7C, offset: 0x19F7C, size: 0x8, addend: 0x0, symName: __ZNSt3__19allocatorIPNS_8functionIFvvEEEE8allocateB8ue170006Em, symObjAddr: 0xBB60, symBinAddr: 0x10000E584, symSize: 0x58 }
  - { offsetInCU: 0x19FBB, offset: 0x19FBB, size: 0x8, addend: 0x0, symName: __ZNSt3__116allocator_traitsINS_9allocatorIPNS_8functionIFvvEEEEEE8max_sizeB8ue170006IS6_vEEmRKS6_, symObjAddr: 0xBBB8, symBinAddr: 0x10000E5DC, symSize: 0x24 }
  - { offsetInCU: 0x19FE9, offset: 0x19FE9, size: 0x8, addend: 0x0, symName: __ZNKSt3__19allocatorIPNS_8functionIFvvEEEE8max_sizeB8ue170006Ev, symObjAddr: 0xBBDC, symBinAddr: 0x10000E600, symSize: 0x14 }
  - { offsetInCU: 0x1A00F, offset: 0x1A00F, size: 0x8, addend: 0x0, symName: __ZNSt3__122__allocator_destructorINS_9allocatorINS_8functionIFvvEEEEEEC2B8ue170006ERS5_m, symObjAddr: 0xBBF0, symBinAddr: 0x10000E614, symSize: 0x2C }
  - { offsetInCU: 0x1A055, offset: 0x1A055, size: 0x8, addend: 0x0, symName: __ZNSt3__110unique_ptrIPNS_8functionIFvvEEENS_22__allocator_destructorINS_9allocatorIS3_EEEEEC2B8ue170006ILb1EvEES4_NS_16__dependent_typeINS_27__unique_ptr_deleter_sfinaeIS8_EEXT_EE20__good_rval_ref_typeE, symObjAddr: 0xBC1C, symBinAddr: 0x10000E640, symSize: 0x48 }
  - { offsetInCU: 0x1A0A6, offset: 0x1A0A6, size: 0x8, addend: 0x0, symName: __ZNSt3__117__compressed_pairIPNS_8functionIFvvEEENS_22__allocator_destructorINS_9allocatorIS3_EEEEEC1B8ue170006IRS4_S8_EEOT_OT0_, symObjAddr: 0xBC64, symBinAddr: 0x10000E688, symSize: 0x3C }
  - { offsetInCU: 0x1A0FE, offset: 0x1A0FE, size: 0x8, addend: 0x0, symName: __ZNSt3__117__compressed_pairIPNS_8functionIFvvEEENS_22__allocator_destructorINS_9allocatorIS3_EEEEEC2B8ue170006IRS4_S8_EEOT_OT0_, symObjAddr: 0xBCA0, symBinAddr: 0x10000E6C4, symSize: 0x48 }
  - { offsetInCU: 0x1A156, offset: 0x1A156, size: 0x8, addend: 0x0, symName: __ZNSt3__122__compressed_pair_elemIPNS_8functionIFvvEEELi0ELb0EEC2B8ue170006IRS4_vEEOT_, symObjAddr: 0xBCE8, symBinAddr: 0x10000E70C, symSize: 0x24 }
  - { offsetInCU: 0x1A198, offset: 0x1A198, size: 0x8, addend: 0x0, symName: __ZNSt3__122__compressed_pair_elemINS_22__allocator_destructorINS_9allocatorINS_8functionIFvvEEEEEEELi1ELb0EEC2B8ue170006IS7_vEEOT_, symObjAddr: 0xBD0C, symBinAddr: 0x10000E730, symSize: 0x24 }
  - { offsetInCU: 0x1A1DA, offset: 0x1A1DA, size: 0x8, addend: 0x0, symName: __ZNKSt3__117__compressed_pairIPNS_8functionIFvvEEENS_22__allocator_destructorINS_9allocatorIS3_EEEEE5firstB8ue170006Ev, symObjAddr: 0xBD30, symBinAddr: 0x10000E754, symSize: 0x24 }
  - { offsetInCU: 0x1A200, offset: 0x1A200, size: 0x8, addend: 0x0, symName: __ZNKSt3__122__compressed_pair_elemIPNS_8functionIFvvEEELi0ELb0EE5__getB8ue170006Ev, symObjAddr: 0xBD54, symBinAddr: 0x10000E778, symSize: 0x14 }
  - { offsetInCU: 0x1A226, offset: 0x1A226, size: 0x8, addend: 0x0, symName: __ZNSt3__117__compressed_pairIPNS_8functionIFvvEEENS_22__allocator_destructorINS_9allocatorIS3_EEEEE5firstB8ue170006Ev, symObjAddr: 0xBD68, symBinAddr: 0x10000E78C, symSize: 0x24 }
  - { offsetInCU: 0x1A24C, offset: 0x1A24C, size: 0x8, addend: 0x0, symName: __ZNSt3__122__compressed_pair_elemIPNS_8functionIFvvEEELi0ELb0EE5__getB8ue170006Ev, symObjAddr: 0xBD8C, symBinAddr: 0x10000E7B0, symSize: 0x14 }
  - { offsetInCU: 0x1A272, offset: 0x1A272, size: 0x8, addend: 0x0, symName: __ZNSt3__117__compressed_pairIPPNS_8functionIFvvEEENS_9allocatorIS4_EEE5firstB8ue170006Ev, symObjAddr: 0xBDA0, symBinAddr: 0x10000E7C4, symSize: 0x24 }
  - { offsetInCU: 0x1A298, offset: 0x1A298, size: 0x8, addend: 0x0, symName: __ZNSt3__122__compressed_pair_elemIPPNS_8functionIFvvEEELi0ELb0EE5__getB8ue170006Ev, symObjAddr: 0xBDC4, symBinAddr: 0x10000E7E8, symSize: 0x14 }
  - { offsetInCU: 0x1A2BE, offset: 0x1A2BE, size: 0x8, addend: 0x0, symName: __ZNSt3__117__compressed_pairIPPNS_8functionIFvvEEERNS_9allocatorIS4_EEE5firstB8ue170006Ev, symObjAddr: 0xBDD8, symBinAddr: 0x10000E7FC, symSize: 0x24 }
  - { offsetInCU: 0x1A2E4, offset: 0x1A2E4, size: 0x8, addend: 0x0, symName: __ZNSt3__110unique_ptrIPNS_8functionIFvvEEENS_22__allocator_destructorINS_9allocatorIS3_EEEEED2B8ue170006Ev, symObjAddr: 0xBDFC, symBinAddr: 0x10000E820, symSize: 0x30 }
  - { offsetInCU: 0x1A30E, offset: 0x1A30E, size: 0x8, addend: 0x0, symName: __ZNSt3__110unique_ptrIPNS_8functionIFvvEEENS_22__allocator_destructorINS_9allocatorIS3_EEEEE5resetB8ue170006ES4_, symObjAddr: 0xBE2C, symBinAddr: 0x10000E850, symSize: 0x78 }
  - { offsetInCU: 0x1A353, offset: 0x1A353, size: 0x8, addend: 0x0, symName: __ZNSt3__117__compressed_pairIPNS_8functionIFvvEEENS_22__allocator_destructorINS_9allocatorIS3_EEEEE6secondB8ue170006Ev, symObjAddr: 0xBEA4, symBinAddr: 0x10000E8C8, symSize: 0x28 }
  - { offsetInCU: 0x1A379, offset: 0x1A379, size: 0x8, addend: 0x0, symName: __ZNSt3__122__allocator_destructorINS_9allocatorINS_8functionIFvvEEEEEEclB8ue170006EPS4_, symObjAddr: 0xBECC, symBinAddr: 0x10000E8F0, symSize: 0x34 }
  - { offsetInCU: 0x1A3AD, offset: 0x1A3AD, size: 0x8, addend: 0x0, symName: __ZNSt3__122__compressed_pair_elemINS_22__allocator_destructorINS_9allocatorINS_8functionIFvvEEEEEEELi1ELb0EE5__getB8ue170006Ev, symObjAddr: 0xBF00, symBinAddr: 0x10000E924, symSize: 0x14 }
  - { offsetInCU: 0x1A3D3, offset: 0x1A3D3, size: 0x8, addend: 0x0, symName: __ZNSt3__114__split_bufferIPNS_8functionIFvvEEERNS_9allocatorIS4_EEED2Ev, symObjAddr: 0xBF14, symBinAddr: 0x10000E938, symSize: 0x8C }
  - { offsetInCU: 0x1A3FF, offset: 0x1A3FF, size: 0x8, addend: 0x0, symName: __ZNSt3__114__split_bufferIPNS_8functionIFvvEEERNS_9allocatorIS4_EEE5clearB8ue170006Ev, symObjAddr: 0xBFA0, symBinAddr: 0x10000E9C4, symSize: 0x28 }
  - { offsetInCU: 0x1A425, offset: 0x1A425, size: 0x8, addend: 0x0, symName: __ZNKSt3__114__split_bufferIPNS_8functionIFvvEEERNS_9allocatorIS4_EEE8capacityB8ue170006Ev, symObjAddr: 0xBFC8, symBinAddr: 0x10000E9EC, symSize: 0x40 }
  - { offsetInCU: 0x1A44B, offset: 0x1A44B, size: 0x8, addend: 0x0, symName: __ZNSt3__114__split_bufferIPNS_8functionIFvvEEERNS_9allocatorIS4_EEE17__destruct_at_endB8ue170006EPS4_, symObjAddr: 0xC008, symBinAddr: 0x10000EA2C, symSize: 0x2C }
  - { offsetInCU: 0x1A47F, offset: 0x1A47F, size: 0x8, addend: 0x0, symName: __ZNSt3__114__split_bufferIPNS_8functionIFvvEEERNS_9allocatorIS4_EEE17__destruct_at_endB8ue170006EPS4_NS_17integral_constantIbLb0EEE, symObjAddr: 0xC034, symBinAddr: 0x10000EA58, symSize: 0x80 }
  - { offsetInCU: 0x1A4C0, offset: 0x1A4C0, size: 0x8, addend: 0x0, symName: __ZNKSt3__114__split_bufferIPNS_8functionIFvvEEERNS_9allocatorIS4_EEE9__end_capB8ue170006Ev, symObjAddr: 0xC0B4, symBinAddr: 0x10000EAD8, symSize: 0x28 }
  - { offsetInCU: 0x1A4E6, offset: 0x1A4E6, size: 0x8, addend: 0x0, symName: __ZNKSt3__117__compressed_pairIPPNS_8functionIFvvEEERNS_9allocatorIS4_EEE5firstB8ue170006Ev, symObjAddr: 0xC0DC, symBinAddr: 0x10000EB00, symSize: 0x24 }
  - { offsetInCU: 0x1A50C, offset: 0x1A50C, size: 0x8, addend: 0x0, symName: __ZNSt3__19allocatorINS_8functionIFvvEEEE9constructB8ue170006IS3_JRKS3_EEEvPT_DpOT0_, symObjAddr: 0xC100, symBinAddr: 0x10000EB24, symSize: 0x30 }
  - { offsetInCU: 0x1A562, offset: 0x1A562, size: 0x8, addend: 0x0, symName: __ZNSt3__18functionIFvvEEC2ERKS2_, symObjAddr: 0xC130, symBinAddr: 0x10000EB54, symSize: 0x34 }
  - { offsetInCU: 0x1A59D, offset: 0x1A59D, size: 0x8, addend: 0x0, symName: __ZNSt3__110__function12__value_funcIFvvEEC1B8ue170006ERKS3_, symObjAddr: 0xC164, symBinAddr: 0x10000EB88, symSize: 0x34 }
  - { offsetInCU: 0x1A5D6, offset: 0x1A5D6, size: 0x8, addend: 0x0, symName: __ZNSt3__110__function12__value_funcIFvvEEC2B8ue170006ERKS3_, symObjAddr: 0xC198, symBinAddr: 0x10000EBBC, symSize: 0xC0 }
  - { offsetInCU: 0x1A60F, offset: 0x1A60F, size: 0x8, addend: 0x0, symName: __ZNSt3__110__function12__value_funcIFvvEE9__as_baseB8ue170006EPv, symObjAddr: 0xC258, symBinAddr: 0x10000EC7C, symSize: 0x14 }
  - { offsetInCU: 0x1A633, offset: 0x1A633, size: 0x8, addend: 0x0, symName: __ZNSt3__18functionIFvvEED2Ev, symObjAddr: 0xC26C, symBinAddr: 0x10000EC90, symSize: 0x2C }
  - { offsetInCU: 0x1A65F, offset: 0x1A65F, size: 0x8, addend: 0x0, symName: __ZNSt3__110__function12__value_funcIFvvEED1B8ue170006Ev, symObjAddr: 0xC298, symBinAddr: 0x10000ECBC, symSize: 0x2C }
  - { offsetInCU: 0x1A689, offset: 0x1A689, size: 0x8, addend: 0x0, symName: __ZNSt3__110__function12__value_funcIFvvEED2B8ue170006Ev, symObjAddr: 0xC2C4, symBinAddr: 0x10000ECE8, symSize: 0x90 }
  - { offsetInCU: 0x1A6B3, offset: 0x1A6B3, size: 0x8, addend: 0x0, symName: __ZNKSt3__110__function12__value_funcIFvvEEclB8ue170006Ev, symObjAddr: 0xC354, symBinAddr: 0x10000ED78, symSize: 0x50 }
  - { offsetInCU: 0x1A6DF, offset: 0x1A6DF, size: 0x8, addend: 0x0, symName: __ZNSt3__117bad_function_callC1Ev, symObjAddr: 0xC3DC, symBinAddr: 0x10000EE00, symSize: 0x2C }
  - { offsetInCU: 0x1A70B, offset: 0x1A70B, size: 0x8, addend: 0x0, symName: __ZNSt3__117bad_function_callD1Ev, symObjAddr: 0xC408, symBinAddr: 0x10000EE2C, symSize: 0x2C }
  - { offsetInCU: 0x1A735, offset: 0x1A735, size: 0x8, addend: 0x0, symName: __ZNSt3__117bad_function_callC2Ev, symObjAddr: 0xC434, symBinAddr: 0x10000EE58, symSize: 0x44 }
  - { offsetInCU: 0x1A761, offset: 0x1A761, size: 0x8, addend: 0x0, symName: __ZNSt9exceptionC2B8ue170006Ev, symObjAddr: 0xC478, symBinAddr: 0x10000EE9C, symSize: 0x24 }
  - { offsetInCU: 0x1A78B, offset: 0x1A78B, size: 0x8, addend: 0x0, symName: __ZNSt3__117bad_function_callD0Ev, symObjAddr: 0xC49C, symBinAddr: 0x10000EEC0, symSize: 0x30 }
  - { offsetInCU: 0x1A7B5, offset: 0x1A7B5, size: 0x8, addend: 0x0, symName: __ZNSt3__117bad_function_callD2Ev, symObjAddr: 0xC4CC, symBinAddr: 0x10000EEF0, symSize: 0x2C }
  - { offsetInCU: 0x1A7DF, offset: 0x1A7DF, size: 0x8, addend: 0x0, symName: __ZNSt3__15dequeIiNS_9allocatorIiEEE9push_backERKi, symObjAddr: 0xC4F8, symBinAddr: 0x10000EF1C, symSize: 0xAC }
  - { offsetInCU: 0x1A826, offset: 0x1A826, size: 0x8, addend: 0x0, symName: __ZNSt3__116allocator_traitsINS_9allocatorIiEEE9constructB8ue170006IiJRKiEvEEvRS2_PT_DpOT0_, symObjAddr: 0xC5A4, symBinAddr: 0x10000EFC8, symSize: 0x34 }
  - { offsetInCU: 0x1A87D, offset: 0x1A87D, size: 0x8, addend: 0x0, symName: __ZNSt3__19allocatorIiE9constructB8ue170006IiJRKiEEEvPT_DpOT0_, symObjAddr: 0xC5D8, symBinAddr: 0x10000EFFC, symSize: 0x28 }
  - { offsetInCU: 0x1A8D3, offset: 0x1A8D3, size: 0x8, addend: 0x0, symName: __ZNSt3__18functionIFvvEEC2B8ue170006Ev, symObjAddr: 0xC600, symBinAddr: 0x10000F024, symSize: 0x2C }
  - { offsetInCU: 0x1A8FD, offset: 0x1A8FD, size: 0x8, addend: 0x0, symName: __ZNSt3__110__function12__value_funcIFvvEEC1B8ue170006Ev, symObjAddr: 0xC62C, symBinAddr: 0x10000F050, symSize: 0x2C }
  - { offsetInCU: 0x1A927, offset: 0x1A927, size: 0x8, addend: 0x0, symName: __ZNSt3__110__function12__value_funcIFvvEEC2B8ue170006Ev, symObjAddr: 0xC658, symBinAddr: 0x10000F07C, symSize: 0x18 }
  - { offsetInCU: 0x1A951, offset: 0x1A951, size: 0x8, addend: 0x0, symName: __ZNSt3__15dequeINS_8functionIFvvEEENS_9allocatorIS3_EEE5frontEv, symObjAddr: 0xC670, symBinAddr: 0x10000F094, symSize: 0x50 }
  - { offsetInCU: 0x1A979, offset: 0x1A979, size: 0x8, addend: 0x0, symName: __ZNSt3__18functionIFvvEE4swapERS2_, symObjAddr: 0xC6C0, symBinAddr: 0x10000F0E4, symSize: 0x2C }
  - { offsetInCU: 0x1A9B0, offset: 0x1A9B0, size: 0x8, addend: 0x0, symName: __ZNSt3__110__function12__value_funcIFvvEE4swapB8ue170006ERS3_, symObjAddr: 0xC6EC, symBinAddr: 0x10000F110, symSize: 0x2A8 }
  - { offsetInCU: 0x1AA0C, offset: 0x1AA0C, size: 0x8, addend: 0x0, symName: __ZNSt3__15dequeINS_8functionIFvvEEENS_9allocatorIS3_EEE9pop_frontEv, symObjAddr: 0xC9D0, symBinAddr: 0x10000F3F4, symSize: 0xD4 }
  - { offsetInCU: 0x1AA64, offset: 0x1AA64, size: 0x8, addend: 0x0, symName: __ZNKSt3__15dequeINS_8functionIFvvEEENS_9allocatorIS3_EEE23__annotate_shrink_frontB8ue170006Emm, symObjAddr: 0xCAA4, symBinAddr: 0x10000F4C8, symSize: 0x70 }
  - { offsetInCU: 0x1AAA8, offset: 0x1AAA8, size: 0x8, addend: 0x0, symName: __ZNSt3__15dequeINS_8functionIFvvEEENS_9allocatorIS3_EEE26__maybe_remove_front_spareB8ue170006Eb, symObjAddr: 0xCB14, symBinAddr: 0x10000F538, symSize: 0xEC }
  - { offsetInCU: 0x1AADD, offset: 0x1AADD, size: 0x8, addend: 0x0, symName: __ZNKSt3__15dequeINS_8functionIFvvEEENS_9allocatorIS3_EEE20__front_spare_blocksB8ue170006Ev, symObjAddr: 0xCC00, symBinAddr: 0x10000F624, symSize: 0x2C }
  - { offsetInCU: 0x1AB03, offset: 0x1AB03, size: 0x8, addend: 0x0, symName: __ZNSt3__15dequeIiNS_9allocatorIiEEE5frontEv, symObjAddr: 0xCC2C, symBinAddr: 0x10000F650, symSize: 0x50 }
  - { offsetInCU: 0x1AB2B, offset: 0x1AB2B, size: 0x8, addend: 0x0, symName: __ZNSt3__15dequeIiNS_9allocatorIiEEE9pop_frontEv, symObjAddr: 0xCC7C, symBinAddr: 0x10000F6A0, symSize: 0xD4 }
  - { offsetInCU: 0x1AB83, offset: 0x1AB83, size: 0x8, addend: 0x0, symName: __ZNKSt3__15dequeIiNS_9allocatorIiEEE23__annotate_shrink_frontB8ue170006Emm, symObjAddr: 0xCD50, symBinAddr: 0x10000F774, symSize: 0x70 }
  - { offsetInCU: 0x1ABC7, offset: 0x1ABC7, size: 0x8, addend: 0x0, symName: __ZNSt3__15dequeIiNS_9allocatorIiEEE26__maybe_remove_front_spareB8ue170006Eb, symObjAddr: 0xCDC0, symBinAddr: 0x10000F7E4, symSize: 0xEC }
  - { offsetInCU: 0x1ABFC, offset: 0x1ABFC, size: 0x8, addend: 0x0, symName: __ZNKSt3__15dequeIiNS_9allocatorIiEEE20__front_spare_blocksB8ue170006Ev, symObjAddr: 0xCEAC, symBinAddr: 0x10000F8D0, symSize: 0x2C }
  - { offsetInCU: 0x1AC22, offset: 0x1AC22, size: 0x8, addend: 0x0, symName: '__ZZN10ThreadPool4waitEvENK3$_2clEv', symObjAddr: 0xCED8, symBinAddr: 0x10000F8FC, symSize: 0x28 }
  - { offsetInCU: 0x1AC4C, offset: 0x1AC4C, size: 0x8, addend: 0x0, symName: __ZNSt3__113__atomic_baseIbLb0EE5storeB8ue170006EbNS_12memory_orderE, symObjAddr: 0xCF00, symBinAddr: 0x10000F924, symSize: 0x40 }
  - { offsetInCU: 0x1AC8E, offset: 0x1AC8E, size: 0x8, addend: 0x0, symName: __ZNSt3__110__function12__value_funcIFvvEEaSB8ue170006EDn, symObjAddr: 0xCFD0, symBinAddr: 0x10000F9F4, symSize: 0x8C }
  - { offsetInCU: 0x1236, offset: 0x1C202, size: 0x8, addend: 0x0, symName: __ZNSt3__111make_sharedB8ue170006INS_5mutexEJEvEENS_10shared_ptrIT_EEDpOT0_, symObjAddr: 0x3C4, symBinAddr: 0x10000FD48, symSize: 0x38 }
  - { offsetInCU: 0x1264, offset: 0x1C230, size: 0x8, addend: 0x0, symName: __ZNSt3__115allocate_sharedB8ue170006INS_5mutexENS_9allocatorIS1_EEJEvEENS_10shared_ptrIT_EERKT0_DpOT1_, symObjAddr: 0x440, symBinAddr: 0x10000FD80, symSize: 0x90 }
  - { offsetInCU: 0x1A7C, offset: 0x1CA48, size: 0x8, addend: 0x0, symName: __ZNSt3__134__libcpp_atomic_refcount_incrementB8ue170006IlEET_RS1_, symObjAddr: 0x13A4, symBinAddr: 0x1000109A8, symSize: 0x30 }
  - { offsetInCU: 0x3A66, offset: 0x1EA32, size: 0x8, addend: 0x0, symName: __ZN9SemaphoreC2Ei, symObjAddr: 0x0, symBinAddr: 0x10000FA80, symSize: 0x74 }
  - { offsetInCU: 0x3AA0, offset: 0x1EA6C, size: 0x8, addend: 0x0, symName: __ZNSt3__122condition_variable_anyC1B8ue170006Ev, symObjAddr: 0xA0, symBinAddr: 0x10000FAF4, symSize: 0x2C }
  - { offsetInCU: 0x3ACB, offset: 0x1EA97, size: 0x8, addend: 0x0, symName: __ZN9SemaphoreC1Ei, symObjAddr: 0xCC, symBinAddr: 0x10000FB20, symSize: 0x34 }
  - { offsetInCU: 0x3B05, offset: 0x1EAD1, size: 0x8, addend: 0x0, symName: __ZN9Semaphore6signalEv, symObjAddr: 0x100, symBinAddr: 0x10000FB54, symSize: 0x6C }
  - { offsetInCU: 0x3B3B, offset: 0x1EB07, size: 0x8, addend: 0x0, symName: __ZNSt3__122condition_variable_any10notify_allB8ue170006Ev, symObjAddr: 0x1A0, symBinAddr: 0x10000FBC0, symSize: 0x50 }
  - { offsetInCU: 0x3B77, offset: 0x1EB43, size: 0x8, addend: 0x0, symName: __ZN9Semaphore4waitEv, symObjAddr: 0x21C, symBinAddr: 0x10000FC10, symSize: 0x88 }
  - { offsetInCU: 0x3BE4, offset: 0x1EBB0, size: 0x8, addend: 0x0, symName: '__ZNSt3__122condition_variable_any4waitB8ue170006INS_5mutexEZN9Semaphore4waitEvE3$_0EEvRT_T0_', symObjAddr: 0x2A4, symBinAddr: 0x10000FC98, symSize: 0x50 }
  - { offsetInCU: 0x3C38, offset: 0x1EC04, size: 0x8, addend: 0x0, symName: __ZNSt3__122condition_variable_anyC2B8ue170006Ev, symObjAddr: 0x338, symBinAddr: 0x10000FCE8, symSize: 0x60 }
  - { offsetInCU: 0x3C63, offset: 0x1EC2F, size: 0x8, addend: 0x0, symName: __ZNSt3__19allocatorINS_5mutexEEC1B8ue170006Ev, symObjAddr: 0x4D0, symBinAddr: 0x10000FE10, symSize: 0x2C }
  - { offsetInCU: 0x3CE4, offset: 0x1ECB0, size: 0x8, addend: 0x0, symName: __ZNSt3__118__allocation_guardINS_9allocatorINS_20__shared_ptr_emplaceINS_5mutexENS1_IS3_EEEEEEEC1B8ue170006IS4_EET_m, symObjAddr: 0x4FC, symBinAddr: 0x10000FE3C, symSize: 0x34 }
  - { offsetInCU: 0x3D33, offset: 0x1ECFF, size: 0x8, addend: 0x0, symName: __ZNKSt3__118__allocation_guardINS_9allocatorINS_20__shared_ptr_emplaceINS_5mutexENS1_IS3_EEEEEEE5__getB8ue170006Ev, symObjAddr: 0x530, symBinAddr: 0x10000FE70, symSize: 0x18 }
  - { offsetInCU: 0x3D59, offset: 0x1ED25, size: 0x8, addend: 0x0, symName: __ZNSt3__120__shared_ptr_emplaceINS_5mutexENS_9allocatorIS1_EEEC1B8ue170006IJEEES3_DpOT_, symObjAddr: 0x548, symBinAddr: 0x10000FE88, symSize: 0x2C }
  - { offsetInCU: 0x3D97, offset: 0x1ED63, size: 0x8, addend: 0x0, symName: __ZNSt3__118__allocation_guardINS_9allocatorINS_20__shared_ptr_emplaceINS_5mutexENS1_IS3_EEEEEEE13__release_ptrB8ue170006Ev, symObjAddr: 0x574, symBinAddr: 0x10000FEB4, symSize: 0x24 }
  - { offsetInCU: 0x3DCB, offset: 0x1ED97, size: 0x8, addend: 0x0, symName: __ZNSt3__110shared_ptrINS_5mutexEE27__create_with_control_blockB8ue170006IS1_NS_20__shared_ptr_emplaceIS1_NS_9allocatorIS1_EEEEEES2_PT_PT0_, symObjAddr: 0x598, symBinAddr: 0x10000FED8, symSize: 0xA4 }
  - { offsetInCU: 0x3E21, offset: 0x1EDED, size: 0x8, addend: 0x0, symName: __ZNSt3__120__shared_ptr_emplaceINS_5mutexENS_9allocatorIS1_EEE10__get_elemB8ue170006Ev, symObjAddr: 0x63C, symBinAddr: 0x10000FF7C, symSize: 0x28 }
  - { offsetInCU: 0x3E47, offset: 0x1EE13, size: 0x8, addend: 0x0, symName: __ZNSt3__118__allocation_guardINS_9allocatorINS_20__shared_ptr_emplaceINS_5mutexENS1_IS3_EEEEEEED1B8ue170006Ev, symObjAddr: 0x664, symBinAddr: 0x10000FFA4, symSize: 0x2C }
  - { offsetInCU: 0x3E71, offset: 0x1EE3D, size: 0x8, addend: 0x0, symName: __ZNSt3__118__allocation_guardINS_9allocatorINS_20__shared_ptr_emplaceINS_5mutexENS1_IS3_EEEEEEEC2B8ue170006IS4_EET_m, symObjAddr: 0x690, symBinAddr: 0x10000FFD0, symSize: 0x50 }
  - { offsetInCU: 0x3EC0, offset: 0x1EE8C, size: 0x8, addend: 0x0, symName: __ZNSt3__19allocatorINS_20__shared_ptr_emplaceINS_5mutexENS0_IS2_EEEEEC1B8ue170006IS2_EERKNS0_IT_EE, symObjAddr: 0x6E0, symBinAddr: 0x100010020, symSize: 0x34 }
  - { offsetInCU: 0x3EFE, offset: 0x1EECA, size: 0x8, addend: 0x0, symName: __ZNSt3__116allocator_traitsINS_9allocatorINS_20__shared_ptr_emplaceINS_5mutexENS1_IS3_EEEEEEE8allocateB8ue170006ERS6_m, symObjAddr: 0x714, symBinAddr: 0x100010054, symSize: 0x2C }
  - { offsetInCU: 0x3F31, offset: 0x1EEFD, size: 0x8, addend: 0x0, symName: __ZNSt3__19allocatorINS_20__shared_ptr_emplaceINS_5mutexENS0_IS2_EEEEEC2B8ue170006IS2_EERKNS0_IT_EE, symObjAddr: 0x740, symBinAddr: 0x100010080, symSize: 0x30 }
  - { offsetInCU: 0x3F6F, offset: 0x1EF3B, size: 0x8, addend: 0x0, symName: __ZNSt3__116__non_trivial_ifILb1ENS_9allocatorINS_20__shared_ptr_emplaceINS_5mutexENS1_IS3_EEEEEEEC2B8ue170006Ev, symObjAddr: 0x770, symBinAddr: 0x1000100B0, symSize: 0x14 }
  - { offsetInCU: 0x3F99, offset: 0x1EF65, size: 0x8, addend: 0x0, symName: __ZNSt3__19allocatorINS_20__shared_ptr_emplaceINS_5mutexENS0_IS2_EEEEE8allocateB8ue170006Em, symObjAddr: 0x784, symBinAddr: 0x1000100C4, symSize: 0x5C }
  - { offsetInCU: 0x3FD8, offset: 0x1EFA4, size: 0x8, addend: 0x0, symName: __ZNSt3__116allocator_traitsINS_9allocatorINS_20__shared_ptr_emplaceINS_5mutexENS1_IS3_EEEEEEE8max_sizeB8ue170006IS6_vEEmRKS6_, symObjAddr: 0x7E0, symBinAddr: 0x100010120, symSize: 0x24 }
  - { offsetInCU: 0x4006, offset: 0x1EFD2, size: 0x8, addend: 0x0, symName: __ZNKSt3__19allocatorINS_20__shared_ptr_emplaceINS_5mutexENS0_IS2_EEEEE8max_sizeB8ue170006Ev, symObjAddr: 0x860, symBinAddr: 0x100010144, symSize: 0x20 }
  - { offsetInCU: 0x402C, offset: 0x1EFF8, size: 0x8, addend: 0x0, symName: __ZNSt3__120__shared_ptr_emplaceINS_5mutexENS_9allocatorIS1_EEEC2B8ue170006IJEEES3_DpOT_, symObjAddr: 0x8A4, symBinAddr: 0x100010164, symSize: 0xA0 }
  - { offsetInCU: 0x406A, offset: 0x1F036, size: 0x8, addend: 0x0, symName: __ZNSt3__119__shared_weak_countC2B8ue170006El, symObjAddr: 0x944, symBinAddr: 0x100010204, symSize: 0x54 }
  - { offsetInCU: 0x40A2, offset: 0x1F06E, size: 0x8, addend: 0x0, symName: __ZNSt3__120__shared_ptr_emplaceINS_5mutexENS_9allocatorIS1_EEE8_StorageC1B8ue170006EOS3_, symObjAddr: 0x998, symBinAddr: 0x100010258, symSize: 0x34 }
  - { offsetInCU: 0x40DB, offset: 0x1F0A7, size: 0x8, addend: 0x0, symName: __ZNSt3__120__shared_ptr_emplaceINS_5mutexENS_9allocatorIS1_EEED1Ev, symObjAddr: 0x9CC, symBinAddr: 0x10001028C, symSize: 0x2C }
  - { offsetInCU: 0x4108, offset: 0x1F0D4, size: 0x8, addend: 0x0, symName: __ZNSt3__120__shared_ptr_emplaceINS_5mutexENS_9allocatorIS1_EEED0Ev, symObjAddr: 0x9F8, symBinAddr: 0x1000102B8, symSize: 0x30 }
  - { offsetInCU: 0x4135, offset: 0x1F101, size: 0x8, addend: 0x0, symName: __ZNSt3__120__shared_ptr_emplaceINS_5mutexENS_9allocatorIS1_EEE16__on_zero_sharedEv, symObjAddr: 0xA28, symBinAddr: 0x1000102E8, symSize: 0x28 }
  - { offsetInCU: 0x415B, offset: 0x1F127, size: 0x8, addend: 0x0, symName: __ZNSt3__120__shared_ptr_emplaceINS_5mutexENS_9allocatorIS1_EEE21__on_zero_shared_weakEv, symObjAddr: 0xA50, symBinAddr: 0x100010310, symSize: 0x5C }
  - { offsetInCU: 0x419D, offset: 0x1F169, size: 0x8, addend: 0x0, symName: __ZNSt3__114__shared_countC2B8ue170006El, symObjAddr: 0xAAC, symBinAddr: 0x10001036C, symSize: 0x30 }
  - { offsetInCU: 0x41D5, offset: 0x1F1A1, size: 0x8, addend: 0x0, symName: __ZNSt3__120__shared_ptr_emplaceINS_5mutexENS_9allocatorIS1_EEE8_StorageC2B8ue170006EOS3_, symObjAddr: 0xADC, symBinAddr: 0x10001039C, symSize: 0x30 }
  - { offsetInCU: 0x420E, offset: 0x1F1DA, size: 0x8, addend: 0x0, symName: __ZNSt3__120__shared_ptr_emplaceINS_5mutexENS_9allocatorIS1_EEE8_Storage11__get_allocB8ue170006Ev, symObjAddr: 0xB0C, symBinAddr: 0x1000103CC, symSize: 0x3C }
  - { offsetInCU: 0x4264, offset: 0x1F230, size: 0x8, addend: 0x0, symName: __ZNSt3__117__compressed_pairINS_9allocatorINS_5mutexEEES2_E16__get_first_baseB8ue170006EPS4_, symObjAddr: 0xB48, symBinAddr: 0x100010408, symSize: 0x14 }
  - { offsetInCU: 0x4287, offset: 0x1F253, size: 0x8, addend: 0x0, symName: __ZNSt3__120__shared_ptr_emplaceINS_5mutexENS_9allocatorIS1_EEED2Ev, symObjAddr: 0xB5C, symBinAddr: 0x10001041C, symSize: 0x48 }
  - { offsetInCU: 0x42B4, offset: 0x1F280, size: 0x8, addend: 0x0, symName: __ZNSt3__120__shared_ptr_emplaceINS_5mutexENS_9allocatorIS1_EEE8_StorageD1B8ue170006Ev, symObjAddr: 0xBA4, symBinAddr: 0x100010464, symSize: 0x2C }
  - { offsetInCU: 0x42DE, offset: 0x1F2AA, size: 0x8, addend: 0x0, symName: __ZNSt3__120__shared_ptr_emplaceINS_5mutexENS_9allocatorIS1_EEE8_StorageD2B8ue170006Ev, symObjAddr: 0xBD0, symBinAddr: 0x100010490, symSize: 0x2C }
  - { offsetInCU: 0x4308, offset: 0x1F2D4, size: 0x8, addend: 0x0, symName: __ZNSt3__120__shared_ptr_emplaceINS_5mutexENS_9allocatorIS1_EEE11__get_allocB8ue170006Ev, symObjAddr: 0xBFC, symBinAddr: 0x1000104BC, symSize: 0x28 }
  - { offsetInCU: 0x432E, offset: 0x1F2FA, size: 0x8, addend: 0x0, symName: __ZNSt3__116allocator_traitsINS_9allocatorINS_20__shared_ptr_emplaceINS_5mutexENS1_IS3_EEEEEEE10deallocateB8ue170006ERS6_PS5_m, symObjAddr: 0xC24, symBinAddr: 0x1000104E4, symSize: 0x34 }
  - { offsetInCU: 0x4370, offset: 0x1F33C, size: 0x8, addend: 0x0, symName: __ZNSt3__114pointer_traitsIPNS_20__shared_ptr_emplaceINS_5mutexENS_9allocatorIS2_EEEEE10pointer_toB8ue170006ERS5_, symObjAddr: 0xC58, symBinAddr: 0x100010518, symSize: 0x14 }
  - { offsetInCU: 0x4393, offset: 0x1F35F, size: 0x8, addend: 0x0, symName: __ZNSt3__19allocatorINS_20__shared_ptr_emplaceINS_5mutexENS0_IS2_EEEEE10deallocateB8ue170006EPS4_m, symObjAddr: 0xC6C, symBinAddr: 0x10001052C, symSize: 0x44 }
  - { offsetInCU: 0x43D5, offset: 0x1F3A1, size: 0x8, addend: 0x0, symName: __ZNSt3__110shared_ptrINS_5mutexEEC1B8ue170006Ev, symObjAddr: 0xD38, symBinAddr: 0x100010570, symSize: 0x2C }
  - { offsetInCU: 0x43FF, offset: 0x1F3CB, size: 0x8, addend: 0x0, symName: __ZNSt3__110shared_ptrINS_5mutexEE18__enable_weak_thisB8ue170006Ez, symObjAddr: 0xD64, symBinAddr: 0x10001059C, symSize: 0x10 }
  - { offsetInCU: 0x4426, offset: 0x1F3F2, size: 0x8, addend: 0x0, symName: __ZNSt3__110shared_ptrINS_5mutexEEC2B8ue170006Ev, symObjAddr: 0xDA0, symBinAddr: 0x1000105AC, symSize: 0x1C }
  - { offsetInCU: 0x4450, offset: 0x1F41C, size: 0x8, addend: 0x0, symName: __ZNSt3__120__shared_ptr_emplaceINS_5mutexENS_9allocatorIS1_EEE8_Storage10__get_elemB8ue170006Ev, symObjAddr: 0xEF8, symBinAddr: 0x1000105C8, symSize: 0x3C }
  - { offsetInCU: 0x44A6, offset: 0x1F472, size: 0x8, addend: 0x0, symName: __ZNSt3__117__compressed_pairINS_9allocatorINS_5mutexEEES2_E17__get_second_baseB8ue170006EPS4_, symObjAddr: 0xF34, symBinAddr: 0x100010604, symSize: 0x14 }
  - { offsetInCU: 0x44C9, offset: 0x1F495, size: 0x8, addend: 0x0, symName: __ZNSt3__118__allocation_guardINS_9allocatorINS_20__shared_ptr_emplaceINS_5mutexENS1_IS3_EEEEEEED2B8ue170006Ev, symObjAddr: 0xF48, symBinAddr: 0x100010618, symSize: 0x2C }
  - { offsetInCU: 0x44F3, offset: 0x1F4BF, size: 0x8, addend: 0x0, symName: __ZNSt3__118__allocation_guardINS_9allocatorINS_20__shared_ptr_emplaceINS_5mutexENS1_IS3_EEEEEEE9__destroyB8ue170006Ev, symObjAddr: 0xF74, symBinAddr: 0x100010644, symSize: 0x4C }
  - { offsetInCU: 0x4519, offset: 0x1F4E5, size: 0x8, addend: 0x0, symName: __ZNSt3__19allocatorINS_5mutexEEC2B8ue170006Ev, symObjAddr: 0xFC0, symBinAddr: 0x100010690, symSize: 0x2C }
  - { offsetInCU: 0x4543, offset: 0x1F50F, size: 0x8, addend: 0x0, symName: __ZNSt3__116__non_trivial_ifILb1ENS_9allocatorINS_5mutexEEEEC2B8ue170006Ev, symObjAddr: 0xFEC, symBinAddr: 0x1000106BC, symSize: 0x14 }
  - { offsetInCU: 0x456D, offset: 0x1F539, size: 0x8, addend: 0x0, symName: __ZNKSt3__110shared_ptrINS_5mutexEEdeB8ue170006Ev, symObjAddr: 0x1000, symBinAddr: 0x1000106D0, symSize: 0x18 }
  - { offsetInCU: 0x4593, offset: 0x1F55F, size: 0x8, addend: 0x0, symName: '__ZZN9Semaphore4waitEvENK3$_0clEv', symObjAddr: 0x1084, symBinAddr: 0x1000106E8, symSize: 0x28 }
  - { offsetInCU: 0x45BD, offset: 0x1F589, size: 0x8, addend: 0x0, symName: __ZNSt3__122condition_variable_any4waitINS_5mutexEEEvRT_, symObjAddr: 0x10AC, symBinAddr: 0x100010710, symSize: 0xE8 }
  - { offsetInCU: 0x4632, offset: 0x1F5FE, size: 0x8, addend: 0x0, symName: __ZNSt3__110shared_ptrINS_5mutexEEC1B8ue170006ERKS2_, symObjAddr: 0x1194, symBinAddr: 0x1000107F8, symSize: 0x34 }
  - { offsetInCU: 0x4706, offset: 0x1F6D2, size: 0x8, addend: 0x0, symName: __ZNSt3__110unique_ptrINS_5mutexENS_15__lock_externalEEC1B8ue170006ILb1EvEEPS1_, symObjAddr: 0x11FC, symBinAddr: 0x10001082C, symSize: 0x34 }
  - { offsetInCU: 0x4766, offset: 0x1F732, size: 0x8, addend: 0x0, symName: __ZNSt3__110lock_guardINS_11unique_lockINS_5mutexEEEEC1B8ue170006ERS3_NS_12adopt_lock_tE, symObjAddr: 0x1230, symBinAddr: 0x100010860, symSize: 0x34 }
  - { offsetInCU: 0x47A9, offset: 0x1F775, size: 0x8, addend: 0x0, symName: __ZNSt3__110lock_guardINS_11unique_lockINS_5mutexEEEED1B8ue170006Ev, symObjAddr: 0x1264, symBinAddr: 0x100010894, symSize: 0x2C }
  - { offsetInCU: 0x47D3, offset: 0x1F79F, size: 0x8, addend: 0x0, symName: __ZNSt3__110unique_ptrINS_5mutexENS_15__lock_externalEED1B8ue170006Ev, symObjAddr: 0x1290, symBinAddr: 0x1000108C0, symSize: 0x2C }
  - { offsetInCU: 0x47FD, offset: 0x1F7C9, size: 0x8, addend: 0x0, symName: __ZNSt3__110shared_ptrINS_5mutexEEC2B8ue170006ERKS2_, symObjAddr: 0x12E8, symBinAddr: 0x1000108EC, symSize: 0x70 }
  - { offsetInCU: 0x4836, offset: 0x1F802, size: 0x8, addend: 0x0, symName: __ZNSt3__119__shared_weak_count12__add_sharedB8ue170006Ev, symObjAddr: 0x1358, symBinAddr: 0x10001095C, symSize: 0x24 }
  - { offsetInCU: 0x485C, offset: 0x1F828, size: 0x8, addend: 0x0, symName: __ZNSt3__114__shared_count12__add_sharedB8ue170006Ev, symObjAddr: 0x137C, symBinAddr: 0x100010980, symSize: 0x28 }
  - { offsetInCU: 0x4882, offset: 0x1F84E, size: 0x8, addend: 0x0, symName: __ZNSt3__110unique_ptrINS_5mutexENS_15__lock_externalEEC2B8ue170006ILb1EvEEPS1_, symObjAddr: 0x1418, symBinAddr: 0x1000109D8, symSize: 0x44 }
  - { offsetInCU: 0x48CB, offset: 0x1F897, size: 0x8, addend: 0x0, symName: __ZNSt3__117__compressed_pairIPNS_5mutexENS_15__lock_externalEEC1B8ue170006IRS2_NS_16__value_init_tagEEEOT_OT0_, symObjAddr: 0x145C, symBinAddr: 0x100010A1C, symSize: 0x3C }
  - { offsetInCU: 0x4923, offset: 0x1F8EF, size: 0x8, addend: 0x0, symName: __ZNSt3__117__compressed_pairIPNS_5mutexENS_15__lock_externalEEC2B8ue170006IRS2_NS_16__value_init_tagEEEOT_OT0_, symObjAddr: 0x1498, symBinAddr: 0x100010A58, symSize: 0x40 }
  - { offsetInCU: 0x497B, offset: 0x1F947, size: 0x8, addend: 0x0, symName: __ZNSt3__122__compressed_pair_elemIPNS_5mutexELi0ELb0EEC2B8ue170006IRS2_vEEOT_, symObjAddr: 0x14D8, symBinAddr: 0x100010A98, symSize: 0x24 }
  - { offsetInCU: 0x49BD, offset: 0x1F989, size: 0x8, addend: 0x0, symName: __ZNSt3__122__compressed_pair_elemINS_15__lock_externalELi1ELb1EEC2B8ue170006ENS_16__value_init_tagE, symObjAddr: 0x14FC, symBinAddr: 0x100010ABC, symSize: 0x14 }
  - { offsetInCU: 0x49F2, offset: 0x1F9BE, size: 0x8, addend: 0x0, symName: __ZNSt3__110lock_guardINS_11unique_lockINS_5mutexEEEEC2B8ue170006ERS3_NS_12adopt_lock_tE, symObjAddr: 0x1510, symBinAddr: 0x100010AD0, symSize: 0x20 }
  - { offsetInCU: 0x4A35, offset: 0x1FA01, size: 0x8, addend: 0x0, symName: __ZNSt3__110lock_guardINS_11unique_lockINS_5mutexEEEED2B8ue170006Ev, symObjAddr: 0x1530, symBinAddr: 0x100010AF0, symSize: 0x38 }
  - { offsetInCU: 0x4A5F, offset: 0x1FA2B, size: 0x8, addend: 0x0, symName: __ZNSt3__111unique_lockINS_5mutexEE6unlockEv, symObjAddr: 0x1568, symBinAddr: 0x100010B28, symSize: 0x54 }
  - { offsetInCU: 0x4A86, offset: 0x1FA52, size: 0x8, addend: 0x0, symName: __ZNSt3__110unique_ptrINS_5mutexENS_15__lock_externalEED2B8ue170006Ev, symObjAddr: 0x15BC, symBinAddr: 0x100010B7C, symSize: 0x30 }
  - { offsetInCU: 0x4AB0, offset: 0x1FA7C, size: 0x8, addend: 0x0, symName: __ZNSt3__110unique_ptrINS_5mutexENS_15__lock_externalEE5resetB8ue170006EPS1_, symObjAddr: 0x15EC, symBinAddr: 0x100010BAC, symSize: 0x80 }
  - { offsetInCU: 0x4AF5, offset: 0x1FAC1, size: 0x8, addend: 0x0, symName: __ZNSt3__117__compressed_pairIPNS_5mutexENS_15__lock_externalEE5firstB8ue170006Ev, symObjAddr: 0x166C, symBinAddr: 0x100010C2C, symSize: 0x24 }
  - { offsetInCU: 0x4B1B, offset: 0x1FAE7, size: 0x8, addend: 0x0, symName: __ZNSt3__117__compressed_pairIPNS_5mutexENS_15__lock_externalEE6secondB8ue170006Ev, symObjAddr: 0x1690, symBinAddr: 0x100010C50, symSize: 0x24 }
  - { offsetInCU: 0x4B47, offset: 0x1FB13, size: 0x8, addend: 0x0, symName: __ZNSt3__115__lock_externalclB8ue170006INS_5mutexEEEvPT_, symObjAddr: 0x16B4, symBinAddr: 0x100010C74, symSize: 0x28 }
  - { offsetInCU: 0x4B84, offset: 0x1FB50, size: 0x8, addend: 0x0, symName: __ZNSt3__122__compressed_pair_elemIPNS_5mutexELi0ELb0EE5__getB8ue170006Ev, symObjAddr: 0x16DC, symBinAddr: 0x100010C9C, symSize: 0x14 }
  - { offsetInCU: 0x4BAA, offset: 0x1FB76, size: 0x8, addend: 0x0, symName: __ZNSt3__122__compressed_pair_elemINS_15__lock_externalELi1ELb1EE5__getB8ue170006Ev, symObjAddr: 0x16F0, symBinAddr: 0x100010CB0, symSize: 0x14 }
  - { offsetInCU: 0x3F, offset: 0x1FC41, size: 0x8, addend: 0x0, symName: _oslock, symObjAddr: 0x56088, symBinAddr: 0x100070000, symSize: 0x0 }
  - { offsetInCU: 0x5F, offset: 0x1FC61, size: 0x8, addend: 0x0, symName: __ZNSt3__1L19piecewise_constructE, symObjAddr: 0x57B92, symBinAddr: 0x100066CEA, symSize: 0x0 }
  - { offsetInCU: 0x80D9, offset: 0x27CDB, size: 0x8, addend: 0x0, symName: '__ZNSt3__110__function10__not_nullB8ue170006IZ10test_basicvE3$_0EEbRKT_', symObjAddr: 0x87F4, symBinAddr: 0x100018C44, symSize: 0x18 }
  - { offsetInCU: 0x810C, offset: 0x27D0E, size: 0x8, addend: 0x0, symName: '__ZNSt3__110__function10__not_nullB8ue170006IZ21test_serial_executionvE3$_1EEbRKT_', symObjAddr: 0xBD20, symBinAddr: 0x10001C088, symSize: 0x18 }
  - { offsetInCU: 0x813F, offset: 0x27D41, size: 0x8, addend: 0x0, symName: '__ZNSt3__110__function10__not_nullB8ue170006IZ23test_fifo_single_threadvE3$_2EEbRKT_', symObjAddr: 0xD8F0, symBinAddr: 0x10001DC58, symSize: 0x18 }
  - { offsetInCU: 0x8172, offset: 0x27D74, size: 0x8, addend: 0x0, symName: '__ZNSt3__110__function10__not_nullB8ue170006IZ22test_concurrent_stressvE3$_3EEbRKT_', symObjAddr: 0x1036C, symBinAddr: 0x100020654, symSize: 0x18 }
  - { offsetInCU: 0x81A5, offset: 0x27DA7, size: 0x8, addend: 0x0, symName: '__ZNSt3__110__function10__not_nullB8ue170006IZ15test_reuse_poolvE3$_4EEbRKT_', symObjAddr: 0x11C4C, symBinAddr: 0x100021F34, symSize: 0x18 }
  - { offsetInCU: 0x81D8, offset: 0x27DDA, size: 0x8, addend: 0x0, symName: '__ZNSt3__110__function10__not_nullB8ue170006IZ15test_reuse_poolvE3$_5EEbRKT_', symObjAddr: 0x13488, symBinAddr: 0x100023770, symSize: 0x18 }
  - { offsetInCU: 0x820B, offset: 0x27E0D, size: 0x8, addend: 0x0, symName: '__ZNSt3__110__function10__not_nullB8ue170006IZ24test_multiple_wait_callsvE3$_6EEbRKT_', symObjAddr: 0x14CC4, symBinAddr: 0x100024FAC, symSize: 0x18 }
  - { offsetInCU: 0x823E, offset: 0x27E40, size: 0x8, addend: 0x0, symName: '__ZNSt3__110__function10__not_nullB8ue170006IZ19test_massive_stressvE3$_7EEbRKT_', symObjAddr: 0x166F4, symBinAddr: 0x1000269DC, symSize: 0x18 }
  - { offsetInCU: 0x8271, offset: 0x27E73, size: 0x8, addend: 0x0, symName: '__ZNSt3__110__function10__not_nullB8ue170006IZ25test_long_tasks_then_quitvE3$_8EEbRKT_', symObjAddr: 0x17F34, symBinAddr: 0x10002821C, symSize: 0x18 }
  - { offsetInCU: 0x82A4, offset: 0x27EA6, size: 0x8, addend: 0x0, symName: '__ZNSt3__110__function10__not_nullB8ue170006IZ36test_many_short_tasks_on_few_threadsvE3$_9EEbRKT_', symObjAddr: 0x1975C, symBinAddr: 0x100029A44, symSize: 0x18 }
  - { offsetInCU: 0x82D7, offset: 0x27ED9, size: 0x8, addend: 0x0, symName: '__ZNSt3__110__function10__not_nullB8ue170006IZZ23test_potential_deadlockvENK4$_10clEvEUlvE_EEbRKT_', symObjAddr: 0x1BD20, symBinAddr: 0x10002BA58, symSize: 0x18 }
  - { offsetInCU: 0x830A, offset: 0x27F0C, size: 0x8, addend: 0x0, symName: '__ZNSt3__110__function10__not_nullB8ue170006IZ36test_pending_tasks_tracking_simuladovE4$_12EEbRKT_', symObjAddr: 0x1E49C, symBinAddr: 0x10002E024, symSize: 0x18 }
  - { offsetInCU: 0x833D, offset: 0x27F3F, size: 0x8, addend: 0x0, symName: '__ZNSt3__110__function10__not_nullB8ue170006IZZ35test_schedule_from_multiple_threadsvENK4$_13clEvEUlvE_EEbRKT_', symObjAddr: 0x20C9C, symBinAddr: 0x100030824, symSize: 0x18 }
  - { offsetInCU: 0x8370, offset: 0x27F72, size: 0x8, addend: 0x0, symName: '__ZNSt3__110__function10__not_nullB8ue170006IZ31test_schedule_after_destructionvE4$_14EEbRKT_', symObjAddr: 0x2390C, symBinAddr: 0x100033494, symSize: 0x18 }
  - { offsetInCU: 0x83A3, offset: 0x27FA5, size: 0x8, addend: 0x0, symName: '__ZNSt3__110__function10__not_nullB8ue170006IZ31test_schedule_after_destructionvE4$_15EEbRKT_', symObjAddr: 0x2512C, symBinAddr: 0x100034CB4, symSize: 0x18 }
  - { offsetInCU: 0x83D6, offset: 0x27FD8, size: 0x8, addend: 0x0, symName: '__ZNSt3__110__function10__not_nullB8ue170006IZ25test_schedule_inside_taskvE4$_16EEbRKT_', symObjAddr: 0x2699C, symBinAddr: 0x100036524, symSize: 0x18 }
  - { offsetInCU: 0x8409, offset: 0x2800B, size: 0x8, addend: 0x0, symName: '__ZNSt3__110__function10__not_nullB8ue170006IZZ25test_schedule_inside_taskvENK4$_16clEvEUlvE_EEbRKT_', symObjAddr: 0x283DC, symBinAddr: 0x100037F64, symSize: 0x18 }
  - { offsetInCU: 0x843C, offset: 0x2803E, size: 0x8, addend: 0x0, symName: '__ZNSt3__110__function10__not_nullB8ue170006IZ29test_wait_blocks_until_finishvE4$_17EEbRKT_', symObjAddr: 0x29D04, symBinAddr: 0x10003988C, symSize: 0x18 }
  - { offsetInCU: 0x846F, offset: 0x28071, size: 0x8, addend: 0x0, symName: '__ZNSt3__110__function10__not_nullB8ue170006IZ32test_many_waits_during_executionvE4$_18EEbRKT_', symObjAddr: 0x2B560, symBinAddr: 0x10003B0E8, symSize: 0x18 }
  - { offsetInCU: 0x84A2, offset: 0x280A4, size: 0x8, addend: 0x0, symName: '__ZNSt3__110__function10__not_nullB8ue170006IZ35test_high_contention_atomic_updatesvE4$_21EEbRKT_', symObjAddr: 0x2D844, symBinAddr: 0x10003D3CC, symSize: 0x18 }
  - { offsetInCU: 0x84D5, offset: 0x280D7, size: 0x8, addend: 0x0, symName: '__ZNSt3__110__function10__not_nullB8ue170006IZ41test_immediate_destruction_after_schedulevE4$_22EEbRKT_', symObjAddr: 0x2F088, symBinAddr: 0x10003EC10, symSize: 0x18 }
  - { offsetInCU: 0x8508, offset: 0x2810A, size: 0x8, addend: 0x0, symName: '__ZNSt3__110__function10__not_nullB8ue170006IZZ37test_massive_schedule_wait_interleavevENK4$_23clEvEUlvE_EEbRKT_', symObjAddr: 0x30FD4, symBinAddr: 0x100040B5C, symSize: 0x18 }
  - { offsetInCU: 0x853B, offset: 0x2813D, size: 0x8, addend: 0x0, symName: '__ZNSt3__110__function10__not_nullB8ue170006IZZ39test_schedule_after_wait_multiple_timesvENK4$_24clEvEUlvE_EEbRKT_', symObjAddr: 0x33C9C, symBinAddr: 0x1000436F0, symSize: 0x18 }
  - { offsetInCU: 0x856E, offset: 0x28170, size: 0x8, addend: 0x0, symName: '__ZNSt3__110__function10__not_nullB8ue170006IZZ31test_multiple_wait_inside_tasksvENK4$_25clEvEUlvE_EEbRKT_', symObjAddr: 0x363F0, symBinAddr: 0x100045E44, symSize: 0x18 }
  - { offsetInCU: 0x85A1, offset: 0x281A3, size: 0x8, addend: 0x0, symName: '__ZNSt3__110__function10__not_nullB8ue170006IZZ38test_concurrent_schedule_wait_parallelvENK4$_26clEvEUlvE_EEbRKT_', symObjAddr: 0x38700, symBinAddr: 0x100048154, symSize: 0x18 }
  - { offsetInCU: 0x85D4, offset: 0x281D6, size: 0x8, addend: 0x0, symName: '__ZNSt3__110__function10__not_nullB8ue170006IZ31test_destructor_waits_for_tasksvE4$_28EEbRKT_', symObjAddr: 0x3AC18, symBinAddr: 0x10004A66C, symSize: 0x18 }
  - { offsetInCU: 0x8607, offset: 0x28209, size: 0x8, addend: 0x0, symName: '__ZNSt3__110__function10__not_nullB8ue170006IZ27test_repeated_pool_creationvE4$_29EEbRKT_', symObjAddr: 0x3C440, symBinAddr: 0x10004BE94, symSize: 0x18 }
  - { offsetInCU: 0x863A, offset: 0x2823C, size: 0x8, addend: 0x0, symName: '__ZNSt3__110__function10__not_nullB8ue170006IZZ27test_deep_nested_schedulingvENK4$_30clEvEUlvE_EEbRKT_', symObjAddr: 0x3E3B0, symBinAddr: 0x10004DE04, symSize: 0x18 }
  - { offsetInCU: 0x866D, offset: 0x2826F, size: 0x8, addend: 0x0, symName: '__ZNSt3__110__function10__not_nullB8ue170006IZZZ27test_deep_nested_schedulingvENK4$_30clEvENKUlvE_clEvEUlvE_EEbRKT_', symObjAddr: 0x3FCD0, symBinAddr: 0x10004F724, symSize: 0x18 }
  - { offsetInCU: 0x86A0, offset: 0x282A2, size: 0x8, addend: 0x0, symName: '__ZNSt3__110__function10__not_nullB8ue170006IZZZZ27test_deep_nested_schedulingvENK4$_30clEvENKUlvE_clEvENKUlvE_clEvEUlvE_EEbRKT_', symObjAddr: 0x415D8, symBinAddr: 0x10005102C, symSize: 0x18 }
  - { offsetInCU: 0x86D3, offset: 0x282D5, size: 0x8, addend: 0x0, symName: '__ZNSt3__110__function10__not_nullB8ue170006IZZ30test_extreme_nested_schedulingvENK4$_31clEvEUliE_EEbRKT_', symObjAddr: 0x438F4, symBinAddr: 0x100053348, symSize: 0x18 }
  - { offsetInCU: 0x8706, offset: 0x28308, size: 0x8, addend: 0x0, symName: '__ZNSt3__110__function10__not_nullB8ue170006IZZZ30test_extreme_nested_schedulingvENK4$_31clEvENKUliE_clEiEUlvE_EEbRKT_', symObjAddr: 0x453D8, symBinAddr: 0x100054E2C, symSize: 0x18 }
  - { offsetInCU: 0x8739, offset: 0x2833B, size: 0x8, addend: 0x0, symName: '__ZNSt3__110__function10__not_nullB8ue170006IZ21test_parallel_speedupvE4$_32EEbRKT_', symObjAddr: 0x471D8, symBinAddr: 0x100056AD8, symSize: 0x18 }
  - { offsetInCU: 0x876C, offset: 0x2836E, size: 0x8, addend: 0x0, symName: '__ZNSt3__110__function10__not_nullB8ue170006IZZ21test_wait_inside_taskvENK4$_33clEvEUlvE_EEbRKT_', symObjAddr: 0x490AC, symBinAddr: 0x1000589AC, symSize: 0x18 }
  - { offsetInCU: 0x879F, offset: 0x283A1, size: 0x8, addend: 0x0, symName: '__ZNSt3__110__function10__not_nullB8ue170006IZZ32test_wait_with_infinite_schedulevENK4$_34clEvEUlvE_EEbRKT_', symObjAddr: 0x4B2D8, symBinAddr: 0x10005AB94, symSize: 0x18 }
  - { offsetInCU: 0x87D2, offset: 0x283D4, size: 0x8, addend: 0x0, symName: '__ZNSt3__110__function10__not_nullB8ue170006IZZZ32test_wait_with_infinite_schedulevENK4$_34clEvENKUlvE_clEvEUlvE_EEbRKT_', symObjAddr: 0x4CB7C, symBinAddr: 0x10005C438, symSize: 0x18 }
  - { offsetInCU: 0x8805, offset: 0x28407, size: 0x8, addend: 0x0, symName: __ZNSt3__110__function10__not_nullB8ue170006IFbvEEEbPT_, symObjAddr: 0x5115C, symBinAddr: 0x1000609E0, symSize: 0x20 }
  - { offsetInCU: 0xD5E3, offset: 0x2D1E5, size: 0x8, addend: 0x0, symName: __ZNSt3__16chronoplB8ue170006INS0_12steady_clockENS0_8durationIxNS_5ratioILl1ELl1000000000EEEEExNS4_ILl1ELl1000EEEEENS0_10time_pointIT_NS_11common_typeIJT0_NS3_IT1_T2_EEEE4typeEEERKNS8_IS9_SB_EERKSE_, symObjAddr: 0x1D8A8, symBinAddr: 0x10002D430, symSize: 0x50 }
  - { offsetInCU: 0xD64C, offset: 0x2D24E, size: 0x8, addend: 0x0, symName: __ZNSt3__16chronoplB8ue170006IxNS_5ratioILl1ELl1000000000EEExNS2_ILl1ELl1000EEEEENS_11common_typeIJNS0_8durationIT_T0_EENS6_IT1_T2_EEEE4typeERKS9_RKSC_, symObjAddr: 0x1E25C, symBinAddr: 0x10002DDE4, symSize: 0x7C }
  - { offsetInCU: 0xD6B9, offset: 0x2D2BB, size: 0x8, addend: 0x0, symName: __ZNSt3__16chronomiB8ue170006IxNS_5ratioILl1ELl1000000000EEExS3_EENS_11common_typeIJNS0_8durationIT_T0_EENS5_IT1_T2_EEEE4typeERKS8_RKSB_, symObjAddr: 0x3A9EC, symBinAddr: 0x10004A440, symSize: 0x70 }
  - { offsetInCU: 0xD726, offset: 0x2D328, size: 0x8, addend: 0x0, symName: __ZNSt3__16chrono13duration_castB8ue170006INS0_8durationIxNS_5ratioILl1ELl1000EEEEExNS3_ILl1ELl1000000000EEEEENS_9enable_ifIXsr13__is_durationIT_EE5valueES8_E4typeERKNS2_IT0_T1_EE, symObjAddr: 0x3AB8, symBinAddr: 0x1000145BC, symSize: 0x30 }
  - { offsetInCU: 0xD76D, offset: 0x2D36F, size: 0x8, addend: 0x0, symName: __ZNSt3__16chronomiB8ue170006INS0_12steady_clockENS0_8durationIxNS_5ratioILl1ELl1000000000EEEEES6_EENS_11common_typeIJT0_T1_EE4typeERKNS0_10time_pointIT_S8_EERKNSC_ISD_S9_EE, symObjAddr: 0x3AE8, symBinAddr: 0x1000145EC, symSize: 0x58 }
  - { offsetInCU: 0xD7C5, offset: 0x2D3C7, size: 0x8, addend: 0x0, symName: __ZNSt3__16chronogtB8ue170006IxNS_5ratioILl1ELl1000EEExS3_EEbRKNS0_8durationIT_T0_EERKNS4_IT1_T2_EE, symObjAddr: 0x6F84, symBinAddr: 0x1000178E0, symSize: 0x30 }
  - { offsetInCU: 0xD826, offset: 0x2D428, size: 0x8, addend: 0x0, symName: __ZNSt3__16chronoltB8ue170006IxNS_5ratioILl1ELl1000EEEeNS2_ILl1ELl1EEEEEbRKNS0_8durationIT_T0_EERKNS5_IT1_T2_EE, symObjAddr: 0x6FF0, symBinAddr: 0x10001794C, symSize: 0x34 }
  - { offsetInCU: 0xD887, offset: 0x2D489, size: 0x8, addend: 0x0, symName: __ZNSt3__16chrono13duration_castB8ue170006INS0_8durationIxNS_5ratioILl1ELl1000000000EEEEExNS3_ILl1ELl1000EEEEENS_9enable_ifIXsr13__is_durationIT_EE5valueES8_E4typeERKNS2_IT0_T1_EE, symObjAddr: 0x7024, symBinAddr: 0x100017980, symSize: 0x30 }
  - { offsetInCU: 0xD8CE, offset: 0x2D4D0, size: 0x8, addend: 0x0, symName: __ZNSt3__16chronoltB8ue170006IxNS_5ratioILl1ELl1000000000EEExNS2_ILl1ELl1000EEEEEbRKNS0_8durationIT_T0_EERKNS5_IT1_T2_EE, symObjAddr: 0x7054, symBinAddr: 0x1000179B0, symSize: 0x34 }
  - { offsetInCU: 0xD92F, offset: 0x2D531, size: 0x8, addend: 0x0, symName: __ZNSt3__16chronoltB8ue170006IxNS_5ratioILl1ELl1000EEExS3_EEbRKNS0_8durationIT_T0_EERKNS4_IT1_T2_EE, symObjAddr: 0x70E4, symBinAddr: 0x100017A40, symSize: 0x34 }
  - { offsetInCU: 0xDA10, offset: 0x2D612, size: 0x8, addend: 0x0, symName: __ZNSt3__16chrono13duration_castB8ue170006INS0_8durationIeNS_5ratioILl1ELl1000EEEEExS4_EENS_9enable_ifIXsr13__is_durationIT_EE5valueES7_E4typeERKNS2_IT0_T1_EE, symObjAddr: 0x72BC, symBinAddr: 0x100017C18, symSize: 0x30 }
  - { offsetInCU: 0xDAA2, offset: 0x2D6A4, size: 0x8, addend: 0x0, symName: __ZNSt3__16chrono13duration_castB8ue170006INS0_8durationIeNS_5ratioILl1ELl1000EEEEEeNS3_ILl1ELl1EEEEENS_9enable_ifIXsr13__is_durationIT_EE5valueES8_E4typeERKNS2_IT0_T1_EE, symObjAddr: 0x73DC, symBinAddr: 0x100017D38, symSize: 0x30 }
  - { offsetInCU: 0xDAE9, offset: 0x2D6EB, size: 0x8, addend: 0x0, symName: __ZNSt3__16chronoleB8ue170006INS0_12steady_clockENS0_8durationIxNS_5ratioILl1ELl1000000000EEEEES6_EEbRKNS0_10time_pointIT_T0_EERKNS7_IS8_T1_EE, symObjAddr: 0x1D9E8, symBinAddr: 0x10002D570, symSize: 0x34 }
  - { offsetInCU: 0xDB3E, offset: 0x2D740, size: 0x8, addend: 0x0, symName: __ZNSt3__16chronoltB8ue170006INS0_12steady_clockENS0_8durationIxNS_5ratioILl1ELl1000000000EEEEES6_EEbRKNS0_10time_pointIT_T0_EERKNS7_IS8_T1_EE, symObjAddr: 0x1DC3C, symBinAddr: 0x10002D7C4, symSize: 0x54 }
  - { offsetInCU: 0xDB93, offset: 0x2D795, size: 0x8, addend: 0x0, symName: __ZNSt3__16chronoleB8ue170006IxNS_5ratioILl1ELl1000000000EEExS3_EEbRKNS0_8durationIT_T0_EERKNS4_IT1_T2_EE, symObjAddr: 0x1DF50, symBinAddr: 0x10002DAD8, symSize: 0x34 }
  - { offsetInCU: 0xDBF4, offset: 0x2D7F6, size: 0x8, addend: 0x0, symName: __ZNSt3__16chronoltB8ue170006IxNS_5ratioILl1ELl1000000000EEExS3_EEbRKNS0_8durationIT_T0_EERKNS4_IT1_T2_EE, symObjAddr: 0x1E1A0, symBinAddr: 0x10002DD28, symSize: 0x34 }
  - { offsetInCU: 0x10691, offset: 0x30293, size: 0x8, addend: 0x0, symName: __ZNSt3__124__put_character_sequenceB8ue170006IcNS_11char_traitsIcEEEERNS_13basic_ostreamIT_T0_EES7_PKS4_m, symObjAddr: 0xB028, symBinAddr: 0x10001B390, symSize: 0x1EC }
  - { offsetInCU: 0x17D9F, offset: 0x379A1, size: 0x8, addend: 0x0, symName: __ZNSt3__117__cxx_atomic_loadB8ue170006IiEET_PKNS_22__cxx_atomic_base_implIS1_EENS_12memory_orderE, symObjAddr: 0x164B0, symBinAddr: 0x100026798, symSize: 0x80 }
  - { offsetInCU: 0x3CAF8, offset: 0x5C6FA, size: 0x8, addend: 0x0, symName: __ZNSt3__17advanceB8ue170006INS_21__tree_const_iteratorINS_12__value_typeIcNS_12basic_stringIcNS_11char_traitsIcEENS_9allocatorIcEEEEEEPNS_11__tree_nodeIS9_PvEElEEllvEEvRT_T0_, symObjAddr: 0x4F994, symBinAddr: 0x10005F22C, symSize: 0x38 }
  - { offsetInCU: 0x3FEB7, offset: 0x5FAB9, size: 0x8, addend: 0x0, symName: __ZNSt3__111this_thread9sleep_forB8ue170006IxNS_5ratioILl1ELl1000EEEEEvRKNS_6chrono8durationIT_T0_EE, symObjAddr: 0x38, symBinAddr: 0x100010CFC, symSize: 0xBC }
  - { offsetInCU: 0x3FF1D, offset: 0x5FB1F, size: 0x8, addend: 0x0, symName: __ZNSt3__1eqB8ue170006IiNS_9allocatorIiEEEEbRKNS_6vectorIT_T0_EES8_, symObjAddr: 0x3F8, symBinAddr: 0x100011090, symSize: 0x9C }
  - { offsetInCU: 0x3FF7C, offset: 0x5FB7E, size: 0x8, addend: 0x0, symName: __ZNSt3__1eqB8ue170006IcNS_11char_traitsIcEENS_9allocatorIcEEEEbRKNS_12basic_stringIT_T0_T1_EEPKS6_, symObjAddr: 0x928, symBinAddr: 0x100011594, symSize: 0xAC }
  - { offsetInCU: 0x3FFE4, offset: 0x5FBE6, size: 0x8, addend: 0x0, symName: __ZNSt3__1neB8ue170006IPiEEbRKNS_11__wrap_iterIT_EES6_, symObjAddr: 0xFD4, symBinAddr: 0x100011C40, symSize: 0x34 }
  - { offsetInCU: 0x40027, offset: 0x5FC29, size: 0x8, addend: 0x0, symName: __ZNSt3__1neB8ue170006IPNS_6threadEEEbRKNS_11__wrap_iterIT_EES7_, symObjAddr: 0x2080, symBinAddr: 0x100012C24, symSize: 0x34 }
  - { offsetInCU: 0x4006B, offset: 0x5FC6D, size: 0x8, addend: 0x0, symName: '__ZNSt3__16all_ofB8ue170006IPNS_6atomicIbEEZ32test_many_waits_during_executionvE4$_20EEbT_S5_T0_', symObjAddr: 0x2C30, symBinAddr: 0x100013760, symSize: 0x94 }
  - { offsetInCU: 0x400C4, offset: 0x5FCC6, size: 0x8, addend: 0x0, symName: __ZNSt3__1lsB8ue170006INS_11char_traitsIcEEEERNS_13basic_ostreamIcT_EES6_PKc, symObjAddr: 0x50F4, symBinAddr: 0x100015BC4, symSize: 0x48 }
  - { offsetInCU: 0x4010A, offset: 0x5FD0C, size: 0x8, addend: 0x0, symName: __ZNSt3__1lsB8ue170006IcNS_11char_traitsIcEENS_9allocatorIcEEEERNS_13basic_ostreamIT_T0_EES9_RKNS_12basic_stringIS6_S7_T1_EE, symObjAddr: 0x513C, symBinAddr: 0x100015C0C, symSize: 0x4C }
  - { offsetInCU: 0x40162, offset: 0x5FD64, size: 0x8, addend: 0x0, symName: __ZNSt3__1plB8ue170006IcNS_11char_traitsIcEENS_9allocatorIcEEEENS_12basic_stringIT_T0_T1_EEOS9_PKS6_, symObjAddr: 0x5234, symBinAddr: 0x100015CD8, symSize: 0x40 }
  - { offsetInCU: 0x401BA, offset: 0x5FDBC, size: 0x8, addend: 0x0, symName: __ZNSt3__1plB8ue170006IcNS_11char_traitsIcEENS_9allocatorIcEEEENS_12basic_stringIT_T0_T1_EEPKS6_OS9_, symObjAddr: 0x5274, symBinAddr: 0x100015D18, symSize: 0x44 }
  - { offsetInCU: 0x40212, offset: 0x5FE14, size: 0x8, addend: 0x0, symName: __ZNSt3__14endlB8ue170006IcNS_11char_traitsIcEEEERNS_13basic_ostreamIT_T0_EES7_, symObjAddr: 0x5318, symBinAddr: 0x100015DBC, symSize: 0x58 }
  - { offsetInCU: 0x40252, offset: 0x5FE54, size: 0x8, addend: 0x0, symName: __ZNSt3__1neB8ue170006IP8TestCaseEEbRKNS_11__wrap_iterIT_EES7_, symObjAddr: 0x68E8, symBinAddr: 0x10001738C, symSize: 0x34 }
  - { offsetInCU: 0x40295, offset: 0x5FE97, size: 0x8, addend: 0x0, symName: __ZNSt3__1eqB8ue170006IPiEEbRKNS_11__wrap_iterIT_EES6_, symObjAddr: 0x6B10, symBinAddr: 0x100017570, symSize: 0x48 }
  - { offsetInCU: 0x402D8, offset: 0x5FEDA, size: 0x8, addend: 0x0, symName: __ZNSt3__1eqB8ue170006IPNS_6threadEEEbRKNS_11__wrap_iterIT_EES7_, symObjAddr: 0x6C08, symBinAddr: 0x1000175D0, symSize: 0x48 }
  - { offsetInCU: 0x4031B, offset: 0x5FF1D, size: 0x8, addend: 0x0, symName: __ZNSt3__1eqB8ue170006IP8TestCaseEEbRKNS_11__wrap_iterIT_EES7_, symObjAddr: 0x6EB8, symBinAddr: 0x100017880, symSize: 0x48 }
  - { offsetInCU: 0x4055F, offset: 0x60161, size: 0x8, addend: 0x0, symName: __ZNSt3__122__make_exception_guardB8ue170006INS_6vectorIiNS_9allocatorIiEEE16__destroy_vectorEEENS_28__exception_guard_exceptionsIT_EES7_, symObjAddr: 0x7760, symBinAddr: 0x1000180BC, symSize: 0x40 }
  - { offsetInCU: 0x40594, offset: 0x60196, size: 0x8, addend: 0x0, symName: __ZNSt3__119__allocate_at_leastB8ue170006INS_9allocatorIiEEEENS_19__allocation_resultINS_16allocator_traitsIT_E7pointerEEERS5_m, symObjAddr: 0x7B54, symBinAddr: 0x100018444, symSize: 0x40 }
  - { offsetInCU: 0x4073B, offset: 0x6033D, size: 0x8, addend: 0x0, symName: '__ZNSt3__116forward_as_tupleB8ue170006IJZ10test_basicvE3$_0EEENS_5tupleIJDpOT_EEES5_', symObjAddr: 0x8D6C, symBinAddr: 0x1000191BC, symSize: 0x2C }
  - { offsetInCU: 0x40774, offset: 0x60376, size: 0x8, addend: 0x0, symName: '__ZNSt3__116forward_as_tupleB8ue170006IJNS_9allocatorIZ10test_basicvE3$_0EEEEENS_5tupleIJDpOT_EEES7_', symObjAddr: 0x8D98, symBinAddr: 0x1000191E8, symSize: 0x2C }
  - { offsetInCU: 0x407D7, offset: 0x603D9, size: 0x8, addend: 0x0, symName: '__ZNSt3__13getB8ue170006ILm0EJOZ10test_basicvE3$_0EEERNS_13tuple_elementIXT_ENS_5tupleIJDpT0_EEEE4typeERS7_', symObjAddr: 0x90B0, symBinAddr: 0x100019500, symSize: 0x24 }
  - { offsetInCU: 0x4081A, offset: 0x6041C, size: 0x8, addend: 0x0, symName: '__ZNSt3__13getB8ue170006ILm0EJONS_9allocatorIZ10test_basicvE3$_0EEEEERNS_13tuple_elementIXT_ENS_5tupleIJDpT0_EEEE4typeERS9_', symObjAddr: 0x90EC, symBinAddr: 0x10001953C, symSize: 0x24 }
  - { offsetInCU: 0x40D41, offset: 0x60943, size: 0x8, addend: 0x0, symName: '__ZNSt3__116forward_as_tupleB8ue170006IJRKZ10test_basicvE3$_0EEENS_5tupleIJDpOT_EEES7_', symObjAddr: 0x9688, symBinAddr: 0x100019AD8, symSize: 0x2C }
  - { offsetInCU: 0x40D8F, offset: 0x60991, size: 0x8, addend: 0x0, symName: '__ZNSt3__13getB8ue170006ILm0EJRKZ10test_basicvE3$_0EEERNS_13tuple_elementIXT_ENS_5tupleIJDpT0_EEEE4typeERS8_', symObjAddr: 0x9878, symBinAddr: 0x100019CC8, symSize: 0x24 }
  - { offsetInCU: 0x40DD2, offset: 0x609D4, size: 0x8, addend: 0x0, symName: '__ZNSt3__116forward_as_tupleB8ue170006IJRKNS_9allocatorIZ10test_basicvE3$_0EEEEENS_5tupleIJDpOT_EEES9_', symObjAddr: 0x9BD8, symBinAddr: 0x10001A028, symSize: 0x2C }
  - { offsetInCU: 0x40E20, offset: 0x60A22, size: 0x8, addend: 0x0, symName: '__ZNSt3__13getB8ue170006ILm0EJRKNS_9allocatorIZ10test_basicvE3$_0EEEEERNS_13tuple_elementIXT_ENS_5tupleIJDpT0_EEEE4typeERSA_', symObjAddr: 0x9DBC, symBinAddr: 0x10001A20C, symSize: 0x24 }
  - { offsetInCU: 0x41298, offset: 0x60E9A, size: 0x8, addend: 0x0, symName: '__ZNSt3__18__invokeB8ue170006IRZ10test_basicvE3$_0JEEEDTclclsr3stdE7declvalIT_EEspclsr3stdE7declvalIT0_EEEEOS3_DpOS4_', symObjAddr: 0x9E78, symBinAddr: 0x10001A2C8, symSize: 0x24 }
  - { offsetInCU: 0x412D0, offset: 0x60ED2, size: 0x8, addend: 0x0, symName: __ZNSt3__130__uninitialized_allocator_copyB8ue170006INS_9allocatorIiEEPKiS4_PiEET2_RT_T0_T1_S6_, symObjAddr: 0xA2D0, symBinAddr: 0x10001A638, symSize: 0x80 }
  - { offsetInCU: 0x4136F, offset: 0x60F71, size: 0x8, addend: 0x0, symName: __ZNSt3__114__unwrap_rangeB8ue170006IPKiS2_EENS_4pairIT0_S4_EET_S6_, symObjAddr: 0xA350, symBinAddr: 0x10001A6B8, symSize: 0x60 }
  - { offsetInCU: 0x413BB, offset: 0x60FBD, size: 0x8, addend: 0x0, symName: __ZNSt3__135__uninitialized_allocator_copy_implB8ue170006INS_9allocatorIiEEKiiiLPv0EEEPT2_RT_PT0_SA_S6_, symObjAddr: 0xA3B0, symBinAddr: 0x10001A718, symSize: 0x38 }
  - { offsetInCU: 0x4143D, offset: 0x6103F, size: 0x8, addend: 0x0, symName: __ZNSt3__113__unwrap_iterB8ue170006IPiNS_18__unwrap_iter_implIS1_Lb1EEELi0EEEDTclsrT0_8__unwrapclsr3stdE7declvalIT_EEEES5_, symObjAddr: 0xA3E8, symBinAddr: 0x10001A750, symSize: 0x24 }
  - { offsetInCU: 0x41481, offset: 0x61083, size: 0x8, addend: 0x0, symName: __ZNSt3__113__rewrap_iterB8ue170006IPiS1_NS_18__unwrap_iter_implIS1_Lb1EEEEET_S4_T0_, symObjAddr: 0xA40C, symBinAddr: 0x10001A774, symSize: 0x3C }
  - { offsetInCU: 0x414D6, offset: 0x610D8, size: 0x8, addend: 0x0, symName: __ZNSt3__19make_pairB8ue170006IPKiS2_EENS_4pairINS_18__unwrap_ref_decayIT_E4typeENS4_IT0_E4typeEEEOS5_OS8_, symObjAddr: 0xA448, symBinAddr: 0x10001A7B0, symSize: 0x38 }
  - { offsetInCU: 0x41525, offset: 0x61127, size: 0x8, addend: 0x0, symName: __ZNSt3__113__unwrap_iterB8ue170006IPKiNS_18__unwrap_iter_implIS2_Lb1EEELi0EEEDTclsrT0_8__unwrapclsr3stdE7declvalIT_EEEES6_, symObjAddr: 0xA480, symBinAddr: 0x10001A7E8, symSize: 0x24 }
  - { offsetInCU: 0x41690, offset: 0x61292, size: 0x8, addend: 0x0, symName: __ZNSt3__112__to_addressB8ue170006IKiEEPT_S3_, symObjAddr: 0xA538, symBinAddr: 0x10001A8A0, symSize: 0x14 }
  - { offsetInCU: 0x416C5, offset: 0x612C7, size: 0x8, addend: 0x0, symName: __ZNSt3__14copyB8ue170006IPKiPiEET0_T_S5_S4_, symObjAddr: 0xA54C, symBinAddr: 0x10001A8B4, symSize: 0x40 }
  - { offsetInCU: 0x4171F, offset: 0x61321, size: 0x8, addend: 0x0, symName: __ZNSt3__16__copyB8ue170006INS_17_ClassicAlgPolicyEPKiS3_PiEENS_4pairIT0_T2_EES6_T1_S7_, symObjAddr: 0xA58C, symBinAddr: 0x10001A8F4, symSize: 0x44 }
  - { offsetInCU: 0x4178B, offset: 0x6138D, size: 0x8, addend: 0x0, symName: __ZNSt3__123__dispatch_copy_or_moveB8ue170006INS_17_ClassicAlgPolicyENS_11__copy_loopIS1_EENS_14__copy_trivialEPKiS6_PiEENS_4pairIT2_T4_EES9_T3_SA_, symObjAddr: 0xA5D0, symBinAddr: 0x10001A938, symSize: 0x44 }
  - { offsetInCU: 0x41809, offset: 0x6140B, size: 0x8, addend: 0x0, symName: __ZNSt3__121__unwrap_and_dispatchB8ue170006INS_10__overloadINS_11__copy_loopINS_17_ClassicAlgPolicyEEENS_14__copy_trivialEEEPKiS8_PiLi0EEENS_4pairIT0_T2_EESB_T1_SC_, symObjAddr: 0xA614, symBinAddr: 0x10001A97C, symSize: 0xB4 }
  - { offsetInCU: 0x419E0, offset: 0x615E2, size: 0x8, addend: 0x0, symName: __ZNSt3__19make_pairB8ue170006IPKiPiEENS_4pairINS_18__unwrap_ref_decayIT_E4typeENS5_IT0_E4typeEEEOS6_OS9_, symObjAddr: 0xA710, symBinAddr: 0x10001AA78, symSize: 0x38 }
  - { offsetInCU: 0x41A2F, offset: 0x61631, size: 0x8, addend: 0x0, symName: __ZNSt3__114__rewrap_rangeB8ue170006IPKiS2_EET_S3_T0_, symObjAddr: 0xA748, symBinAddr: 0x10001AAB0, symSize: 0x2C }
  - { offsetInCU: 0x41A7B, offset: 0x6167D, size: 0x8, addend: 0x0, symName: __ZNSt3__119__copy_trivial_implB8ue170006IKiiEENS_4pairIPT_PT0_EES4_S4_S6_, symObjAddr: 0xA774, symBinAddr: 0x10001AADC, symSize: 0x80 }
  - { offsetInCU: 0x41AE3, offset: 0x616E5, size: 0x8, addend: 0x0, symName: __ZNSt3__119__constexpr_memmoveB8ue170006IiKiLi0EEEPT_S3_PT0_NS_15__element_countE, symObjAddr: 0xA7F4, symBinAddr: 0x10001AB5C, symSize: 0x64 }
  - { offsetInCU: 0x41B51, offset: 0x61753, size: 0x8, addend: 0x0, symName: __ZNSt3__19make_pairB8ue170006IRPKiPiEENS_4pairINS_18__unwrap_ref_decayIT_E4typeENS6_IT0_E4typeEEEOS7_OSA_, symObjAddr: 0xA858, symBinAddr: 0x10001ABC0, symSize: 0x38 }
  - { offsetInCU: 0x41BA0, offset: 0x617A2, size: 0x8, addend: 0x0, symName: __ZNSt3__113__rewrap_iterB8ue170006IPKiS2_NS_18__unwrap_iter_implIS2_Lb1EEEEET_S5_T0_, symObjAddr: 0xA970, symBinAddr: 0x10001ACD8, symSize: 0x3C }
  - { offsetInCU: 0x41C48, offset: 0x6184A, size: 0x8, addend: 0x0, symName: __ZNSt3__15equalB8ue170006INS_11__wrap_iterIPKiEES4_EEbT_S5_T0_, symObjAddr: 0xAA70, symBinAddr: 0x10001ADD8, symSize: 0x50 }
  - { offsetInCU: 0x41CA2, offset: 0x618A4, size: 0x8, addend: 0x0, symName: __ZNSt3__15equalB8ue170006INS_11__wrap_iterIPKiEES4_NS_10__equal_toEEEbT_S6_T0_T1_, symObjAddr: 0xAB20, symBinAddr: 0x10001AE88, symSize: 0x74 }
  - { offsetInCU: 0x41D13, offset: 0x61915, size: 0x8, addend: 0x0, symName: __ZNSt3__117__equal_iter_implB8ue170006IKiS1_NS_10__equal_toELi0EEEbPT_S4_PT0_RT1_, symObjAddr: 0xAB94, symBinAddr: 0x10001AEFC, symSize: 0x4C }
  - { offsetInCU: 0x41D87, offset: 0x61989, size: 0x8, addend: 0x0, symName: __ZNSt3__113__unwrap_iterB8ue170006INS_11__wrap_iterIPKiEENS_18__unwrap_iter_implIS4_Lb1EEELi0EEEDTclsrT0_8__unwrapclsr3stdE7declvalIT_EEEES8_, symObjAddr: 0xABE0, symBinAddr: 0x10001AF48, symSize: 0x2C }
  - { offsetInCU: 0x41DCB, offset: 0x619CD, size: 0x8, addend: 0x0, symName: __ZNSt3__124__constexpr_memcmp_equalB8ue170006IiiEEbPKT_PKT0_NS_15__element_countE, symObjAddr: 0xAC0C, symBinAddr: 0x10001AF74, symSize: 0x4C }
  - { offsetInCU: 0x41E86, offset: 0x61A88, size: 0x8, addend: 0x0, symName: __ZNSt3__112__to_addressB8ue170006INS_11__wrap_iterIPKiEEvEEu7__decayIDTclsr19__to_address_helperIT_EE6__callclsr3stdE7declvalIRKS5_EEEEES7_, symObjAddr: 0xAC80, symBinAddr: 0x10001AFE8, symSize: 0x24 }
  - { offsetInCU: 0x41F62, offset: 0x61B64, size: 0x8, addend: 0x0, symName: __ZNSt3__116__pad_and_outputB8ue170006IcNS_11char_traitsIcEEEENS_19ostreambuf_iteratorIT_T0_EES6_PKS4_S8_S8_RNS_8ios_baseES4_, symObjAddr: 0xB264, symBinAddr: 0x10001B5CC, symSize: 0x240 }
  - { offsetInCU: 0x42036, offset: 0x61C38, size: 0x8, addend: 0x0, symName: __ZNSt3__112__to_addressB8ue170006IKcEEPT_S3_, symObjAddr: 0xB7CC, symBinAddr: 0x10001BB34, symSize: 0x14 }
  - { offsetInCU: 0x4209E, offset: 0x61CA0, size: 0x8, addend: 0x0, symName: __ZNSt3__19use_facetB8ue170006INS_5ctypeIcEEEERKT_RKNS_6localeE, symObjAddr: 0xBA44, symBinAddr: 0x10001BDAC, symSize: 0x2C }
  - { offsetInCU: 0x4256C, offset: 0x6216E, size: 0x8, addend: 0x0, symName: __ZNSt3__118__constexpr_strlenB8ue170006EPKc, symObjAddr: 0xBADC, symBinAddr: 0x10001BE44, symSize: 0x24 }
  - { offsetInCU: 0x42BE0, offset: 0x627E2, size: 0x8, addend: 0x0, symName: '__ZNSt3__116forward_as_tupleB8ue170006IJZ21test_serial_executionvE3$_1EEENS_5tupleIJDpOT_EEES5_', symObjAddr: 0xC4F4, symBinAddr: 0x10001C85C, symSize: 0x2C }
  - { offsetInCU: 0x42C19, offset: 0x6281B, size: 0x8, addend: 0x0, symName: '__ZNSt3__116forward_as_tupleB8ue170006IJNS_9allocatorIZ21test_serial_executionvE3$_1EEEEENS_5tupleIJDpOT_EEES7_', symObjAddr: 0xC520, symBinAddr: 0x10001C888, symSize: 0x2C }
  - { offsetInCU: 0x42C7C, offset: 0x6287E, size: 0x8, addend: 0x0, symName: '__ZNSt3__13getB8ue170006ILm0EJOZ21test_serial_executionvE3$_1EEERNS_13tuple_elementIXT_ENS_5tupleIJDpT0_EEEE4typeERS7_', symObjAddr: 0xC840, symBinAddr: 0x10001CBA8, symSize: 0x24 }
  - { offsetInCU: 0x42CBF, offset: 0x628C1, size: 0x8, addend: 0x0, symName: '__ZNSt3__13getB8ue170006ILm0EJONS_9allocatorIZ21test_serial_executionvE3$_1EEEEERNS_13tuple_elementIXT_ENS_5tupleIJDpT0_EEEE4typeERS9_', symObjAddr: 0xC87C, symBinAddr: 0x10001CBE4, symSize: 0x24 }
  - { offsetInCU: 0x42E8E, offset: 0x62A90, size: 0x8, addend: 0x0, symName: '__ZNSt3__116forward_as_tupleB8ue170006IJRKZ21test_serial_executionvE3$_1EEENS_5tupleIJDpOT_EEES7_', symObjAddr: 0xCC78, symBinAddr: 0x10001CFE0, symSize: 0x2C }
  - { offsetInCU: 0x42EDC, offset: 0x62ADE, size: 0x8, addend: 0x0, symName: '__ZNSt3__13getB8ue170006ILm0EJRKZ21test_serial_executionvE3$_1EEERNS_13tuple_elementIXT_ENS_5tupleIJDpT0_EEEE4typeERS8_', symObjAddr: 0xCE70, symBinAddr: 0x10001D1D8, symSize: 0x24 }
  - { offsetInCU: 0x42F1F, offset: 0x62B21, size: 0x8, addend: 0x0, symName: '__ZNSt3__116forward_as_tupleB8ue170006IJRKNS_9allocatorIZ21test_serial_executionvE3$_1EEEEENS_5tupleIJDpOT_EEES9_', symObjAddr: 0xD1CC, symBinAddr: 0x10001D534, symSize: 0x2C }
  - { offsetInCU: 0x42F6D, offset: 0x62B6F, size: 0x8, addend: 0x0, symName: '__ZNSt3__13getB8ue170006ILm0EJRKNS_9allocatorIZ21test_serial_executionvE3$_1EEEEERNS_13tuple_elementIXT_ENS_5tupleIJDpT0_EEEE4typeERSA_', symObjAddr: 0xD3B0, symBinAddr: 0x10001D718, symSize: 0x24 }
  - { offsetInCU: 0x42FB0, offset: 0x62BB2, size: 0x8, addend: 0x0, symName: '__ZNSt3__18__invokeB8ue170006IRZ21test_serial_executionvE3$_1JEEEDTclclsr3stdE7declvalIT_EEspclsr3stdE7declvalIT0_EEEEOS3_DpOS4_', symObjAddr: 0xD46C, symBinAddr: 0x10001D7D4, symSize: 0x24 }
  - { offsetInCU: 0x43625, offset: 0x63227, size: 0x8, addend: 0x0, symName: '__ZNSt3__116forward_as_tupleB8ue170006IJZ23test_fifo_single_threadvE3$_2EEENS_5tupleIJDpOT_EEES5_', symObjAddr: 0xE0C4, symBinAddr: 0x10001E42C, symSize: 0x2C }
  - { offsetInCU: 0x4365E, offset: 0x63260, size: 0x8, addend: 0x0, symName: '__ZNSt3__116forward_as_tupleB8ue170006IJNS_9allocatorIZ23test_fifo_single_threadvE3$_2EEEEENS_5tupleIJDpOT_EEES7_', symObjAddr: 0xE0F0, symBinAddr: 0x10001E458, symSize: 0x2C }
  - { offsetInCU: 0x436C1, offset: 0x632C3, size: 0x8, addend: 0x0, symName: '__ZNSt3__13getB8ue170006ILm0EJOZ23test_fifo_single_threadvE3$_2EEERNS_13tuple_elementIXT_ENS_5tupleIJDpT0_EEEE4typeERS7_', symObjAddr: 0xE410, symBinAddr: 0x10001E778, symSize: 0x24 }
  - { offsetInCU: 0x43704, offset: 0x63306, size: 0x8, addend: 0x0, symName: '__ZNSt3__13getB8ue170006ILm0EJONS_9allocatorIZ23test_fifo_single_threadvE3$_2EEEEERNS_13tuple_elementIXT_ENS_5tupleIJDpT0_EEEE4typeERS9_', symObjAddr: 0xE44C, symBinAddr: 0x10001E7B4, symSize: 0x24 }
  - { offsetInCU: 0x438D3, offset: 0x634D5, size: 0x8, addend: 0x0, symName: '__ZNSt3__116forward_as_tupleB8ue170006IJRKZ23test_fifo_single_threadvE3$_2EEENS_5tupleIJDpOT_EEES7_', symObjAddr: 0xE848, symBinAddr: 0x10001EBB0, symSize: 0x2C }
  - { offsetInCU: 0x43921, offset: 0x63523, size: 0x8, addend: 0x0, symName: '__ZNSt3__13getB8ue170006ILm0EJRKZ23test_fifo_single_threadvE3$_2EEERNS_13tuple_elementIXT_ENS_5tupleIJDpT0_EEEE4typeERS8_', symObjAddr: 0xEA40, symBinAddr: 0x10001EDA8, symSize: 0x24 }
  - { offsetInCU: 0x43964, offset: 0x63566, size: 0x8, addend: 0x0, symName: '__ZNSt3__116forward_as_tupleB8ue170006IJRKNS_9allocatorIZ23test_fifo_single_threadvE3$_2EEEEENS_5tupleIJDpOT_EEES9_', symObjAddr: 0xED9C, symBinAddr: 0x10001F104, symSize: 0x2C }
  - { offsetInCU: 0x439B2, offset: 0x635B4, size: 0x8, addend: 0x0, symName: '__ZNSt3__13getB8ue170006ILm0EJRKNS_9allocatorIZ23test_fifo_single_threadvE3$_2EEEEERNS_13tuple_elementIXT_ENS_5tupleIJDpT0_EEEE4typeERSA_', symObjAddr: 0xEF80, symBinAddr: 0x10001F2E8, symSize: 0x24 }
  - { offsetInCU: 0x439F5, offset: 0x635F7, size: 0x8, addend: 0x0, symName: '__ZNSt3__18__invokeB8ue170006IRZ23test_fifo_single_threadvE3$_2JEEEDTclclsr3stdE7declvalIT_EEspclsr3stdE7declvalIT0_EEEEOS3_DpOS4_', symObjAddr: 0xF03C, symBinAddr: 0x10001F3A4, symSize: 0x24 }
  - { offsetInCU: 0x43A2D, offset: 0x6362F, size: 0x8, addend: 0x0, symName: __ZNSt3__142__uninitialized_allocator_move_if_noexceptB8ue170006INS_9allocatorIiEENS_16reverse_iteratorIPiEES5_ivEET1_RT_T0_S9_S6_, symObjAddr: 0xF77C, symBinAddr: 0x10001FA64, symSize: 0x78 }
  - { offsetInCU: 0x43AAB, offset: 0x636AD, size: 0x8, addend: 0x0, symName: __ZNSt3__14swapB8ue170006IPiEENS_9enable_ifIXaasr21is_move_constructibleIT_EE5valuesr18is_move_assignableIS3_EE5valueEvE4typeERS3_S6_, symObjAddr: 0xF840, symBinAddr: 0x10001FB28, symSize: 0x3C }
  - { offsetInCU: 0x43AFC, offset: 0x636FE, size: 0x8, addend: 0x0, symName: __ZNSt3__14moveB8ue170006INS_16reverse_iteratorIPiEES3_EET0_T_S5_S4_, symObjAddr: 0xF87C, symBinAddr: 0x10001FB64, symSize: 0x78 }
  - { offsetInCU: 0x43B56, offset: 0x63758, size: 0x8, addend: 0x0, symName: __ZNSt3__16__moveB8ue170006INS_17_ClassicAlgPolicyENS_16reverse_iteratorIPiEES4_S4_EENS_4pairIT0_T2_EES6_T1_S7_, symObjAddr: 0xF8F4, symBinAddr: 0x10001FBDC, symSize: 0x64 }
  - { offsetInCU: 0x43BC2, offset: 0x637C4, size: 0x8, addend: 0x0, symName: __ZNSt3__123__dispatch_copy_or_moveB8ue170006INS_17_ClassicAlgPolicyENS_11__move_loopIS1_EENS_14__move_trivialENS_16reverse_iteratorIPiEES7_S7_EENS_4pairIT2_T4_EES9_T3_SA_, symObjAddr: 0xF958, symBinAddr: 0x10001FC40, symSize: 0x64 }
  - { offsetInCU: 0x43C40, offset: 0x63842, size: 0x8, addend: 0x0, symName: __ZNSt3__121__unwrap_and_dispatchB8ue170006INS_10__overloadINS_11__move_loopINS_17_ClassicAlgPolicyEEENS_14__move_trivialEEENS_16reverse_iteratorIPiEES9_S9_Li0EEENS_4pairIT0_T2_EESB_T1_SC_, symObjAddr: 0xF9BC, symBinAddr: 0x10001FCA4, symSize: 0x12C }
  - { offsetInCU: 0x43CD0, offset: 0x638D2, size: 0x8, addend: 0x0, symName: __ZNSt3__114__unwrap_rangeB8ue170006INS_16reverse_iteratorIPiEES3_EENS_4pairIT0_S5_EET_S7_, symObjAddr: 0xFAE8, symBinAddr: 0x10001FDD0, symSize: 0x84 }
  - { offsetInCU: 0x43E42, offset: 0x63A44, size: 0x8, addend: 0x0, symName: __ZNSt3__113__unwrap_iterB8ue170006INS_16reverse_iteratorIPiEENS_18__unwrap_iter_implIS3_Lb0EEELi0EEEDTclsrT0_8__unwrapclsr3stdE7declvalIT_EEEES7_, symObjAddr: 0xFC0C, symBinAddr: 0x10001FEF4, symSize: 0x44 }
  - { offsetInCU: 0x43E86, offset: 0x63A88, size: 0x8, addend: 0x0, symName: __ZNSt3__19make_pairB8ue170006INS_16reverse_iteratorIPiEES3_EENS_4pairINS_18__unwrap_ref_decayIT_E4typeENS5_IT0_E4typeEEEOS6_OS9_, symObjAddr: 0xFC50, symBinAddr: 0x10001FF38, symSize: 0x38 }
  - { offsetInCU: 0x43ED5, offset: 0x63AD7, size: 0x8, addend: 0x0, symName: __ZNSt3__114__rewrap_rangeB8ue170006INS_16reverse_iteratorIPiEES3_EET_S4_T0_, symObjAddr: 0xFC88, symBinAddr: 0x10001FF70, symSize: 0x5C }
  - { offsetInCU: 0x43F21, offset: 0x63B23, size: 0x8, addend: 0x0, symName: __ZNSt3__113__rewrap_iterB8ue170006INS_16reverse_iteratorIPiEES3_NS_18__unwrap_iter_implIS3_Lb0EEEEET_S6_T0_, symObjAddr: 0xFCE4, symBinAddr: 0x10001FFCC, symSize: 0x74 }
  - { offsetInCU: 0x43F76, offset: 0x63B78, size: 0x8, addend: 0x0, symName: __ZNSt3__1neB8ue170006IPiS1_EEbRKNS_16reverse_iteratorIT_EERKNS2_IT0_EE, symObjAddr: 0xFD58, symBinAddr: 0x100020040, symSize: 0x48 }
  - { offsetInCU: 0x441D8, offset: 0x63DDA, size: 0x8, addend: 0x0, symName: '__ZNSt3__116forward_as_tupleB8ue170006IJZ22test_concurrent_stressvE3$_3EEENS_5tupleIJDpOT_EEES5_', symObjAddr: 0x1088C, symBinAddr: 0x100020B74, symSize: 0x2C }
  - { offsetInCU: 0x44211, offset: 0x63E13, size: 0x8, addend: 0x0, symName: '__ZNSt3__116forward_as_tupleB8ue170006IJNS_9allocatorIZ22test_concurrent_stressvE3$_3EEEEENS_5tupleIJDpOT_EEES7_', symObjAddr: 0x108B8, symBinAddr: 0x100020BA0, symSize: 0x2C }
  - { offsetInCU: 0x44274, offset: 0x63E76, size: 0x8, addend: 0x0, symName: '__ZNSt3__13getB8ue170006ILm0EJOZ22test_concurrent_stressvE3$_3EEERNS_13tuple_elementIXT_ENS_5tupleIJDpT0_EEEE4typeERS7_', symObjAddr: 0x10BD0, symBinAddr: 0x100020EB8, symSize: 0x24 }
  - { offsetInCU: 0x442B7, offset: 0x63EB9, size: 0x8, addend: 0x0, symName: '__ZNSt3__13getB8ue170006ILm0EJONS_9allocatorIZ22test_concurrent_stressvE3$_3EEEEERNS_13tuple_elementIXT_ENS_5tupleIJDpT0_EEEE4typeERS9_', symObjAddr: 0x10C0C, symBinAddr: 0x100020EF4, symSize: 0x24 }
  - { offsetInCU: 0x447DE, offset: 0x643E0, size: 0x8, addend: 0x0, symName: '__ZNSt3__116forward_as_tupleB8ue170006IJRKZ22test_concurrent_stressvE3$_3EEENS_5tupleIJDpOT_EEES7_', symObjAddr: 0x111A8, symBinAddr: 0x100021490, symSize: 0x2C }
  - { offsetInCU: 0x4482C, offset: 0x6442E, size: 0x8, addend: 0x0, symName: '__ZNSt3__13getB8ue170006ILm0EJRKZ22test_concurrent_stressvE3$_3EEERNS_13tuple_elementIXT_ENS_5tupleIJDpT0_EEEE4typeERS8_', symObjAddr: 0x11398, symBinAddr: 0x100021680, symSize: 0x24 }
  - { offsetInCU: 0x4486F, offset: 0x64471, size: 0x8, addend: 0x0, symName: '__ZNSt3__116forward_as_tupleB8ue170006IJRKNS_9allocatorIZ22test_concurrent_stressvE3$_3EEEEENS_5tupleIJDpOT_EEES9_', symObjAddr: 0x116F8, symBinAddr: 0x1000219E0, symSize: 0x2C }
  - { offsetInCU: 0x448BD, offset: 0x644BF, size: 0x8, addend: 0x0, symName: '__ZNSt3__13getB8ue170006ILm0EJRKNS_9allocatorIZ22test_concurrent_stressvE3$_3EEEEERNS_13tuple_elementIXT_ENS_5tupleIJDpT0_EEEE4typeERSA_', symObjAddr: 0x118DC, symBinAddr: 0x100021BC4, symSize: 0x24 }
  - { offsetInCU: 0x44900, offset: 0x64502, size: 0x8, addend: 0x0, symName: '__ZNSt3__18__invokeB8ue170006IRZ22test_concurrent_stressvE3$_3JEEEDTclclsr3stdE7declvalIT_EEspclsr3stdE7declvalIT0_EEEEOS3_DpOS4_', symObjAddr: 0x11998, symBinAddr: 0x100021C80, symSize: 0x24 }
  - { offsetInCU: 0x44A9C, offset: 0x6469E, size: 0x8, addend: 0x0, symName: '__ZNSt3__116forward_as_tupleB8ue170006IJZ15test_reuse_poolvE3$_4EEENS_5tupleIJDpOT_EEES5_', symObjAddr: 0x1216C, symBinAddr: 0x100022454, symSize: 0x2C }
  - { offsetInCU: 0x44AD5, offset: 0x646D7, size: 0x8, addend: 0x0, symName: '__ZNSt3__116forward_as_tupleB8ue170006IJNS_9allocatorIZ15test_reuse_poolvE3$_4EEEEENS_5tupleIJDpOT_EEES7_', symObjAddr: 0x12198, symBinAddr: 0x100022480, symSize: 0x2C }
  - { offsetInCU: 0x44B38, offset: 0x6473A, size: 0x8, addend: 0x0, symName: '__ZNSt3__13getB8ue170006ILm0EJOZ15test_reuse_poolvE3$_4EEERNS_13tuple_elementIXT_ENS_5tupleIJDpT0_EEEE4typeERS7_', symObjAddr: 0x124B0, symBinAddr: 0x100022798, symSize: 0x24 }
  - { offsetInCU: 0x44B7B, offset: 0x6477D, size: 0x8, addend: 0x0, symName: '__ZNSt3__13getB8ue170006ILm0EJONS_9allocatorIZ15test_reuse_poolvE3$_4EEEEERNS_13tuple_elementIXT_ENS_5tupleIJDpT0_EEEE4typeERS9_', symObjAddr: 0x124EC, symBinAddr: 0x1000227D4, symSize: 0x24 }
  - { offsetInCU: 0x450A2, offset: 0x64CA4, size: 0x8, addend: 0x0, symName: '__ZNSt3__116forward_as_tupleB8ue170006IJRKZ15test_reuse_poolvE3$_4EEENS_5tupleIJDpOT_EEES7_', symObjAddr: 0x12A80, symBinAddr: 0x100022D68, symSize: 0x2C }
  - { offsetInCU: 0x450F0, offset: 0x64CF2, size: 0x8, addend: 0x0, symName: '__ZNSt3__13getB8ue170006ILm0EJRKZ15test_reuse_poolvE3$_4EEERNS_13tuple_elementIXT_ENS_5tupleIJDpT0_EEEE4typeERS8_', symObjAddr: 0x12C70, symBinAddr: 0x100022F58, symSize: 0x24 }
  - { offsetInCU: 0x45133, offset: 0x64D35, size: 0x8, addend: 0x0, symName: '__ZNSt3__116forward_as_tupleB8ue170006IJRKNS_9allocatorIZ15test_reuse_poolvE3$_4EEEEENS_5tupleIJDpOT_EEES9_', symObjAddr: 0x12FCC, symBinAddr: 0x1000232B4, symSize: 0x2C }
  - { offsetInCU: 0x45181, offset: 0x64D83, size: 0x8, addend: 0x0, symName: '__ZNSt3__13getB8ue170006ILm0EJRKNS_9allocatorIZ15test_reuse_poolvE3$_4EEEEERNS_13tuple_elementIXT_ENS_5tupleIJDpT0_EEEE4typeERSA_', symObjAddr: 0x131B0, symBinAddr: 0x100023498, symSize: 0x24 }
  - { offsetInCU: 0x451C4, offset: 0x64DC6, size: 0x8, addend: 0x0, symName: '__ZNSt3__18__invokeB8ue170006IRZ15test_reuse_poolvE3$_4JEEEDTclclsr3stdE7declvalIT_EEspclsr3stdE7declvalIT0_EEEEOS3_DpOS4_', symObjAddr: 0x1326C, symBinAddr: 0x100023554, symSize: 0x24 }
  - { offsetInCU: 0x45360, offset: 0x64F62, size: 0x8, addend: 0x0, symName: '__ZNSt3__116forward_as_tupleB8ue170006IJZ15test_reuse_poolvE3$_5EEENS_5tupleIJDpOT_EEES5_', symObjAddr: 0x139A8, symBinAddr: 0x100023C90, symSize: 0x2C }
  - { offsetInCU: 0x45399, offset: 0x64F9B, size: 0x8, addend: 0x0, symName: '__ZNSt3__116forward_as_tupleB8ue170006IJNS_9allocatorIZ15test_reuse_poolvE3$_5EEEEENS_5tupleIJDpOT_EEES7_', symObjAddr: 0x139D4, symBinAddr: 0x100023CBC, symSize: 0x2C }
  - { offsetInCU: 0x453FC, offset: 0x64FFE, size: 0x8, addend: 0x0, symName: '__ZNSt3__13getB8ue170006ILm0EJOZ15test_reuse_poolvE3$_5EEERNS_13tuple_elementIXT_ENS_5tupleIJDpT0_EEEE4typeERS7_', symObjAddr: 0x13CEC, symBinAddr: 0x100023FD4, symSize: 0x24 }
  - { offsetInCU: 0x4543F, offset: 0x65041, size: 0x8, addend: 0x0, symName: '__ZNSt3__13getB8ue170006ILm0EJONS_9allocatorIZ15test_reuse_poolvE3$_5EEEEERNS_13tuple_elementIXT_ENS_5tupleIJDpT0_EEEE4typeERS9_', symObjAddr: 0x13D28, symBinAddr: 0x100024010, symSize: 0x24 }
  - { offsetInCU: 0x45966, offset: 0x65568, size: 0x8, addend: 0x0, symName: '__ZNSt3__116forward_as_tupleB8ue170006IJRKZ15test_reuse_poolvE3$_5EEENS_5tupleIJDpOT_EEES7_', symObjAddr: 0x142BC, symBinAddr: 0x1000245A4, symSize: 0x2C }
  - { offsetInCU: 0x459B4, offset: 0x655B6, size: 0x8, addend: 0x0, symName: '__ZNSt3__13getB8ue170006ILm0EJRKZ15test_reuse_poolvE3$_5EEERNS_13tuple_elementIXT_ENS_5tupleIJDpT0_EEEE4typeERS8_', symObjAddr: 0x144AC, symBinAddr: 0x100024794, symSize: 0x24 }
  - { offsetInCU: 0x459F7, offset: 0x655F9, size: 0x8, addend: 0x0, symName: '__ZNSt3__116forward_as_tupleB8ue170006IJRKNS_9allocatorIZ15test_reuse_poolvE3$_5EEEEENS_5tupleIJDpOT_EEES9_', symObjAddr: 0x14808, symBinAddr: 0x100024AF0, symSize: 0x2C }
  - { offsetInCU: 0x45A45, offset: 0x65647, size: 0x8, addend: 0x0, symName: '__ZNSt3__13getB8ue170006ILm0EJRKNS_9allocatorIZ15test_reuse_poolvE3$_5EEEEERNS_13tuple_elementIXT_ENS_5tupleIJDpT0_EEEE4typeERSA_', symObjAddr: 0x149EC, symBinAddr: 0x100024CD4, symSize: 0x24 }
  - { offsetInCU: 0x45A88, offset: 0x6568A, size: 0x8, addend: 0x0, symName: '__ZNSt3__18__invokeB8ue170006IRZ15test_reuse_poolvE3$_5JEEEDTclclsr3stdE7declvalIT_EEspclsr3stdE7declvalIT0_EEEEOS3_DpOS4_', symObjAddr: 0x14AA8, symBinAddr: 0x100024D90, symSize: 0x24 }
  - { offsetInCU: 0x45C24, offset: 0x65826, size: 0x8, addend: 0x0, symName: '__ZNSt3__116forward_as_tupleB8ue170006IJZ24test_multiple_wait_callsvE3$_6EEENS_5tupleIJDpOT_EEES5_', symObjAddr: 0x151E4, symBinAddr: 0x1000254CC, symSize: 0x2C }
  - { offsetInCU: 0x45C5D, offset: 0x6585F, size: 0x8, addend: 0x0, symName: '__ZNSt3__116forward_as_tupleB8ue170006IJNS_9allocatorIZ24test_multiple_wait_callsvE3$_6EEEEENS_5tupleIJDpOT_EEES7_', symObjAddr: 0x15210, symBinAddr: 0x1000254F8, symSize: 0x2C }
  - { offsetInCU: 0x45CC0, offset: 0x658C2, size: 0x8, addend: 0x0, symName: '__ZNSt3__13getB8ue170006ILm0EJOZ24test_multiple_wait_callsvE3$_6EEERNS_13tuple_elementIXT_ENS_5tupleIJDpT0_EEEE4typeERS7_', symObjAddr: 0x15528, symBinAddr: 0x100025810, symSize: 0x24 }
  - { offsetInCU: 0x45D03, offset: 0x65905, size: 0x8, addend: 0x0, symName: '__ZNSt3__13getB8ue170006ILm0EJONS_9allocatorIZ24test_multiple_wait_callsvE3$_6EEEEERNS_13tuple_elementIXT_ENS_5tupleIJDpT0_EEEE4typeERS9_', symObjAddr: 0x15564, symBinAddr: 0x10002584C, symSize: 0x24 }
  - { offsetInCU: 0x4622A, offset: 0x65E2C, size: 0x8, addend: 0x0, symName: '__ZNSt3__116forward_as_tupleB8ue170006IJRKZ24test_multiple_wait_callsvE3$_6EEENS_5tupleIJDpOT_EEES7_', symObjAddr: 0x15AF8, symBinAddr: 0x100025DE0, symSize: 0x2C }
  - { offsetInCU: 0x46278, offset: 0x65E7A, size: 0x8, addend: 0x0, symName: '__ZNSt3__13getB8ue170006ILm0EJRKZ24test_multiple_wait_callsvE3$_6EEERNS_13tuple_elementIXT_ENS_5tupleIJDpT0_EEEE4typeERS8_', symObjAddr: 0x15CE8, symBinAddr: 0x100025FD0, symSize: 0x24 }
  - { offsetInCU: 0x462BB, offset: 0x65EBD, size: 0x8, addend: 0x0, symName: '__ZNSt3__116forward_as_tupleB8ue170006IJRKNS_9allocatorIZ24test_multiple_wait_callsvE3$_6EEEEENS_5tupleIJDpOT_EEES9_', symObjAddr: 0x16044, symBinAddr: 0x10002632C, symSize: 0x2C }
  - { offsetInCU: 0x46309, offset: 0x65F0B, size: 0x8, addend: 0x0, symName: '__ZNSt3__13getB8ue170006ILm0EJRKNS_9allocatorIZ24test_multiple_wait_callsvE3$_6EEEEERNS_13tuple_elementIXT_ENS_5tupleIJDpT0_EEEE4typeERSA_', symObjAddr: 0x16228, symBinAddr: 0x100026510, symSize: 0x24 }
  - { offsetInCU: 0x4634C, offset: 0x65F4E, size: 0x8, addend: 0x0, symName: '__ZNSt3__18__invokeB8ue170006IRZ24test_multiple_wait_callsvE3$_6JEEEDTclclsr3stdE7declvalIT_EEspclsr3stdE7declvalIT0_EEEEOS3_DpOS4_', symObjAddr: 0x162E4, symBinAddr: 0x1000265CC, symSize: 0x24 }
  - { offsetInCU: 0x46385, offset: 0x65F87, size: 0x8, addend: 0x0, symName: __ZNSt3__122__cxx_atomic_fetch_addB8ue170006IiEET_PNS_22__cxx_atomic_base_implIS1_EES1_NS_12memory_orderE, symObjAddr: 0x16398, symBinAddr: 0x100026680, symSize: 0xC4 }
  - { offsetInCU: 0x4653D, offset: 0x6613F, size: 0x8, addend: 0x0, symName: '__ZNSt3__116forward_as_tupleB8ue170006IJZ19test_massive_stressvE3$_7EEENS_5tupleIJDpOT_EEES5_', symObjAddr: 0x16C14, symBinAddr: 0x100026EFC, symSize: 0x2C }
  - { offsetInCU: 0x46576, offset: 0x66178, size: 0x8, addend: 0x0, symName: '__ZNSt3__116forward_as_tupleB8ue170006IJNS_9allocatorIZ19test_massive_stressvE3$_7EEEEENS_5tupleIJDpOT_EEES7_', symObjAddr: 0x16C40, symBinAddr: 0x100026F28, symSize: 0x2C }
  - { offsetInCU: 0x465D9, offset: 0x661DB, size: 0x8, addend: 0x0, symName: '__ZNSt3__13getB8ue170006ILm0EJOZ19test_massive_stressvE3$_7EEERNS_13tuple_elementIXT_ENS_5tupleIJDpT0_EEEE4typeERS7_', symObjAddr: 0x16F58, symBinAddr: 0x100027240, symSize: 0x24 }
  - { offsetInCU: 0x4661C, offset: 0x6621E, size: 0x8, addend: 0x0, symName: '__ZNSt3__13getB8ue170006ILm0EJONS_9allocatorIZ19test_massive_stressvE3$_7EEEEERNS_13tuple_elementIXT_ENS_5tupleIJDpT0_EEEE4typeERS9_', symObjAddr: 0x16F94, symBinAddr: 0x10002727C, symSize: 0x24 }
  - { offsetInCU: 0x46B43, offset: 0x66745, size: 0x8, addend: 0x0, symName: '__ZNSt3__116forward_as_tupleB8ue170006IJRKZ19test_massive_stressvE3$_7EEENS_5tupleIJDpOT_EEES7_', symObjAddr: 0x17528, symBinAddr: 0x100027810, symSize: 0x2C }
  - { offsetInCU: 0x46B91, offset: 0x66793, size: 0x8, addend: 0x0, symName: '__ZNSt3__13getB8ue170006ILm0EJRKZ19test_massive_stressvE3$_7EEERNS_13tuple_elementIXT_ENS_5tupleIJDpT0_EEEE4typeERS8_', symObjAddr: 0x17718, symBinAddr: 0x100027A00, symSize: 0x24 }
  - { offsetInCU: 0x46BD4, offset: 0x667D6, size: 0x8, addend: 0x0, symName: '__ZNSt3__116forward_as_tupleB8ue170006IJRKNS_9allocatorIZ19test_massive_stressvE3$_7EEEEENS_5tupleIJDpOT_EEES9_', symObjAddr: 0x17A74, symBinAddr: 0x100027D5C, symSize: 0x2C }
  - { offsetInCU: 0x46C22, offset: 0x66824, size: 0x8, addend: 0x0, symName: '__ZNSt3__13getB8ue170006ILm0EJRKNS_9allocatorIZ19test_massive_stressvE3$_7EEEEERNS_13tuple_elementIXT_ENS_5tupleIJDpT0_EEEE4typeERSA_', symObjAddr: 0x17C58, symBinAddr: 0x100027F40, symSize: 0x24 }
  - { offsetInCU: 0x46C65, offset: 0x66867, size: 0x8, addend: 0x0, symName: '__ZNSt3__18__invokeB8ue170006IRZ19test_massive_stressvE3$_7JEEEDTclclsr3stdE7declvalIT_EEspclsr3stdE7declvalIT0_EEEEOS3_DpOS4_', symObjAddr: 0x17D14, symBinAddr: 0x100027FFC, symSize: 0x24 }
  - { offsetInCU: 0x46E01, offset: 0x66A03, size: 0x8, addend: 0x0, symName: '__ZNSt3__116forward_as_tupleB8ue170006IJZ25test_long_tasks_then_quitvE3$_8EEENS_5tupleIJDpOT_EEES5_', symObjAddr: 0x18454, symBinAddr: 0x10002873C, symSize: 0x2C }
  - { offsetInCU: 0x46E3A, offset: 0x66A3C, size: 0x8, addend: 0x0, symName: '__ZNSt3__116forward_as_tupleB8ue170006IJNS_9allocatorIZ25test_long_tasks_then_quitvE3$_8EEEEENS_5tupleIJDpOT_EEES7_', symObjAddr: 0x18480, symBinAddr: 0x100028768, symSize: 0x2C }
  - { offsetInCU: 0x46E9D, offset: 0x66A9F, size: 0x8, addend: 0x0, symName: '__ZNSt3__13getB8ue170006ILm0EJOZ25test_long_tasks_then_quitvE3$_8EEERNS_13tuple_elementIXT_ENS_5tupleIJDpT0_EEEE4typeERS7_', symObjAddr: 0x1878C, symBinAddr: 0x100028A74, symSize: 0x24 }
  - { offsetInCU: 0x46EE0, offset: 0x66AE2, size: 0x8, addend: 0x0, symName: '__ZNSt3__13getB8ue170006ILm0EJONS_9allocatorIZ25test_long_tasks_then_quitvE3$_8EEEEERNS_13tuple_elementIXT_ENS_5tupleIJDpT0_EEEE4typeERS9_', symObjAddr: 0x187C8, symBinAddr: 0x100028AB0, symSize: 0x24 }
  - { offsetInCU: 0x47407, offset: 0x67009, size: 0x8, addend: 0x0, symName: '__ZNSt3__116forward_as_tupleB8ue170006IJRKZ25test_long_tasks_then_quitvE3$_8EEENS_5tupleIJDpOT_EEES7_', symObjAddr: 0x18D5C, symBinAddr: 0x100029044, symSize: 0x2C }
  - { offsetInCU: 0x47455, offset: 0x67057, size: 0x8, addend: 0x0, symName: '__ZNSt3__13getB8ue170006ILm0EJRKZ25test_long_tasks_then_quitvE3$_8EEERNS_13tuple_elementIXT_ENS_5tupleIJDpT0_EEEE4typeERS8_', symObjAddr: 0x18F40, symBinAddr: 0x100029228, symSize: 0x24 }
  - { offsetInCU: 0x47498, offset: 0x6709A, size: 0x8, addend: 0x0, symName: '__ZNSt3__116forward_as_tupleB8ue170006IJRKNS_9allocatorIZ25test_long_tasks_then_quitvE3$_8EEEEENS_5tupleIJDpOT_EEES9_', symObjAddr: 0x1929C, symBinAddr: 0x100029584, symSize: 0x2C }
  - { offsetInCU: 0x474E6, offset: 0x670E8, size: 0x8, addend: 0x0, symName: '__ZNSt3__13getB8ue170006ILm0EJRKNS_9allocatorIZ25test_long_tasks_then_quitvE3$_8EEEEERNS_13tuple_elementIXT_ENS_5tupleIJDpT0_EEEE4typeERSA_', symObjAddr: 0x19480, symBinAddr: 0x100029768, symSize: 0x24 }
  - { offsetInCU: 0x47529, offset: 0x6712B, size: 0x8, addend: 0x0, symName: '__ZNSt3__18__invokeB8ue170006IRZ25test_long_tasks_then_quitvE3$_8JEEEDTclclsr3stdE7declvalIT_EEspclsr3stdE7declvalIT0_EEEEOS3_DpOS4_', symObjAddr: 0x1953C, symBinAddr: 0x100029824, symSize: 0x24 }
  - { offsetInCU: 0x476C5, offset: 0x672C7, size: 0x8, addend: 0x0, symName: '__ZNSt3__116forward_as_tupleB8ue170006IJZ36test_many_short_tasks_on_few_threadsvE3$_9EEENS_5tupleIJDpOT_EEES5_', symObjAddr: 0x19C7C, symBinAddr: 0x100029F64, symSize: 0x2C }
  - { offsetInCU: 0x476FE, offset: 0x67300, size: 0x8, addend: 0x0, symName: '__ZNSt3__116forward_as_tupleB8ue170006IJNS_9allocatorIZ36test_many_short_tasks_on_few_threadsvE3$_9EEEEENS_5tupleIJDpOT_EEES7_', symObjAddr: 0x19CA8, symBinAddr: 0x100029F90, symSize: 0x2C }
  - { offsetInCU: 0x47761, offset: 0x67363, size: 0x8, addend: 0x0, symName: '__ZNSt3__13getB8ue170006ILm0EJOZ36test_many_short_tasks_on_few_threadsvE3$_9EEERNS_13tuple_elementIXT_ENS_5tupleIJDpT0_EEEE4typeERS7_', symObjAddr: 0x19FC0, symBinAddr: 0x10002A2A8, symSize: 0x24 }
  - { offsetInCU: 0x477A4, offset: 0x673A6, size: 0x8, addend: 0x0, symName: '__ZNSt3__13getB8ue170006ILm0EJONS_9allocatorIZ36test_many_short_tasks_on_few_threadsvE3$_9EEEEERNS_13tuple_elementIXT_ENS_5tupleIJDpT0_EEEE4typeERS9_', symObjAddr: 0x19FFC, symBinAddr: 0x10002A2E4, symSize: 0x24 }
  - { offsetInCU: 0x47CCB, offset: 0x678CD, size: 0x8, addend: 0x0, symName: '__ZNSt3__116forward_as_tupleB8ue170006IJRKZ36test_many_short_tasks_on_few_threadsvE3$_9EEENS_5tupleIJDpOT_EEES7_', symObjAddr: 0x1A590, symBinAddr: 0x10002A878, symSize: 0x2C }
  - { offsetInCU: 0x47D19, offset: 0x6791B, size: 0x8, addend: 0x0, symName: '__ZNSt3__13getB8ue170006ILm0EJRKZ36test_many_short_tasks_on_few_threadsvE3$_9EEERNS_13tuple_elementIXT_ENS_5tupleIJDpT0_EEEE4typeERS8_', symObjAddr: 0x1A780, symBinAddr: 0x10002AA68, symSize: 0x24 }
  - { offsetInCU: 0x47D5C, offset: 0x6795E, size: 0x8, addend: 0x0, symName: '__ZNSt3__116forward_as_tupleB8ue170006IJRKNS_9allocatorIZ36test_many_short_tasks_on_few_threadsvE3$_9EEEEENS_5tupleIJDpOT_EEES9_', symObjAddr: 0x1AADC, symBinAddr: 0x10002ADC4, symSize: 0x2C }
  - { offsetInCU: 0x47DAA, offset: 0x679AC, size: 0x8, addend: 0x0, symName: '__ZNSt3__13getB8ue170006ILm0EJRKNS_9allocatorIZ36test_many_short_tasks_on_few_threadsvE3$_9EEEEERNS_13tuple_elementIXT_ENS_5tupleIJDpT0_EEEE4typeERSA_', symObjAddr: 0x1ACC0, symBinAddr: 0x10002AFA8, symSize: 0x24 }
  - { offsetInCU: 0x47DED, offset: 0x679EF, size: 0x8, addend: 0x0, symName: '__ZNSt3__18__invokeB8ue170006IRZ36test_many_short_tasks_on_few_threadsvE3$_9JEEEDTclclsr3stdE7declvalIT_EEspclsr3stdE7declvalIT0_EEEEOS3_DpOS4_', symObjAddr: 0x1AD7C, symBinAddr: 0x10002B064, symSize: 0x24 }
  - { offsetInCU: 0x48223, offset: 0x67E25, size: 0x8, addend: 0x0, symName: '__ZNSt3__114__thread_proxyB8ue170006INS_5tupleIJNS_10unique_ptrINS_15__thread_structENS_14default_deleteIS3_EEEEZ23test_potential_deadlockvE4$_10EEEEEPvS9_', symObjAddr: 0x1B168, symBinAddr: 0x10002B290, symSize: 0x90 }
  - { offsetInCU: 0x48280, offset: 0x67E82, size: 0x8, addend: 0x0, symName: '__ZNSt3__13getB8ue170006ILm0EJNS_10unique_ptrINS_15__thread_structENS_14default_deleteIS2_EEEEZ23test_potential_deadlockvE4$_10EEERNS_13tuple_elementIXT_ENS_5tupleIJDpT0_EEEE4typeERSB_', symObjAddr: 0x1B824, symBinAddr: 0x10002B59C, symSize: 0x24 }
  - { offsetInCU: 0x482C8, offset: 0x67ECA, size: 0x8, addend: 0x0, symName: '__ZNSt3__116__thread_executeB8ue170006INS_10unique_ptrINS_15__thread_structENS_14default_deleteIS2_EEEEZ23test_potential_deadlockvE4$_10JEJEEEvRNS_5tupleIJT_T0_DpT1_EEENS_15__tuple_indicesIJXspT2_EEEE', symObjAddr: 0x1B848, symBinAddr: 0x10002B5C0, symSize: 0x28 }
  - { offsetInCU: 0x48317, offset: 0x67F19, size: 0x8, addend: 0x0, symName: '__ZNSt3__18__invokeB8ue170006IZ23test_potential_deadlockvE4$_10JEEEDTclclsr3stdE7declvalIT_EEspclsr3stdE7declvalIT0_EEEEOS2_DpOS3_', symObjAddr: 0x1B8B0, symBinAddr: 0x10002B5E8, symSize: 0x24 }
  - { offsetInCU: 0x48350, offset: 0x67F52, size: 0x8, addend: 0x0, symName: '__ZNSt3__13getB8ue170006ILm1EJNS_10unique_ptrINS_15__thread_structENS_14default_deleteIS2_EEEEZ23test_potential_deadlockvE4$_10EEERNS_13tuple_elementIXT_ENS_5tupleIJDpT0_EEEE4typeERSB_', symObjAddr: 0x1B8D4, symBinAddr: 0x10002B60C, symSize: 0x28 }
  - { offsetInCU: 0x484FB, offset: 0x680FD, size: 0x8, addend: 0x0, symName: '__ZNSt3__116forward_as_tupleB8ue170006IJZZ23test_potential_deadlockvENK4$_10clEvEUlvE_EEENS_5tupleIJDpOT_EEES6_', symObjAddr: 0x1C240, symBinAddr: 0x10002BF78, symSize: 0x2C }
  - { offsetInCU: 0x48534, offset: 0x68136, size: 0x8, addend: 0x0, symName: '__ZNSt3__116forward_as_tupleB8ue170006IJNS_9allocatorIZZ23test_potential_deadlockvENK4$_10clEvEUlvE_EEEEENS_5tupleIJDpOT_EEES8_', symObjAddr: 0x1C26C, symBinAddr: 0x10002BFA4, symSize: 0x2C }
  - { offsetInCU: 0x48597, offset: 0x68199, size: 0x8, addend: 0x0, symName: '__ZNSt3__13getB8ue170006ILm0EJOZZ23test_potential_deadlockvENK4$_10clEvEUlvE_EEERNS_13tuple_elementIXT_ENS_5tupleIJDpT0_EEEE4typeERS8_', symObjAddr: 0x1C584, symBinAddr: 0x10002C2BC, symSize: 0x24 }
  - { offsetInCU: 0x485DA, offset: 0x681DC, size: 0x8, addend: 0x0, symName: '__ZNSt3__13getB8ue170006ILm0EJONS_9allocatorIZZ23test_potential_deadlockvENK4$_10clEvEUlvE_EEEEERNS_13tuple_elementIXT_ENS_5tupleIJDpT0_EEEE4typeERSA_', symObjAddr: 0x1C5C0, symBinAddr: 0x10002C2F8, symSize: 0x24 }
  - { offsetInCU: 0x48B01, offset: 0x68703, size: 0x8, addend: 0x0, symName: '__ZNSt3__116forward_as_tupleB8ue170006IJRKZZ23test_potential_deadlockvENK4$_10clEvEUlvE_EEENS_5tupleIJDpOT_EEES8_', symObjAddr: 0x1CB5C, symBinAddr: 0x10002C894, symSize: 0x2C }
  - { offsetInCU: 0x48B4F, offset: 0x68751, size: 0x8, addend: 0x0, symName: '__ZNSt3__13getB8ue170006ILm0EJRKZZ23test_potential_deadlockvENK4$_10clEvEUlvE_EEERNS_13tuple_elementIXT_ENS_5tupleIJDpT0_EEEE4typeERS9_', symObjAddr: 0x1CD4C, symBinAddr: 0x10002CA84, symSize: 0x24 }
  - { offsetInCU: 0x48B92, offset: 0x68794, size: 0x8, addend: 0x0, symName: '__ZNSt3__116forward_as_tupleB8ue170006IJRKNS_9allocatorIZZ23test_potential_deadlockvENK4$_10clEvEUlvE_EEEEENS_5tupleIJDpOT_EEESA_', symObjAddr: 0x1D0AC, symBinAddr: 0x10002CDE4, symSize: 0x2C }
  - { offsetInCU: 0x48BE0, offset: 0x687E2, size: 0x8, addend: 0x0, symName: '__ZNSt3__13getB8ue170006ILm0EJRKNS_9allocatorIZZ23test_potential_deadlockvENK4$_10clEvEUlvE_EEEEERNS_13tuple_elementIXT_ENS_5tupleIJDpT0_EEEE4typeERSB_', symObjAddr: 0x1D290, symBinAddr: 0x10002CFC8, symSize: 0x24 }
  - { offsetInCU: 0x48C23, offset: 0x68825, size: 0x8, addend: 0x0, symName: '__ZNSt3__18__invokeB8ue170006IRZZ23test_potential_deadlockvENK4$_10clEvEUlvE_JEEEDTclclsr3stdE7declvalIT_EEspclsr3stdE7declvalIT0_EEEEOS4_DpOS5_', symObjAddr: 0x1D34C, symBinAddr: 0x10002D084, symSize: 0x24 }
  - { offsetInCU: 0x48C5B, offset: 0x6885D, size: 0x8, addend: 0x0, symName: __ZNSt3__122__safe_nanosecond_castB8ue170006IxNS_5ratioILl1ELl1000000000EEEEENS_9enable_ifIXntsr17is_floating_pointIT_EE5valueENS_6chrono8durationIxS2_EEE4typeENS6_IS4_T0_EE, symObjAddr: 0x1DA1C, symBinAddr: 0x10002D5A4, symSize: 0x150 }
  - { offsetInCU: 0x48CCB, offset: 0x688CD, size: 0x8, addend: 0x0, symName: __ZNSt3__122__safe_nanosecond_castB8ue170006IxNS_5ratioILl1ELl1000000EEEEENS_9enable_ifIXntsr17is_floating_pointIT_EE5valueENS_6chrono8durationIxNS1_ILl1ELl1000000000EEEEEE4typeENS6_IS4_T0_EE, symObjAddr: 0x1DFC0, symBinAddr: 0x10002DB48, symSize: 0x154 }
  - { offsetInCU: 0x48E9F, offset: 0x68AA1, size: 0x8, addend: 0x0, symName: '__ZNSt3__116forward_as_tupleB8ue170006IJZ36test_pending_tasks_tracking_simuladovE4$_12EEENS_5tupleIJDpOT_EEES5_', symObjAddr: 0x1E9BC, symBinAddr: 0x10002E544, symSize: 0x2C }
  - { offsetInCU: 0x48ED8, offset: 0x68ADA, size: 0x8, addend: 0x0, symName: '__ZNSt3__116forward_as_tupleB8ue170006IJNS_9allocatorIZ36test_pending_tasks_tracking_simuladovE4$_12EEEEENS_5tupleIJDpOT_EEES7_', symObjAddr: 0x1E9E8, symBinAddr: 0x10002E570, symSize: 0x2C }
  - { offsetInCU: 0x48F3B, offset: 0x68B3D, size: 0x8, addend: 0x0, symName: '__ZNSt3__13getB8ue170006ILm0EJOZ36test_pending_tasks_tracking_simuladovE4$_12EEERNS_13tuple_elementIXT_ENS_5tupleIJDpT0_EEEE4typeERS7_', symObjAddr: 0x1ED00, symBinAddr: 0x10002E888, symSize: 0x24 }
  - { offsetInCU: 0x48F7E, offset: 0x68B80, size: 0x8, addend: 0x0, symName: '__ZNSt3__13getB8ue170006ILm0EJONS_9allocatorIZ36test_pending_tasks_tracking_simuladovE4$_12EEEEERNS_13tuple_elementIXT_ENS_5tupleIJDpT0_EEEE4typeERS9_', symObjAddr: 0x1ED3C, symBinAddr: 0x10002E8C4, symSize: 0x24 }
  - { offsetInCU: 0x494A5, offset: 0x690A7, size: 0x8, addend: 0x0, symName: '__ZNSt3__116forward_as_tupleB8ue170006IJRKZ36test_pending_tasks_tracking_simuladovE4$_12EEENS_5tupleIJDpOT_EEES7_', symObjAddr: 0x1F2D0, symBinAddr: 0x10002EE58, symSize: 0x2C }
  - { offsetInCU: 0x494F3, offset: 0x690F5, size: 0x8, addend: 0x0, symName: '__ZNSt3__13getB8ue170006ILm0EJRKZ36test_pending_tasks_tracking_simuladovE4$_12EEERNS_13tuple_elementIXT_ENS_5tupleIJDpT0_EEEE4typeERS8_', symObjAddr: 0x1F4C0, symBinAddr: 0x10002F048, symSize: 0x24 }
  - { offsetInCU: 0x49536, offset: 0x69138, size: 0x8, addend: 0x0, symName: '__ZNSt3__116forward_as_tupleB8ue170006IJRKNS_9allocatorIZ36test_pending_tasks_tracking_simuladovE4$_12EEEEENS_5tupleIJDpOT_EEES9_', symObjAddr: 0x1F81C, symBinAddr: 0x10002F3A4, symSize: 0x2C }
  - { offsetInCU: 0x49584, offset: 0x69186, size: 0x8, addend: 0x0, symName: '__ZNSt3__13getB8ue170006ILm0EJRKNS_9allocatorIZ36test_pending_tasks_tracking_simuladovE4$_12EEEEERNS_13tuple_elementIXT_ENS_5tupleIJDpT0_EEEE4typeERSA_', symObjAddr: 0x1FA00, symBinAddr: 0x10002F588, symSize: 0x24 }
  - { offsetInCU: 0x495C7, offset: 0x691C9, size: 0x8, addend: 0x0, symName: '__ZNSt3__18__invokeB8ue170006IRZ36test_pending_tasks_tracking_simuladovE4$_12JEEEDTclclsr3stdE7declvalIT_EEspclsr3stdE7declvalIT0_EEEEOS3_DpOS4_', symObjAddr: 0x1FABC, symBinAddr: 0x10002F644, symSize: 0x24 }
  - { offsetInCU: 0x495FF, offset: 0x69201, size: 0x8, addend: 0x0, symName: __ZNSt3__112__to_addressB8ue170006INS_6threadEEEPT_S3_, symObjAddr: 0x1FFDC, symBinAddr: 0x10002FB64, symSize: 0x14 }
  - { offsetInCU: 0x49A32, offset: 0x69634, size: 0x8, addend: 0x0, symName: '__ZNSt3__114__thread_proxyB8ue170006INS_5tupleIJNS_10unique_ptrINS_15__thread_structENS_14default_deleteIS3_EEEEZ35test_schedule_from_multiple_threadsvE4$_13EEEEEPvS9_', symObjAddr: 0x20624, symBinAddr: 0x1000301AC, symSize: 0x90 }
  - { offsetInCU: 0x49A8F, offset: 0x69691, size: 0x8, addend: 0x0, symName: '__ZNSt3__13getB8ue170006ILm0EJNS_10unique_ptrINS_15__thread_structENS_14default_deleteIS2_EEEEZ35test_schedule_from_multiple_threadsvE4$_13EEERNS_13tuple_elementIXT_ENS_5tupleIJDpT0_EEEE4typeERSB_', symObjAddr: 0x20928, symBinAddr: 0x1000304B0, symSize: 0x24 }
  - { offsetInCU: 0x49AD7, offset: 0x696D9, size: 0x8, addend: 0x0, symName: '__ZNSt3__116__thread_executeB8ue170006INS_10unique_ptrINS_15__thread_structENS_14default_deleteIS2_EEEEZ35test_schedule_from_multiple_threadsvE4$_13JEJEEEvRNS_5tupleIJT_T0_DpT1_EEENS_15__tuple_indicesIJXspT2_EEEE', symObjAddr: 0x2094C, symBinAddr: 0x1000304D4, symSize: 0x28 }
  - { offsetInCU: 0x49B26, offset: 0x69728, size: 0x8, addend: 0x0, symName: '__ZNSt3__18__invokeB8ue170006IZ35test_schedule_from_multiple_threadsvE4$_13JEEEDTclclsr3stdE7declvalIT_EEspclsr3stdE7declvalIT0_EEEEOS2_DpOS3_', symObjAddr: 0x20974, symBinAddr: 0x1000304FC, symSize: 0x24 }
  - { offsetInCU: 0x49B5F, offset: 0x69761, size: 0x8, addend: 0x0, symName: '__ZNSt3__13getB8ue170006ILm1EJNS_10unique_ptrINS_15__thread_structENS_14default_deleteIS2_EEEEZ35test_schedule_from_multiple_threadsvE4$_13EEERNS_13tuple_elementIXT_ENS_5tupleIJDpT0_EEEE4typeERSB_', symObjAddr: 0x20998, symBinAddr: 0x100030520, symSize: 0x28 }
  - { offsetInCU: 0x49D0A, offset: 0x6990C, size: 0x8, addend: 0x0, symName: '__ZNSt3__116forward_as_tupleB8ue170006IJZZ35test_schedule_from_multiple_threadsvENK4$_13clEvEUlvE_EEENS_5tupleIJDpOT_EEES6_', symObjAddr: 0x211BC, symBinAddr: 0x100030D44, symSize: 0x2C }
  - { offsetInCU: 0x49D43, offset: 0x69945, size: 0x8, addend: 0x0, symName: '__ZNSt3__116forward_as_tupleB8ue170006IJNS_9allocatorIZZ35test_schedule_from_multiple_threadsvENK4$_13clEvEUlvE_EEEEENS_5tupleIJDpOT_EEES8_', symObjAddr: 0x211E8, symBinAddr: 0x100030D70, symSize: 0x2C }
  - { offsetInCU: 0x49DA6, offset: 0x699A8, size: 0x8, addend: 0x0, symName: '__ZNSt3__13getB8ue170006ILm0EJOZZ35test_schedule_from_multiple_threadsvENK4$_13clEvEUlvE_EEERNS_13tuple_elementIXT_ENS_5tupleIJDpT0_EEEE4typeERS8_', symObjAddr: 0x21500, symBinAddr: 0x100031088, symSize: 0x24 }
  - { offsetInCU: 0x49DE9, offset: 0x699EB, size: 0x8, addend: 0x0, symName: '__ZNSt3__13getB8ue170006ILm0EJONS_9allocatorIZZ35test_schedule_from_multiple_threadsvENK4$_13clEvEUlvE_EEEEERNS_13tuple_elementIXT_ENS_5tupleIJDpT0_EEEE4typeERSA_', symObjAddr: 0x2153C, symBinAddr: 0x1000310C4, symSize: 0x24 }
  - { offsetInCU: 0x4A310, offset: 0x69F12, size: 0x8, addend: 0x0, symName: '__ZNSt3__116forward_as_tupleB8ue170006IJRKZZ35test_schedule_from_multiple_threadsvENK4$_13clEvEUlvE_EEENS_5tupleIJDpOT_EEES8_', symObjAddr: 0x21AD0, symBinAddr: 0x100031658, symSize: 0x2C }
  - { offsetInCU: 0x4A35E, offset: 0x69F60, size: 0x8, addend: 0x0, symName: '__ZNSt3__13getB8ue170006ILm0EJRKZZ35test_schedule_from_multiple_threadsvENK4$_13clEvEUlvE_EEERNS_13tuple_elementIXT_ENS_5tupleIJDpT0_EEEE4typeERS9_', symObjAddr: 0x21CC0, symBinAddr: 0x100031848, symSize: 0x24 }
  - { offsetInCU: 0x4A3A1, offset: 0x69FA3, size: 0x8, addend: 0x0, symName: '__ZNSt3__116forward_as_tupleB8ue170006IJRKNS_9allocatorIZZ35test_schedule_from_multiple_threadsvENK4$_13clEvEUlvE_EEEEENS_5tupleIJDpOT_EEESA_', symObjAddr: 0x2201C, symBinAddr: 0x100031BA4, symSize: 0x2C }
  - { offsetInCU: 0x4A3EF, offset: 0x69FF1, size: 0x8, addend: 0x0, symName: '__ZNSt3__13getB8ue170006ILm0EJRKNS_9allocatorIZZ35test_schedule_from_multiple_threadsvENK4$_13clEvEUlvE_EEEEERNS_13tuple_elementIXT_ENS_5tupleIJDpT0_EEEE4typeERSB_', symObjAddr: 0x22200, symBinAddr: 0x100031D88, symSize: 0x24 }
  - { offsetInCU: 0x4A432, offset: 0x6A034, size: 0x8, addend: 0x0, symName: '__ZNSt3__18__invokeB8ue170006IRZZ35test_schedule_from_multiple_threadsvENK4$_13clEvEUlvE_JEEEDTclclsr3stdE7declvalIT_EEspclsr3stdE7declvalIT0_EEEEOS4_DpOS5_', symObjAddr: 0x222BC, symBinAddr: 0x100031E44, symSize: 0x24 }
  - { offsetInCU: 0x4A46A, offset: 0x6A06C, size: 0x8, addend: 0x0, symName: __ZNSt3__119__allocate_at_leastB8ue170006INS_9allocatorINS_6threadEEEEENS_19__allocation_resultINS_16allocator_traitsIT_E7pointerEEERS6_m, symObjAddr: 0x229F8, symBinAddr: 0x100032580, symSize: 0x40 }
  - { offsetInCU: 0x4A4AD, offset: 0x6A0AF, size: 0x8, addend: 0x0, symName: __ZNSt3__142__uninitialized_allocator_move_if_noexceptB8ue170006INS_9allocatorINS_6threadEEENS_16reverse_iteratorIPS2_EES6_S6_EET2_RT_T0_T1_S7_, symObjAddr: 0x22BAC, symBinAddr: 0x100032734, symSize: 0x12C }
  - { offsetInCU: 0x4A54F, offset: 0x6A151, size: 0x8, addend: 0x0, symName: __ZNSt3__14swapB8ue170006IPNS_6threadEEENS_9enable_ifIXaasr21is_move_constructibleIT_EE5valuesr18is_move_assignableIS4_EE5valueEvE4typeERS4_S7_, symObjAddr: 0x22D24, symBinAddr: 0x1000328AC, symSize: 0x3C }
  - { offsetInCU: 0x4A5A0, offset: 0x6A1A2, size: 0x8, addend: 0x0, symName: __ZNSt3__122__make_exception_guardB8ue170006INS_29_AllocatorDestroyRangeReverseINS_9allocatorINS_6threadEEENS_16reverse_iteratorIPS3_EEEEEENS_28__exception_guard_exceptionsIT_EESA_, symObjAddr: 0x22E0C, symBinAddr: 0x100032994, symSize: 0x4C }
  - { offsetInCU: 0x4A5D6, offset: 0x6A1D8, size: 0x8, addend: 0x0, symName: __ZNSt3__1neB8ue170006IPNS_6threadES2_EEbRKNS_16reverse_iteratorIT_EERKNS3_IT0_EE, symObjAddr: 0x22E9C, symBinAddr: 0x100032A24, symSize: 0x48 }
  - { offsetInCU: 0x4A622, offset: 0x6A224, size: 0x8, addend: 0x0, symName: __ZNSt3__112__to_addressB8ue170006INS_16reverse_iteratorIPNS_6threadEEEvEEu7__decayIDTclsr19__to_address_helperIT_EE6__callclsr3stdE7declvalIRKS5_EEEEES7_, symObjAddr: 0x22F18, symBinAddr: 0x100032AA0, symSize: 0x24 }
  - { offsetInCU: 0x4A683, offset: 0x6A285, size: 0x8, addend: 0x0, symName: __ZNSt3__119__allocator_destroyB8ue170006INS_9allocatorINS_6threadEEENS_16reverse_iteratorINS4_IPS2_EEEES7_EEvRT_T0_T1_, symObjAddr: 0x23258, symBinAddr: 0x100032DE0, symSize: 0x70 }
  - { offsetInCU: 0x4A6E7, offset: 0x6A2E9, size: 0x8, addend: 0x0, symName: __ZNSt3__1neB8ue170006INS_16reverse_iteratorIPNS_6threadEEES4_EEbRKNS1_IT_EERKNS1_IT0_EE, symObjAddr: 0x23304, symBinAddr: 0x100032E8C, symSize: 0x60 }
  - { offsetInCU: 0x4A733, offset: 0x6A335, size: 0x8, addend: 0x0, symName: __ZNSt3__112__to_addressB8ue170006INS_16reverse_iteratorINS1_IPNS_6threadEEEEEvEEu7__decayIDTclsr19__to_address_helperIT_EE6__callclsr3stdE7declvalIRKS6_EEEEES8_, symObjAddr: 0x23364, symBinAddr: 0x100032EEC, symSize: 0x24 }
  - { offsetInCU: 0x4A8F7, offset: 0x6A4F9, size: 0x8, addend: 0x0, symName: '__ZNSt3__116forward_as_tupleB8ue170006IJZ31test_schedule_after_destructionvE4$_14EEENS_5tupleIJDpOT_EEES5_', symObjAddr: 0x23E2C, symBinAddr: 0x1000339B4, symSize: 0x2C }
  - { offsetInCU: 0x4A930, offset: 0x6A532, size: 0x8, addend: 0x0, symName: '__ZNSt3__116forward_as_tupleB8ue170006IJNS_9allocatorIZ31test_schedule_after_destructionvE4$_14EEEEENS_5tupleIJDpOT_EEES7_', symObjAddr: 0x23E58, symBinAddr: 0x1000339E0, symSize: 0x2C }
  - { offsetInCU: 0x4A993, offset: 0x6A595, size: 0x8, addend: 0x0, symName: '__ZNSt3__13getB8ue170006ILm0EJOZ31test_schedule_after_destructionvE4$_14EEERNS_13tuple_elementIXT_ENS_5tupleIJDpT0_EEEE4typeERS7_', symObjAddr: 0x24164, symBinAddr: 0x100033CEC, symSize: 0x24 }
  - { offsetInCU: 0x4A9D6, offset: 0x6A5D8, size: 0x8, addend: 0x0, symName: '__ZNSt3__13getB8ue170006ILm0EJONS_9allocatorIZ31test_schedule_after_destructionvE4$_14EEEEERNS_13tuple_elementIXT_ENS_5tupleIJDpT0_EEEE4typeERS9_', symObjAddr: 0x241A0, symBinAddr: 0x100033D28, symSize: 0x24 }
  - { offsetInCU: 0x4AEFD, offset: 0x6AAFF, size: 0x8, addend: 0x0, symName: '__ZNSt3__116forward_as_tupleB8ue170006IJRKZ31test_schedule_after_destructionvE4$_14EEENS_5tupleIJDpOT_EEES7_', symObjAddr: 0x24734, symBinAddr: 0x1000342BC, symSize: 0x2C }
  - { offsetInCU: 0x4AF4B, offset: 0x6AB4D, size: 0x8, addend: 0x0, symName: '__ZNSt3__13getB8ue170006ILm0EJRKZ31test_schedule_after_destructionvE4$_14EEERNS_13tuple_elementIXT_ENS_5tupleIJDpT0_EEEE4typeERS8_', symObjAddr: 0x24918, symBinAddr: 0x1000344A0, symSize: 0x24 }
  - { offsetInCU: 0x4AF8E, offset: 0x6AB90, size: 0x8, addend: 0x0, symName: '__ZNSt3__116forward_as_tupleB8ue170006IJRKNS_9allocatorIZ31test_schedule_after_destructionvE4$_14EEEEENS_5tupleIJDpOT_EEES9_', symObjAddr: 0x24C74, symBinAddr: 0x1000347FC, symSize: 0x2C }
  - { offsetInCU: 0x4AFDC, offset: 0x6ABDE, size: 0x8, addend: 0x0, symName: '__ZNSt3__13getB8ue170006ILm0EJRKNS_9allocatorIZ31test_schedule_after_destructionvE4$_14EEEEERNS_13tuple_elementIXT_ENS_5tupleIJDpT0_EEEE4typeERSA_', symObjAddr: 0x24E58, symBinAddr: 0x1000349E0, symSize: 0x24 }
  - { offsetInCU: 0x4B01F, offset: 0x6AC21, size: 0x8, addend: 0x0, symName: '__ZNSt3__18__invokeB8ue170006IRZ31test_schedule_after_destructionvE4$_14JEEEDTclclsr3stdE7declvalIT_EEspclsr3stdE7declvalIT0_EEEEOS3_DpOS4_', symObjAddr: 0x24F14, symBinAddr: 0x100034A9C, symSize: 0x24 }
  - { offsetInCU: 0x4B1BB, offset: 0x6ADBD, size: 0x8, addend: 0x0, symName: '__ZNSt3__116forward_as_tupleB8ue170006IJZ31test_schedule_after_destructionvE4$_15EEENS_5tupleIJDpOT_EEES5_', symObjAddr: 0x2564C, symBinAddr: 0x1000351D4, symSize: 0x2C }
  - { offsetInCU: 0x4B1F4, offset: 0x6ADF6, size: 0x8, addend: 0x0, symName: '__ZNSt3__116forward_as_tupleB8ue170006IJNS_9allocatorIZ31test_schedule_after_destructionvE4$_15EEEEENS_5tupleIJDpOT_EEES7_', symObjAddr: 0x25678, symBinAddr: 0x100035200, symSize: 0x2C }
  - { offsetInCU: 0x4B257, offset: 0x6AE59, size: 0x8, addend: 0x0, symName: '__ZNSt3__13getB8ue170006ILm0EJOZ31test_schedule_after_destructionvE4$_15EEERNS_13tuple_elementIXT_ENS_5tupleIJDpT0_EEEE4typeERS7_', symObjAddr: 0x25984, symBinAddr: 0x10003550C, symSize: 0x24 }
  - { offsetInCU: 0x4B29A, offset: 0x6AE9C, size: 0x8, addend: 0x0, symName: '__ZNSt3__13getB8ue170006ILm0EJONS_9allocatorIZ31test_schedule_after_destructionvE4$_15EEEEERNS_13tuple_elementIXT_ENS_5tupleIJDpT0_EEEE4typeERS9_', symObjAddr: 0x259C0, symBinAddr: 0x100035548, symSize: 0x24 }
  - { offsetInCU: 0x4B7C1, offset: 0x6B3C3, size: 0x8, addend: 0x0, symName: '__ZNSt3__116forward_as_tupleB8ue170006IJRKZ31test_schedule_after_destructionvE4$_15EEENS_5tupleIJDpOT_EEES7_', symObjAddr: 0x25F54, symBinAddr: 0x100035ADC, symSize: 0x2C }
  - { offsetInCU: 0x4B80F, offset: 0x6B411, size: 0x8, addend: 0x0, symName: '__ZNSt3__13getB8ue170006ILm0EJRKZ31test_schedule_after_destructionvE4$_15EEERNS_13tuple_elementIXT_ENS_5tupleIJDpT0_EEEE4typeERS8_', symObjAddr: 0x26138, symBinAddr: 0x100035CC0, symSize: 0x24 }
  - { offsetInCU: 0x4B852, offset: 0x6B454, size: 0x8, addend: 0x0, symName: '__ZNSt3__116forward_as_tupleB8ue170006IJRKNS_9allocatorIZ31test_schedule_after_destructionvE4$_15EEEEENS_5tupleIJDpOT_EEES9_', symObjAddr: 0x26494, symBinAddr: 0x10003601C, symSize: 0x2C }
  - { offsetInCU: 0x4B8A0, offset: 0x6B4A2, size: 0x8, addend: 0x0, symName: '__ZNSt3__13getB8ue170006ILm0EJRKNS_9allocatorIZ31test_schedule_after_destructionvE4$_15EEEEERNS_13tuple_elementIXT_ENS_5tupleIJDpT0_EEEE4typeERSA_', symObjAddr: 0x26678, symBinAddr: 0x100036200, symSize: 0x24 }
  - { offsetInCU: 0x4B8E3, offset: 0x6B4E5, size: 0x8, addend: 0x0, symName: '__ZNSt3__18__invokeB8ue170006IRZ31test_schedule_after_destructionvE4$_15JEEEDTclclsr3stdE7declvalIT_EEspclsr3stdE7declvalIT0_EEEEOS3_DpOS4_', symObjAddr: 0x26734, symBinAddr: 0x1000362BC, symSize: 0x24 }
  - { offsetInCU: 0x4BF58, offset: 0x6BB5A, size: 0x8, addend: 0x0, symName: '__ZNSt3__116forward_as_tupleB8ue170006IJZ25test_schedule_inside_taskvE4$_16EEENS_5tupleIJDpOT_EEES5_', symObjAddr: 0x27170, symBinAddr: 0x100036CF8, symSize: 0x2C }
  - { offsetInCU: 0x4BF91, offset: 0x6BB93, size: 0x8, addend: 0x0, symName: '__ZNSt3__116forward_as_tupleB8ue170006IJNS_9allocatorIZ25test_schedule_inside_taskvE4$_16EEEEENS_5tupleIJDpOT_EEES7_', symObjAddr: 0x2719C, symBinAddr: 0x100036D24, symSize: 0x2C }
  - { offsetInCU: 0x4BFF4, offset: 0x6BBF6, size: 0x8, addend: 0x0, symName: '__ZNSt3__13getB8ue170006ILm0EJOZ25test_schedule_inside_taskvE4$_16EEERNS_13tuple_elementIXT_ENS_5tupleIJDpT0_EEEE4typeERS7_', symObjAddr: 0x274BC, symBinAddr: 0x100037044, symSize: 0x24 }
  - { offsetInCU: 0x4C037, offset: 0x6BC39, size: 0x8, addend: 0x0, symName: '__ZNSt3__13getB8ue170006ILm0EJONS_9allocatorIZ25test_schedule_inside_taskvE4$_16EEEEERNS_13tuple_elementIXT_ENS_5tupleIJDpT0_EEEE4typeERS9_', symObjAddr: 0x274F8, symBinAddr: 0x100037080, symSize: 0x24 }
  - { offsetInCU: 0x4C206, offset: 0x6BE08, size: 0x8, addend: 0x0, symName: '__ZNSt3__116forward_as_tupleB8ue170006IJRKZ25test_schedule_inside_taskvE4$_16EEENS_5tupleIJDpOT_EEES7_', symObjAddr: 0x278F4, symBinAddr: 0x10003747C, symSize: 0x2C }
  - { offsetInCU: 0x4C254, offset: 0x6BE56, size: 0x8, addend: 0x0, symName: '__ZNSt3__13getB8ue170006ILm0EJRKZ25test_schedule_inside_taskvE4$_16EEERNS_13tuple_elementIXT_ENS_5tupleIJDpT0_EEEE4typeERS8_', symObjAddr: 0x27AEC, symBinAddr: 0x100037674, symSize: 0x24 }
  - { offsetInCU: 0x4C297, offset: 0x6BE99, size: 0x8, addend: 0x0, symName: '__ZNSt3__116forward_as_tupleB8ue170006IJRKNS_9allocatorIZ25test_schedule_inside_taskvE4$_16EEEEENS_5tupleIJDpOT_EEES9_', symObjAddr: 0x27E48, symBinAddr: 0x1000379D0, symSize: 0x2C }
  - { offsetInCU: 0x4C2E5, offset: 0x6BEE7, size: 0x8, addend: 0x0, symName: '__ZNSt3__13getB8ue170006ILm0EJRKNS_9allocatorIZ25test_schedule_inside_taskvE4$_16EEEEERNS_13tuple_elementIXT_ENS_5tupleIJDpT0_EEEE4typeERSA_', symObjAddr: 0x2802C, symBinAddr: 0x100037BB4, symSize: 0x24 }
  - { offsetInCU: 0x4C328, offset: 0x6BF2A, size: 0x8, addend: 0x0, symName: '__ZNSt3__18__invokeB8ue170006IRZ25test_schedule_inside_taskvE4$_16JEEEDTclclsr3stdE7declvalIT_EEspclsr3stdE7declvalIT0_EEEEOS3_DpOS4_', symObjAddr: 0x280E8, symBinAddr: 0x100037C70, symSize: 0x24 }
  - { offsetInCU: 0x4C4C4, offset: 0x6C0C6, size: 0x8, addend: 0x0, symName: '__ZNSt3__116forward_as_tupleB8ue170006IJZZ25test_schedule_inside_taskvENK4$_16clEvEUlvE_EEENS_5tupleIJDpOT_EEES6_', symObjAddr: 0x288FC, symBinAddr: 0x100038484, symSize: 0x2C }
  - { offsetInCU: 0x4C4FD, offset: 0x6C0FF, size: 0x8, addend: 0x0, symName: '__ZNSt3__116forward_as_tupleB8ue170006IJNS_9allocatorIZZ25test_schedule_inside_taskvENK4$_16clEvEUlvE_EEEEENS_5tupleIJDpOT_EEES8_', symObjAddr: 0x28928, symBinAddr: 0x1000384B0, symSize: 0x2C }
  - { offsetInCU: 0x4C560, offset: 0x6C162, size: 0x8, addend: 0x0, symName: '__ZNSt3__13getB8ue170006ILm0EJOZZ25test_schedule_inside_taskvENK4$_16clEvEUlvE_EEERNS_13tuple_elementIXT_ENS_5tupleIJDpT0_EEEE4typeERS8_', symObjAddr: 0x28C40, symBinAddr: 0x1000387C8, symSize: 0x24 }
  - { offsetInCU: 0x4C5A3, offset: 0x6C1A5, size: 0x8, addend: 0x0, symName: '__ZNSt3__13getB8ue170006ILm0EJONS_9allocatorIZZ25test_schedule_inside_taskvENK4$_16clEvEUlvE_EEEEERNS_13tuple_elementIXT_ENS_5tupleIJDpT0_EEEE4typeERSA_', symObjAddr: 0x28C7C, symBinAddr: 0x100038804, symSize: 0x24 }
  - { offsetInCU: 0x4CACA, offset: 0x6C6CC, size: 0x8, addend: 0x0, symName: '__ZNSt3__116forward_as_tupleB8ue170006IJRKZZ25test_schedule_inside_taskvENK4$_16clEvEUlvE_EEENS_5tupleIJDpOT_EEES8_', symObjAddr: 0x29218, symBinAddr: 0x100038DA0, symSize: 0x2C }
  - { offsetInCU: 0x4CB18, offset: 0x6C71A, size: 0x8, addend: 0x0, symName: '__ZNSt3__13getB8ue170006ILm0EJRKZZ25test_schedule_inside_taskvENK4$_16clEvEUlvE_EEERNS_13tuple_elementIXT_ENS_5tupleIJDpT0_EEEE4typeERS9_', symObjAddr: 0x29408, symBinAddr: 0x100038F90, symSize: 0x24 }
  - { offsetInCU: 0x4CB5B, offset: 0x6C75D, size: 0x8, addend: 0x0, symName: '__ZNSt3__116forward_as_tupleB8ue170006IJRKNS_9allocatorIZZ25test_schedule_inside_taskvENK4$_16clEvEUlvE_EEEEENS_5tupleIJDpOT_EEESA_', symObjAddr: 0x29768, symBinAddr: 0x1000392F0, symSize: 0x2C }
  - { offsetInCU: 0x4CBA9, offset: 0x6C7AB, size: 0x8, addend: 0x0, symName: '__ZNSt3__13getB8ue170006ILm0EJRKNS_9allocatorIZZ25test_schedule_inside_taskvENK4$_16clEvEUlvE_EEEEERNS_13tuple_elementIXT_ENS_5tupleIJDpT0_EEEE4typeERSB_', symObjAddr: 0x2994C, symBinAddr: 0x1000394D4, symSize: 0x24 }
  - { offsetInCU: 0x4CBEC, offset: 0x6C7EE, size: 0x8, addend: 0x0, symName: '__ZNSt3__18__invokeB8ue170006IRZZ25test_schedule_inside_taskvENK4$_16clEvEUlvE_JEEEDTclclsr3stdE7declvalIT_EEspclsr3stdE7declvalIT0_EEEEOS4_DpOS5_', symObjAddr: 0x29A08, symBinAddr: 0x100039590, symSize: 0x24 }
  - { offsetInCU: 0x4CD88, offset: 0x6C98A, size: 0x8, addend: 0x0, symName: '__ZNSt3__116forward_as_tupleB8ue170006IJZ29test_wait_blocks_until_finishvE4$_17EEENS_5tupleIJDpOT_EEES5_', symObjAddr: 0x2A224, symBinAddr: 0x100039DAC, symSize: 0x2C }
  - { offsetInCU: 0x4CDC1, offset: 0x6C9C3, size: 0x8, addend: 0x0, symName: '__ZNSt3__116forward_as_tupleB8ue170006IJNS_9allocatorIZ29test_wait_blocks_until_finishvE4$_17EEEEENS_5tupleIJDpOT_EEES7_', symObjAddr: 0x2A250, symBinAddr: 0x100039DD8, symSize: 0x2C }
  - { offsetInCU: 0x4CE24, offset: 0x6CA26, size: 0x8, addend: 0x0, symName: '__ZNSt3__13getB8ue170006ILm0EJOZ29test_wait_blocks_until_finishvE4$_17EEERNS_13tuple_elementIXT_ENS_5tupleIJDpT0_EEEE4typeERS7_', symObjAddr: 0x2A568, symBinAddr: 0x10003A0F0, symSize: 0x24 }
  - { offsetInCU: 0x4CE67, offset: 0x6CA69, size: 0x8, addend: 0x0, symName: '__ZNSt3__13getB8ue170006ILm0EJONS_9allocatorIZ29test_wait_blocks_until_finishvE4$_17EEEEERNS_13tuple_elementIXT_ENS_5tupleIJDpT0_EEEE4typeERS9_', symObjAddr: 0x2A5A4, symBinAddr: 0x10003A12C, symSize: 0x24 }
  - { offsetInCU: 0x4D38E, offset: 0x6CF90, size: 0x8, addend: 0x0, symName: '__ZNSt3__116forward_as_tupleB8ue170006IJRKZ29test_wait_blocks_until_finishvE4$_17EEENS_5tupleIJDpOT_EEES7_', symObjAddr: 0x2AB38, symBinAddr: 0x10003A6C0, symSize: 0x2C }
  - { offsetInCU: 0x4D3DC, offset: 0x6CFDE, size: 0x8, addend: 0x0, symName: '__ZNSt3__13getB8ue170006ILm0EJRKZ29test_wait_blocks_until_finishvE4$_17EEERNS_13tuple_elementIXT_ENS_5tupleIJDpT0_EEEE4typeERS8_', symObjAddr: 0x2AD28, symBinAddr: 0x10003A8B0, symSize: 0x24 }
  - { offsetInCU: 0x4D41F, offset: 0x6D021, size: 0x8, addend: 0x0, symName: '__ZNSt3__116forward_as_tupleB8ue170006IJRKNS_9allocatorIZ29test_wait_blocks_until_finishvE4$_17EEEEENS_5tupleIJDpOT_EEES9_', symObjAddr: 0x2B084, symBinAddr: 0x10003AC0C, symSize: 0x2C }
  - { offsetInCU: 0x4D46D, offset: 0x6D06F, size: 0x8, addend: 0x0, symName: '__ZNSt3__13getB8ue170006ILm0EJRKNS_9allocatorIZ29test_wait_blocks_until_finishvE4$_17EEEEERNS_13tuple_elementIXT_ENS_5tupleIJDpT0_EEEE4typeERSA_', symObjAddr: 0x2B268, symBinAddr: 0x10003ADF0, symSize: 0x24 }
  - { offsetInCU: 0x4D4B0, offset: 0x6D0B2, size: 0x8, addend: 0x0, symName: '__ZNSt3__18__invokeB8ue170006IRZ29test_wait_blocks_until_finishvE4$_17JEEEDTclclsr3stdE7declvalIT_EEspclsr3stdE7declvalIT0_EEEEOS3_DpOS4_', symObjAddr: 0x2B324, symBinAddr: 0x10003AEAC, symSize: 0x24 }
  - { offsetInCU: 0x4D64C, offset: 0x6D24E, size: 0x8, addend: 0x0, symName: '__ZNSt3__116forward_as_tupleB8ue170006IJZ32test_many_waits_during_executionvE4$_18EEENS_5tupleIJDpOT_EEES5_', symObjAddr: 0x2BA80, symBinAddr: 0x10003B608, symSize: 0x2C }
  - { offsetInCU: 0x4D685, offset: 0x6D287, size: 0x8, addend: 0x0, symName: '__ZNSt3__116forward_as_tupleB8ue170006IJNS_9allocatorIZ32test_many_waits_during_executionvE4$_18EEEEENS_5tupleIJDpOT_EEES7_', symObjAddr: 0x2BAAC, symBinAddr: 0x10003B634, symSize: 0x2C }
  - { offsetInCU: 0x4D6E8, offset: 0x6D2EA, size: 0x8, addend: 0x0, symName: '__ZNSt3__13getB8ue170006ILm0EJOZ32test_many_waits_during_executionvE4$_18EEERNS_13tuple_elementIXT_ENS_5tupleIJDpT0_EEEE4typeERS7_', symObjAddr: 0x2BDC4, symBinAddr: 0x10003B94C, symSize: 0x24 }
  - { offsetInCU: 0x4D72B, offset: 0x6D32D, size: 0x8, addend: 0x0, symName: '__ZNSt3__13getB8ue170006ILm0EJONS_9allocatorIZ32test_many_waits_during_executionvE4$_18EEEEERNS_13tuple_elementIXT_ENS_5tupleIJDpT0_EEEE4typeERS9_', symObjAddr: 0x2BE00, symBinAddr: 0x10003B988, symSize: 0x24 }
  - { offsetInCU: 0x4DC52, offset: 0x6D854, size: 0x8, addend: 0x0, symName: '__ZNSt3__116forward_as_tupleB8ue170006IJRKZ32test_many_waits_during_executionvE4$_18EEENS_5tupleIJDpOT_EEES7_', symObjAddr: 0x2C394, symBinAddr: 0x10003BF1C, symSize: 0x2C }
  - { offsetInCU: 0x4DCA0, offset: 0x6D8A2, size: 0x8, addend: 0x0, symName: '__ZNSt3__13getB8ue170006ILm0EJRKZ32test_many_waits_during_executionvE4$_18EEERNS_13tuple_elementIXT_ENS_5tupleIJDpT0_EEEE4typeERS8_', symObjAddr: 0x2C584, symBinAddr: 0x10003C10C, symSize: 0x24 }
  - { offsetInCU: 0x4DCE3, offset: 0x6D8E5, size: 0x8, addend: 0x0, symName: '__ZNSt3__116forward_as_tupleB8ue170006IJRKNS_9allocatorIZ32test_many_waits_during_executionvE4$_18EEEEENS_5tupleIJDpOT_EEES9_', symObjAddr: 0x2C8E0, symBinAddr: 0x10003C468, symSize: 0x2C }
  - { offsetInCU: 0x4DD31, offset: 0x6D933, size: 0x8, addend: 0x0, symName: '__ZNSt3__13getB8ue170006ILm0EJRKNS_9allocatorIZ32test_many_waits_during_executionvE4$_18EEEEERNS_13tuple_elementIXT_ENS_5tupleIJDpT0_EEEE4typeERSA_', symObjAddr: 0x2CAC4, symBinAddr: 0x10003C64C, symSize: 0x24 }
  - { offsetInCU: 0x4DD74, offset: 0x6D976, size: 0x8, addend: 0x0, symName: '__ZNSt3__18__invokeB8ue170006IRZ32test_many_waits_during_executionvE4$_18JEEEDTclclsr3stdE7declvalIT_EEspclsr3stdE7declvalIT0_EEEEOS3_DpOS4_', symObjAddr: 0x2CB80, symBinAddr: 0x10003C708, symSize: 0x24 }
  - { offsetInCU: 0x4E1AA, offset: 0x6DDAC, size: 0x8, addend: 0x0, symName: '__ZNSt3__114__thread_proxyB8ue170006INS_5tupleIJNS_10unique_ptrINS_15__thread_structENS_14default_deleteIS3_EEEEZ32test_many_waits_during_executionvE4$_19EEEEEPvS9_', symObjAddr: 0x2CFAC, symBinAddr: 0x10003CB34, symSize: 0x90 }
  - { offsetInCU: 0x4E207, offset: 0x6DE09, size: 0x8, addend: 0x0, symName: '__ZNSt3__13getB8ue170006ILm0EJNS_10unique_ptrINS_15__thread_structENS_14default_deleteIS2_EEEEZ32test_many_waits_during_executionvE4$_19EEERNS_13tuple_elementIXT_ENS_5tupleIJDpT0_EEEE4typeERSB_', symObjAddr: 0x2D2B8, symBinAddr: 0x10003CE40, symSize: 0x24 }
  - { offsetInCU: 0x4E24F, offset: 0x6DE51, size: 0x8, addend: 0x0, symName: '__ZNSt3__116__thread_executeB8ue170006INS_10unique_ptrINS_15__thread_structENS_14default_deleteIS2_EEEEZ32test_many_waits_during_executionvE4$_19JEJEEEvRNS_5tupleIJT_T0_DpT1_EEENS_15__tuple_indicesIJXspT2_EEEE', symObjAddr: 0x2D2DC, symBinAddr: 0x10003CE64, symSize: 0x28 }
  - { offsetInCU: 0x4E29E, offset: 0x6DEA0, size: 0x8, addend: 0x0, symName: '__ZNSt3__18__invokeB8ue170006IZ32test_many_waits_during_executionvE4$_19JEEEDTclclsr3stdE7declvalIT_EEspclsr3stdE7declvalIT0_EEEEOS2_DpOS3_', symObjAddr: 0x2D304, symBinAddr: 0x10003CE8C, symSize: 0x24 }
  - { offsetInCU: 0x4E2D7, offset: 0x6DED9, size: 0x8, addend: 0x0, symName: '__ZNSt3__13getB8ue170006ILm1EJNS_10unique_ptrINS_15__thread_structENS_14default_deleteIS2_EEEEZ32test_many_waits_during_executionvE4$_19EEERNS_13tuple_elementIXT_ENS_5tupleIJDpT0_EEEE4typeERSB_', symObjAddr: 0x2D328, symBinAddr: 0x10003CEB0, symSize: 0x28 }
  - { offsetInCU: 0x4E482, offset: 0x6E084, size: 0x8, addend: 0x0, symName: '__ZNSt3__116forward_as_tupleB8ue170006IJZ35test_high_contention_atomic_updatesvE4$_21EEENS_5tupleIJDpOT_EEES5_', symObjAddr: 0x2DD64, symBinAddr: 0x10003D8EC, symSize: 0x2C }
  - { offsetInCU: 0x4E4BB, offset: 0x6E0BD, size: 0x8, addend: 0x0, symName: '__ZNSt3__116forward_as_tupleB8ue170006IJNS_9allocatorIZ35test_high_contention_atomic_updatesvE4$_21EEEEENS_5tupleIJDpOT_EEES7_', symObjAddr: 0x2DD90, symBinAddr: 0x10003D918, symSize: 0x2C }
  - { offsetInCU: 0x4E51E, offset: 0x6E120, size: 0x8, addend: 0x0, symName: '__ZNSt3__13getB8ue170006ILm0EJOZ35test_high_contention_atomic_updatesvE4$_21EEERNS_13tuple_elementIXT_ENS_5tupleIJDpT0_EEEE4typeERS7_', symObjAddr: 0x2E0A8, symBinAddr: 0x10003DC30, symSize: 0x24 }
  - { offsetInCU: 0x4E561, offset: 0x6E163, size: 0x8, addend: 0x0, symName: '__ZNSt3__13getB8ue170006ILm0EJONS_9allocatorIZ35test_high_contention_atomic_updatesvE4$_21EEEEERNS_13tuple_elementIXT_ENS_5tupleIJDpT0_EEEE4typeERS9_', symObjAddr: 0x2E0E4, symBinAddr: 0x10003DC6C, symSize: 0x24 }
  - { offsetInCU: 0x4EA88, offset: 0x6E68A, size: 0x8, addend: 0x0, symName: '__ZNSt3__116forward_as_tupleB8ue170006IJRKZ35test_high_contention_atomic_updatesvE4$_21EEENS_5tupleIJDpOT_EEES7_', symObjAddr: 0x2E678, symBinAddr: 0x10003E200, symSize: 0x2C }
  - { offsetInCU: 0x4EAD6, offset: 0x6E6D8, size: 0x8, addend: 0x0, symName: '__ZNSt3__13getB8ue170006ILm0EJRKZ35test_high_contention_atomic_updatesvE4$_21EEERNS_13tuple_elementIXT_ENS_5tupleIJDpT0_EEEE4typeERS8_', symObjAddr: 0x2E868, symBinAddr: 0x10003E3F0, symSize: 0x24 }
  - { offsetInCU: 0x4EB19, offset: 0x6E71B, size: 0x8, addend: 0x0, symName: '__ZNSt3__116forward_as_tupleB8ue170006IJRKNS_9allocatorIZ35test_high_contention_atomic_updatesvE4$_21EEEEENS_5tupleIJDpOT_EEES9_', symObjAddr: 0x2EBC4, symBinAddr: 0x10003E74C, symSize: 0x2C }
  - { offsetInCU: 0x4EB67, offset: 0x6E769, size: 0x8, addend: 0x0, symName: '__ZNSt3__13getB8ue170006ILm0EJRKNS_9allocatorIZ35test_high_contention_atomic_updatesvE4$_21EEEEERNS_13tuple_elementIXT_ENS_5tupleIJDpT0_EEEE4typeERSA_', symObjAddr: 0x2EDA8, symBinAddr: 0x10003E930, symSize: 0x24 }
  - { offsetInCU: 0x4EBAA, offset: 0x6E7AC, size: 0x8, addend: 0x0, symName: '__ZNSt3__18__invokeB8ue170006IRZ35test_high_contention_atomic_updatesvE4$_21JEEEDTclclsr3stdE7declvalIT_EEspclsr3stdE7declvalIT0_EEEEOS3_DpOS4_', symObjAddr: 0x2EE64, symBinAddr: 0x10003E9EC, symSize: 0x24 }
  - { offsetInCU: 0x4ED46, offset: 0x6E948, size: 0x8, addend: 0x0, symName: '__ZNSt3__116forward_as_tupleB8ue170006IJZ41test_immediate_destruction_after_schedulevE4$_22EEENS_5tupleIJDpOT_EEES5_', symObjAddr: 0x2F5A8, symBinAddr: 0x10003F130, symSize: 0x2C }
  - { offsetInCU: 0x4ED7F, offset: 0x6E981, size: 0x8, addend: 0x0, symName: '__ZNSt3__116forward_as_tupleB8ue170006IJNS_9allocatorIZ41test_immediate_destruction_after_schedulevE4$_22EEEEENS_5tupleIJDpOT_EEES7_', symObjAddr: 0x2F5D4, symBinAddr: 0x10003F15C, symSize: 0x2C }
  - { offsetInCU: 0x4EDE2, offset: 0x6E9E4, size: 0x8, addend: 0x0, symName: '__ZNSt3__13getB8ue170006ILm0EJOZ41test_immediate_destruction_after_schedulevE4$_22EEERNS_13tuple_elementIXT_ENS_5tupleIJDpT0_EEEE4typeERS7_', symObjAddr: 0x2F8E0, symBinAddr: 0x10003F468, symSize: 0x24 }
  - { offsetInCU: 0x4EE25, offset: 0x6EA27, size: 0x8, addend: 0x0, symName: '__ZNSt3__13getB8ue170006ILm0EJONS_9allocatorIZ41test_immediate_destruction_after_schedulevE4$_22EEEEERNS_13tuple_elementIXT_ENS_5tupleIJDpT0_EEEE4typeERS9_', symObjAddr: 0x2F91C, symBinAddr: 0x10003F4A4, symSize: 0x24 }
  - { offsetInCU: 0x4F34C, offset: 0x6EF4E, size: 0x8, addend: 0x0, symName: '__ZNSt3__116forward_as_tupleB8ue170006IJRKZ41test_immediate_destruction_after_schedulevE4$_22EEENS_5tupleIJDpOT_EEES7_', symObjAddr: 0x2FEB0, symBinAddr: 0x10003FA38, symSize: 0x2C }
  - { offsetInCU: 0x4F39A, offset: 0x6EF9C, size: 0x8, addend: 0x0, symName: '__ZNSt3__13getB8ue170006ILm0EJRKZ41test_immediate_destruction_after_schedulevE4$_22EEERNS_13tuple_elementIXT_ENS_5tupleIJDpT0_EEEE4typeERS8_', symObjAddr: 0x30094, symBinAddr: 0x10003FC1C, symSize: 0x24 }
  - { offsetInCU: 0x4F3DD, offset: 0x6EFDF, size: 0x8, addend: 0x0, symName: '__ZNSt3__116forward_as_tupleB8ue170006IJRKNS_9allocatorIZ41test_immediate_destruction_after_schedulevE4$_22EEEEENS_5tupleIJDpOT_EEES9_', symObjAddr: 0x303F0, symBinAddr: 0x10003FF78, symSize: 0x2C }
  - { offsetInCU: 0x4F42B, offset: 0x6F02D, size: 0x8, addend: 0x0, symName: '__ZNSt3__13getB8ue170006ILm0EJRKNS_9allocatorIZ41test_immediate_destruction_after_schedulevE4$_22EEEEERNS_13tuple_elementIXT_ENS_5tupleIJDpT0_EEEE4typeERSA_', symObjAddr: 0x305D4, symBinAddr: 0x10004015C, symSize: 0x24 }
  - { offsetInCU: 0x4F46E, offset: 0x6F070, size: 0x8, addend: 0x0, symName: '__ZNSt3__18__invokeB8ue170006IRZ41test_immediate_destruction_after_schedulevE4$_22JEEEDTclclsr3stdE7declvalIT_EEspclsr3stdE7declvalIT0_EEEEOS3_DpOS4_', symObjAddr: 0x30690, symBinAddr: 0x100040218, symSize: 0x24 }
  - { offsetInCU: 0x4F8A4, offset: 0x6F4A6, size: 0x8, addend: 0x0, symName: '__ZNSt3__114__thread_proxyB8ue170006INS_5tupleIJNS_10unique_ptrINS_15__thread_structENS_14default_deleteIS3_EEEEZ37test_massive_schedule_wait_interleavevE4$_23EEEEEPvS9_', symObjAddr: 0x308A4, symBinAddr: 0x10004042C, symSize: 0x90 }
  - { offsetInCU: 0x4F901, offset: 0x6F503, size: 0x8, addend: 0x0, symName: '__ZNSt3__13getB8ue170006ILm0EJNS_10unique_ptrINS_15__thread_structENS_14default_deleteIS2_EEEEZ37test_massive_schedule_wait_interleavevE4$_23EEERNS_13tuple_elementIXT_ENS_5tupleIJDpT0_EEEE4typeERSB_', symObjAddr: 0x30BA8, symBinAddr: 0x100040730, symSize: 0x24 }
  - { offsetInCU: 0x4F949, offset: 0x6F54B, size: 0x8, addend: 0x0, symName: '__ZNSt3__116__thread_executeB8ue170006INS_10unique_ptrINS_15__thread_structENS_14default_deleteIS2_EEEEZ37test_massive_schedule_wait_interleavevE4$_23JEJEEEvRNS_5tupleIJT_T0_DpT1_EEENS_15__tuple_indicesIJXspT2_EEEE', symObjAddr: 0x30BCC, symBinAddr: 0x100040754, symSize: 0x28 }
  - { offsetInCU: 0x4F998, offset: 0x6F59A, size: 0x8, addend: 0x0, symName: '__ZNSt3__18__invokeB8ue170006IZ37test_massive_schedule_wait_interleavevE4$_23JEEEDTclclsr3stdE7declvalIT_EEspclsr3stdE7declvalIT0_EEEEOS2_DpOS3_', symObjAddr: 0x30BF4, symBinAddr: 0x10004077C, symSize: 0x24 }
  - { offsetInCU: 0x4F9D1, offset: 0x6F5D3, size: 0x8, addend: 0x0, symName: '__ZNSt3__13getB8ue170006ILm1EJNS_10unique_ptrINS_15__thread_structENS_14default_deleteIS2_EEEEZ37test_massive_schedule_wait_interleavevE4$_23EEERNS_13tuple_elementIXT_ENS_5tupleIJDpT0_EEEE4typeERSB_', symObjAddr: 0x30C18, symBinAddr: 0x1000407A0, symSize: 0x28 }
  - { offsetInCU: 0x4FB7C, offset: 0x6F77E, size: 0x8, addend: 0x0, symName: '__ZNSt3__116forward_as_tupleB8ue170006IJZZ37test_massive_schedule_wait_interleavevENK4$_23clEvEUlvE_EEENS_5tupleIJDpOT_EEES6_', symObjAddr: 0x314F4, symBinAddr: 0x10004107C, symSize: 0x2C }
  - { offsetInCU: 0x4FBB5, offset: 0x6F7B7, size: 0x8, addend: 0x0, symName: '__ZNSt3__116forward_as_tupleB8ue170006IJNS_9allocatorIZZ37test_massive_schedule_wait_interleavevENK4$_23clEvEUlvE_EEEEENS_5tupleIJDpOT_EEES8_', symObjAddr: 0x31520, symBinAddr: 0x1000410A8, symSize: 0x2C }
  - { offsetInCU: 0x4FC18, offset: 0x6F81A, size: 0x8, addend: 0x0, symName: '__ZNSt3__13getB8ue170006ILm0EJOZZ37test_massive_schedule_wait_interleavevENK4$_23clEvEUlvE_EEERNS_13tuple_elementIXT_ENS_5tupleIJDpT0_EEEE4typeERS8_', symObjAddr: 0x31838, symBinAddr: 0x1000413C0, symSize: 0x24 }
  - { offsetInCU: 0x4FC5B, offset: 0x6F85D, size: 0x8, addend: 0x0, symName: '__ZNSt3__13getB8ue170006ILm0EJONS_9allocatorIZZ37test_massive_schedule_wait_interleavevENK4$_23clEvEUlvE_EEEEERNS_13tuple_elementIXT_ENS_5tupleIJDpT0_EEEE4typeERSA_', symObjAddr: 0x31874, symBinAddr: 0x1000413FC, symSize: 0x24 }
  - { offsetInCU: 0x50182, offset: 0x6FD84, size: 0x8, addend: 0x0, symName: '__ZNSt3__116forward_as_tupleB8ue170006IJRKZZ37test_massive_schedule_wait_interleavevENK4$_23clEvEUlvE_EEENS_5tupleIJDpOT_EEES8_', symObjAddr: 0x31E08, symBinAddr: 0x100041990, symSize: 0x2C }
  - { offsetInCU: 0x501D0, offset: 0x6FDD2, size: 0x8, addend: 0x0, symName: '__ZNSt3__13getB8ue170006ILm0EJRKZZ37test_massive_schedule_wait_interleavevENK4$_23clEvEUlvE_EEERNS_13tuple_elementIXT_ENS_5tupleIJDpT0_EEEE4typeERS9_', symObjAddr: 0x31FF8, symBinAddr: 0x100041B80, symSize: 0x24 }
  - { offsetInCU: 0x50213, offset: 0x6FE15, size: 0x8, addend: 0x0, symName: '__ZNSt3__116forward_as_tupleB8ue170006IJRKNS_9allocatorIZZ37test_massive_schedule_wait_interleavevENK4$_23clEvEUlvE_EEEEENS_5tupleIJDpOT_EEESA_', symObjAddr: 0x32354, symBinAddr: 0x100041EDC, symSize: 0x2C }
  - { offsetInCU: 0x50261, offset: 0x6FE63, size: 0x8, addend: 0x0, symName: '__ZNSt3__13getB8ue170006ILm0EJRKNS_9allocatorIZZ37test_massive_schedule_wait_interleavevENK4$_23clEvEUlvE_EEEEERNS_13tuple_elementIXT_ENS_5tupleIJDpT0_EEEE4typeERSB_', symObjAddr: 0x32538, symBinAddr: 0x1000420C0, symSize: 0x24 }
  - { offsetInCU: 0x502A4, offset: 0x6FEA6, size: 0x8, addend: 0x0, symName: '__ZNSt3__18__invokeB8ue170006IRZZ37test_massive_schedule_wait_interleavevENK4$_23clEvEUlvE_JEEEDTclclsr3stdE7declvalIT_EEspclsr3stdE7declvalIT0_EEEEOS4_DpOS5_', symObjAddr: 0x325F4, symBinAddr: 0x10004217C, symSize: 0x24 }
  - { offsetInCU: 0x502DC, offset: 0x6FEDE, size: 0x8, addend: 0x0, symName: __ZNSt3__115make_error_codeB8ue170006ENS_11future_errcE, symObjAddr: 0x32E50, symBinAddr: 0x1000429A8, symSize: 0x40 }
  - { offsetInCU: 0x5030A, offset: 0x6FF0C, size: 0x8, addend: 0x0, symName: __ZNSt3__121__libcpp_relaxed_loadB8ue170006IlEET_PKS1_, symObjAddr: 0x32FC0, symBinAddr: 0x100042A9C, symSize: 0x20 }
  - { offsetInCU: 0x50340, offset: 0x6FF42, size: 0x8, addend: 0x0, symName: __ZNSt3__120__throw_future_errorB8ue170006ENS_11future_errcE, symObjAddr: 0x33104, symBinAddr: 0x100042BB0, symSize: 0x80 }
  - { offsetInCU: 0x50767, offset: 0x70369, size: 0x8, addend: 0x0, symName: '__ZNSt3__114__thread_proxyB8ue170006INS_5tupleIJNS_10unique_ptrINS_15__thread_structENS_14default_deleteIS3_EEEEZ39test_schedule_after_wait_multiple_timesvE4$_24EEEEEPvS9_', symObjAddr: 0x33500, symBinAddr: 0x100042F54, symSize: 0x90 }
  - { offsetInCU: 0x507C4, offset: 0x703C6, size: 0x8, addend: 0x0, symName: '__ZNSt3__13getB8ue170006ILm0EJNS_10unique_ptrINS_15__thread_structENS_14default_deleteIS2_EEEEZ39test_schedule_after_wait_multiple_timesvE4$_24EEERNS_13tuple_elementIXT_ENS_5tupleIJDpT0_EEEE4typeERSB_', symObjAddr: 0x33804, symBinAddr: 0x100043258, symSize: 0x24 }
  - { offsetInCU: 0x5080C, offset: 0x7040E, size: 0x8, addend: 0x0, symName: '__ZNSt3__116__thread_executeB8ue170006INS_10unique_ptrINS_15__thread_structENS_14default_deleteIS2_EEEEZ39test_schedule_after_wait_multiple_timesvE4$_24JEJEEEvRNS_5tupleIJT_T0_DpT1_EEENS_15__tuple_indicesIJXspT2_EEEE', symObjAddr: 0x33828, symBinAddr: 0x10004327C, symSize: 0x28 }
  - { offsetInCU: 0x5085B, offset: 0x7045D, size: 0x8, addend: 0x0, symName: '__ZNSt3__18__invokeB8ue170006IZ39test_schedule_after_wait_multiple_timesvE4$_24JEEEDTclclsr3stdE7declvalIT_EEspclsr3stdE7declvalIT0_EEEEOS2_DpOS3_', symObjAddr: 0x33850, symBinAddr: 0x1000432A4, symSize: 0x24 }
  - { offsetInCU: 0x50894, offset: 0x70496, size: 0x8, addend: 0x0, symName: '__ZNSt3__13getB8ue170006ILm1EJNS_10unique_ptrINS_15__thread_structENS_14default_deleteIS2_EEEEZ39test_schedule_after_wait_multiple_timesvE4$_24EEERNS_13tuple_elementIXT_ENS_5tupleIJDpT0_EEEE4typeERSB_', symObjAddr: 0x33874, symBinAddr: 0x1000432C8, symSize: 0x28 }
  - { offsetInCU: 0x50A3F, offset: 0x70641, size: 0x8, addend: 0x0, symName: '__ZNSt3__116forward_as_tupleB8ue170006IJZZ39test_schedule_after_wait_multiple_timesvENK4$_24clEvEUlvE_EEENS_5tupleIJDpOT_EEES6_', symObjAddr: 0x341BC, symBinAddr: 0x100043C10, symSize: 0x2C }
  - { offsetInCU: 0x50A78, offset: 0x7067A, size: 0x8, addend: 0x0, symName: '__ZNSt3__116forward_as_tupleB8ue170006IJNS_9allocatorIZZ39test_schedule_after_wait_multiple_timesvENK4$_24clEvEUlvE_EEEEENS_5tupleIJDpOT_EEES8_', symObjAddr: 0x341E8, symBinAddr: 0x100043C3C, symSize: 0x2C }
  - { offsetInCU: 0x50ADB, offset: 0x706DD, size: 0x8, addend: 0x0, symName: '__ZNSt3__13getB8ue170006ILm0EJOZZ39test_schedule_after_wait_multiple_timesvENK4$_24clEvEUlvE_EEERNS_13tuple_elementIXT_ENS_5tupleIJDpT0_EEEE4typeERS8_', symObjAddr: 0x34500, symBinAddr: 0x100043F54, symSize: 0x24 }
  - { offsetInCU: 0x50B1E, offset: 0x70720, size: 0x8, addend: 0x0, symName: '__ZNSt3__13getB8ue170006ILm0EJONS_9allocatorIZZ39test_schedule_after_wait_multiple_timesvENK4$_24clEvEUlvE_EEEEERNS_13tuple_elementIXT_ENS_5tupleIJDpT0_EEEE4typeERSA_', symObjAddr: 0x3453C, symBinAddr: 0x100043F90, symSize: 0x24 }
  - { offsetInCU: 0x51045, offset: 0x70C47, size: 0x8, addend: 0x0, symName: '__ZNSt3__116forward_as_tupleB8ue170006IJRKZZ39test_schedule_after_wait_multiple_timesvENK4$_24clEvEUlvE_EEENS_5tupleIJDpOT_EEES8_', symObjAddr: 0x34AD0, symBinAddr: 0x100044524, symSize: 0x2C }
  - { offsetInCU: 0x51093, offset: 0x70C95, size: 0x8, addend: 0x0, symName: '__ZNSt3__13getB8ue170006ILm0EJRKZZ39test_schedule_after_wait_multiple_timesvENK4$_24clEvEUlvE_EEERNS_13tuple_elementIXT_ENS_5tupleIJDpT0_EEEE4typeERS9_', symObjAddr: 0x34CC0, symBinAddr: 0x100044714, symSize: 0x24 }
  - { offsetInCU: 0x510D6, offset: 0x70CD8, size: 0x8, addend: 0x0, symName: '__ZNSt3__116forward_as_tupleB8ue170006IJRKNS_9allocatorIZZ39test_schedule_after_wait_multiple_timesvENK4$_24clEvEUlvE_EEEEENS_5tupleIJDpOT_EEESA_', symObjAddr: 0x3501C, symBinAddr: 0x100044A70, symSize: 0x2C }
  - { offsetInCU: 0x51124, offset: 0x70D26, size: 0x8, addend: 0x0, symName: '__ZNSt3__13getB8ue170006ILm0EJRKNS_9allocatorIZZ39test_schedule_after_wait_multiple_timesvENK4$_24clEvEUlvE_EEEEERNS_13tuple_elementIXT_ENS_5tupleIJDpT0_EEEE4typeERSB_', symObjAddr: 0x35200, symBinAddr: 0x100044C54, symSize: 0x24 }
  - { offsetInCU: 0x51167, offset: 0x70D69, size: 0x8, addend: 0x0, symName: '__ZNSt3__18__invokeB8ue170006IRZZ39test_schedule_after_wait_multiple_timesvENK4$_24clEvEUlvE_JEEEDTclclsr3stdE7declvalIT_EEspclsr3stdE7declvalIT0_EEEEOS4_DpOS5_', symObjAddr: 0x352BC, symBinAddr: 0x100044D10, symSize: 0x24 }
  - { offsetInCU: 0x51986, offset: 0x71588, size: 0x8, addend: 0x0, symName: '__ZNSt3__114__thread_proxyB8ue170006INS_5tupleIJNS_10unique_ptrINS_15__thread_structENS_14default_deleteIS3_EEEEZ31test_multiple_wait_inside_tasksvE4$_25EEEEEPvS9_', symObjAddr: 0x35D24, symBinAddr: 0x100045778, symSize: 0x90 }
  - { offsetInCU: 0x519E3, offset: 0x715E5, size: 0x8, addend: 0x0, symName: '__ZNSt3__13getB8ue170006ILm0EJNS_10unique_ptrINS_15__thread_structENS_14default_deleteIS2_EEEEZ31test_multiple_wait_inside_tasksvE4$_25EEERNS_13tuple_elementIXT_ENS_5tupleIJDpT0_EEEE4typeERSB_', symObjAddr: 0x36028, symBinAddr: 0x100045A7C, symSize: 0x24 }
  - { offsetInCU: 0x51A2B, offset: 0x7162D, size: 0x8, addend: 0x0, symName: '__ZNSt3__116__thread_executeB8ue170006INS_10unique_ptrINS_15__thread_structENS_14default_deleteIS2_EEEEZ31test_multiple_wait_inside_tasksvE4$_25JEJEEEvRNS_5tupleIJT_T0_DpT1_EEENS_15__tuple_indicesIJXspT2_EEEE', symObjAddr: 0x3604C, symBinAddr: 0x100045AA0, symSize: 0x28 }
  - { offsetInCU: 0x51A7A, offset: 0x7167C, size: 0x8, addend: 0x0, symName: '__ZNSt3__18__invokeB8ue170006IZ31test_multiple_wait_inside_tasksvE4$_25JEEEDTclclsr3stdE7declvalIT_EEspclsr3stdE7declvalIT0_EEEEOS2_DpOS3_', symObjAddr: 0x36074, symBinAddr: 0x100045AC8, symSize: 0x24 }
  - { offsetInCU: 0x51AB3, offset: 0x716B5, size: 0x8, addend: 0x0, symName: '__ZNSt3__13getB8ue170006ILm1EJNS_10unique_ptrINS_15__thread_structENS_14default_deleteIS2_EEEEZ31test_multiple_wait_inside_tasksvE4$_25EEERNS_13tuple_elementIXT_ENS_5tupleIJDpT0_EEEE4typeERSB_', symObjAddr: 0x36098, symBinAddr: 0x100045AEC, symSize: 0x28 }
  - { offsetInCU: 0x51C5E, offset: 0x71860, size: 0x8, addend: 0x0, symName: '__ZNSt3__116forward_as_tupleB8ue170006IJZZ31test_multiple_wait_inside_tasksvENK4$_25clEvEUlvE_EEENS_5tupleIJDpOT_EEES6_', symObjAddr: 0x36910, symBinAddr: 0x100046364, symSize: 0x2C }
  - { offsetInCU: 0x51C97, offset: 0x71899, size: 0x8, addend: 0x0, symName: '__ZNSt3__116forward_as_tupleB8ue170006IJNS_9allocatorIZZ31test_multiple_wait_inside_tasksvENK4$_25clEvEUlvE_EEEEENS_5tupleIJDpOT_EEES8_', symObjAddr: 0x3693C, symBinAddr: 0x100046390, symSize: 0x2C }
  - { offsetInCU: 0x51CFA, offset: 0x718FC, size: 0x8, addend: 0x0, symName: '__ZNSt3__13getB8ue170006ILm0EJOZZ31test_multiple_wait_inside_tasksvENK4$_25clEvEUlvE_EEERNS_13tuple_elementIXT_ENS_5tupleIJDpT0_EEEE4typeERS8_', symObjAddr: 0x36C54, symBinAddr: 0x1000466A8, symSize: 0x24 }
  - { offsetInCU: 0x51D3D, offset: 0x7193F, size: 0x8, addend: 0x0, symName: '__ZNSt3__13getB8ue170006ILm0EJONS_9allocatorIZZ31test_multiple_wait_inside_tasksvENK4$_25clEvEUlvE_EEEEERNS_13tuple_elementIXT_ENS_5tupleIJDpT0_EEEE4typeERSA_', symObjAddr: 0x36C90, symBinAddr: 0x1000466E4, symSize: 0x24 }
  - { offsetInCU: 0x52264, offset: 0x71E66, size: 0x8, addend: 0x0, symName: '__ZNSt3__116forward_as_tupleB8ue170006IJRKZZ31test_multiple_wait_inside_tasksvENK4$_25clEvEUlvE_EEENS_5tupleIJDpOT_EEES8_', symObjAddr: 0x37224, symBinAddr: 0x100046C78, symSize: 0x2C }
  - { offsetInCU: 0x522B2, offset: 0x71EB4, size: 0x8, addend: 0x0, symName: '__ZNSt3__13getB8ue170006ILm0EJRKZZ31test_multiple_wait_inside_tasksvENK4$_25clEvEUlvE_EEERNS_13tuple_elementIXT_ENS_5tupleIJDpT0_EEEE4typeERS9_', symObjAddr: 0x37414, symBinAddr: 0x100046E68, symSize: 0x24 }
  - { offsetInCU: 0x522F5, offset: 0x71EF7, size: 0x8, addend: 0x0, symName: '__ZNSt3__116forward_as_tupleB8ue170006IJRKNS_9allocatorIZZ31test_multiple_wait_inside_tasksvENK4$_25clEvEUlvE_EEEEENS_5tupleIJDpOT_EEESA_', symObjAddr: 0x37770, symBinAddr: 0x1000471C4, symSize: 0x2C }
  - { offsetInCU: 0x52343, offset: 0x71F45, size: 0x8, addend: 0x0, symName: '__ZNSt3__13getB8ue170006ILm0EJRKNS_9allocatorIZZ31test_multiple_wait_inside_tasksvENK4$_25clEvEUlvE_EEEEERNS_13tuple_elementIXT_ENS_5tupleIJDpT0_EEEE4typeERSB_', symObjAddr: 0x37954, symBinAddr: 0x1000473A8, symSize: 0x24 }
  - { offsetInCU: 0x52386, offset: 0x71F88, size: 0x8, addend: 0x0, symName: '__ZNSt3__18__invokeB8ue170006IRZZ31test_multiple_wait_inside_tasksvENK4$_25clEvEUlvE_JEEEDTclclsr3stdE7declvalIT_EEspclsr3stdE7declvalIT0_EEEEOS4_DpOS5_', symObjAddr: 0x37A10, symBinAddr: 0x100047464, symSize: 0x24 }
  - { offsetInCU: 0x527BC, offset: 0x723BE, size: 0x8, addend: 0x0, symName: '__ZNSt3__114__thread_proxyB8ue170006INS_5tupleIJNS_10unique_ptrINS_15__thread_structENS_14default_deleteIS3_EEEEZ38test_concurrent_schedule_wait_parallelvE4$_26EEEEEPvS9_', symObjAddr: 0x38088, symBinAddr: 0x100047ADC, symSize: 0x90 }
  - { offsetInCU: 0x52819, offset: 0x7241B, size: 0x8, addend: 0x0, symName: '__ZNSt3__13getB8ue170006ILm0EJNS_10unique_ptrINS_15__thread_structENS_14default_deleteIS2_EEEEZ38test_concurrent_schedule_wait_parallelvE4$_26EEERNS_13tuple_elementIXT_ENS_5tupleIJDpT0_EEEE4typeERSB_', symObjAddr: 0x3838C, symBinAddr: 0x100047DE0, symSize: 0x24 }
  - { offsetInCU: 0x52861, offset: 0x72463, size: 0x8, addend: 0x0, symName: '__ZNSt3__116__thread_executeB8ue170006INS_10unique_ptrINS_15__thread_structENS_14default_deleteIS2_EEEEZ38test_concurrent_schedule_wait_parallelvE4$_26JEJEEEvRNS_5tupleIJT_T0_DpT1_EEENS_15__tuple_indicesIJXspT2_EEEE', symObjAddr: 0x383B0, symBinAddr: 0x100047E04, symSize: 0x28 }
  - { offsetInCU: 0x528B0, offset: 0x724B2, size: 0x8, addend: 0x0, symName: '__ZNSt3__18__invokeB8ue170006IZ38test_concurrent_schedule_wait_parallelvE4$_26JEEEDTclclsr3stdE7declvalIT_EEspclsr3stdE7declvalIT0_EEEEOS2_DpOS3_', symObjAddr: 0x383D8, symBinAddr: 0x100047E2C, symSize: 0x24 }
  - { offsetInCU: 0x528E9, offset: 0x724EB, size: 0x8, addend: 0x0, symName: '__ZNSt3__13getB8ue170006ILm1EJNS_10unique_ptrINS_15__thread_structENS_14default_deleteIS2_EEEEZ38test_concurrent_schedule_wait_parallelvE4$_26EEERNS_13tuple_elementIXT_ENS_5tupleIJDpT0_EEEE4typeERSB_', symObjAddr: 0x383FC, symBinAddr: 0x100047E50, symSize: 0x28 }
  - { offsetInCU: 0x52A94, offset: 0x72696, size: 0x8, addend: 0x0, symName: '__ZNSt3__116forward_as_tupleB8ue170006IJZZ38test_concurrent_schedule_wait_parallelvENK4$_26clEvEUlvE_EEENS_5tupleIJDpOT_EEES6_', symObjAddr: 0x38C20, symBinAddr: 0x100048674, symSize: 0x2C }
  - { offsetInCU: 0x52ACD, offset: 0x726CF, size: 0x8, addend: 0x0, symName: '__ZNSt3__116forward_as_tupleB8ue170006IJNS_9allocatorIZZ38test_concurrent_schedule_wait_parallelvENK4$_26clEvEUlvE_EEEEENS_5tupleIJDpOT_EEES8_', symObjAddr: 0x38C4C, symBinAddr: 0x1000486A0, symSize: 0x2C }
  - { offsetInCU: 0x52B30, offset: 0x72732, size: 0x8, addend: 0x0, symName: '__ZNSt3__13getB8ue170006ILm0EJOZZ38test_concurrent_schedule_wait_parallelvENK4$_26clEvEUlvE_EEERNS_13tuple_elementIXT_ENS_5tupleIJDpT0_EEEE4typeERS8_', symObjAddr: 0x38F64, symBinAddr: 0x1000489B8, symSize: 0x24 }
  - { offsetInCU: 0x52B73, offset: 0x72775, size: 0x8, addend: 0x0, symName: '__ZNSt3__13getB8ue170006ILm0EJONS_9allocatorIZZ38test_concurrent_schedule_wait_parallelvENK4$_26clEvEUlvE_EEEEERNS_13tuple_elementIXT_ENS_5tupleIJDpT0_EEEE4typeERSA_', symObjAddr: 0x38FA0, symBinAddr: 0x1000489F4, symSize: 0x24 }
  - { offsetInCU: 0x5309A, offset: 0x72C9C, size: 0x8, addend: 0x0, symName: '__ZNSt3__116forward_as_tupleB8ue170006IJRKZZ38test_concurrent_schedule_wait_parallelvENK4$_26clEvEUlvE_EEENS_5tupleIJDpOT_EEES8_', symObjAddr: 0x39534, symBinAddr: 0x100048F88, symSize: 0x2C }
  - { offsetInCU: 0x530E8, offset: 0x72CEA, size: 0x8, addend: 0x0, symName: '__ZNSt3__13getB8ue170006ILm0EJRKZZ38test_concurrent_schedule_wait_parallelvENK4$_26clEvEUlvE_EEERNS_13tuple_elementIXT_ENS_5tupleIJDpT0_EEEE4typeERS9_', symObjAddr: 0x39724, symBinAddr: 0x100049178, symSize: 0x24 }
  - { offsetInCU: 0x5312B, offset: 0x72D2D, size: 0x8, addend: 0x0, symName: '__ZNSt3__116forward_as_tupleB8ue170006IJRKNS_9allocatorIZZ38test_concurrent_schedule_wait_parallelvENK4$_26clEvEUlvE_EEEEENS_5tupleIJDpOT_EEESA_', symObjAddr: 0x39A80, symBinAddr: 0x1000494D4, symSize: 0x2C }
  - { offsetInCU: 0x53179, offset: 0x72D7B, size: 0x8, addend: 0x0, symName: '__ZNSt3__13getB8ue170006ILm0EJRKNS_9allocatorIZZ38test_concurrent_schedule_wait_parallelvENK4$_26clEvEUlvE_EEEEERNS_13tuple_elementIXT_ENS_5tupleIJDpT0_EEEE4typeERSB_', symObjAddr: 0x39C64, symBinAddr: 0x1000496B8, symSize: 0x24 }
  - { offsetInCU: 0x531BC, offset: 0x72DBE, size: 0x8, addend: 0x0, symName: '__ZNSt3__18__invokeB8ue170006IRZZ38test_concurrent_schedule_wait_parallelvENK4$_26clEvEUlvE_JEEEDTclclsr3stdE7declvalIT_EEspclsr3stdE7declvalIT0_EEEEOS4_DpOS5_', symObjAddr: 0x39D20, symBinAddr: 0x100049774, symSize: 0x24 }
  - { offsetInCU: 0x535F2, offset: 0x731F4, size: 0x8, addend: 0x0, symName: '__ZNSt3__114__thread_proxyB8ue170006INS_5tupleIJNS_10unique_ptrINS_15__thread_structENS_14default_deleteIS3_EEEEZ38test_concurrent_schedule_wait_parallelvE4$_27EEEEEPvS9_', symObjAddr: 0x3A3C8, symBinAddr: 0x100049E1C, symSize: 0x90 }
  - { offsetInCU: 0x5364F, offset: 0x73251, size: 0x8, addend: 0x0, symName: '__ZNSt3__13getB8ue170006ILm0EJNS_10unique_ptrINS_15__thread_structENS_14default_deleteIS2_EEEEZ38test_concurrent_schedule_wait_parallelvE4$_27EEERNS_13tuple_elementIXT_ENS_5tupleIJDpT0_EEEE4typeERSB_', symObjAddr: 0x3A6CC, symBinAddr: 0x10004A120, symSize: 0x24 }
  - { offsetInCU: 0x53697, offset: 0x73299, size: 0x8, addend: 0x0, symName: '__ZNSt3__116__thread_executeB8ue170006INS_10unique_ptrINS_15__thread_structENS_14default_deleteIS2_EEEEZ38test_concurrent_schedule_wait_parallelvE4$_27JEJEEEvRNS_5tupleIJT_T0_DpT1_EEENS_15__tuple_indicesIJXspT2_EEEE', symObjAddr: 0x3A6F0, symBinAddr: 0x10004A144, symSize: 0x28 }
  - { offsetInCU: 0x536E6, offset: 0x732E8, size: 0x8, addend: 0x0, symName: '__ZNSt3__18__invokeB8ue170006IZ38test_concurrent_schedule_wait_parallelvE4$_27JEEEDTclclsr3stdE7declvalIT_EEspclsr3stdE7declvalIT0_EEEEOS2_DpOS3_', symObjAddr: 0x3A718, symBinAddr: 0x10004A16C, symSize: 0x24 }
  - { offsetInCU: 0x5371F, offset: 0x73321, size: 0x8, addend: 0x0, symName: '__ZNSt3__13getB8ue170006ILm1EJNS_10unique_ptrINS_15__thread_structENS_14default_deleteIS2_EEEEZ38test_concurrent_schedule_wait_parallelvE4$_27EEERNS_13tuple_elementIXT_ENS_5tupleIJDpT0_EEEE4typeERSB_', symObjAddr: 0x3A73C, symBinAddr: 0x10004A190, symSize: 0x28 }
  - { offsetInCU: 0x538CA, offset: 0x734CC, size: 0x8, addend: 0x0, symName: '__ZNSt3__116forward_as_tupleB8ue170006IJZ31test_destructor_waits_for_tasksvE4$_28EEENS_5tupleIJDpOT_EEES5_', symObjAddr: 0x3B138, symBinAddr: 0x10004AB8C, symSize: 0x2C }
  - { offsetInCU: 0x53903, offset: 0x73505, size: 0x8, addend: 0x0, symName: '__ZNSt3__116forward_as_tupleB8ue170006IJNS_9allocatorIZ31test_destructor_waits_for_tasksvE4$_28EEEEENS_5tupleIJDpOT_EEES7_', symObjAddr: 0x3B164, symBinAddr: 0x10004ABB8, symSize: 0x2C }
  - { offsetInCU: 0x53966, offset: 0x73568, size: 0x8, addend: 0x0, symName: '__ZNSt3__13getB8ue170006ILm0EJOZ31test_destructor_waits_for_tasksvE4$_28EEERNS_13tuple_elementIXT_ENS_5tupleIJDpT0_EEEE4typeERS7_', symObjAddr: 0x3B470, symBinAddr: 0x10004AEC4, symSize: 0x24 }
  - { offsetInCU: 0x539A9, offset: 0x735AB, size: 0x8, addend: 0x0, symName: '__ZNSt3__13getB8ue170006ILm0EJONS_9allocatorIZ31test_destructor_waits_for_tasksvE4$_28EEEEERNS_13tuple_elementIXT_ENS_5tupleIJDpT0_EEEE4typeERS9_', symObjAddr: 0x3B4AC, symBinAddr: 0x10004AF00, symSize: 0x24 }
  - { offsetInCU: 0x53ED0, offset: 0x73AD2, size: 0x8, addend: 0x0, symName: '__ZNSt3__116forward_as_tupleB8ue170006IJRKZ31test_destructor_waits_for_tasksvE4$_28EEENS_5tupleIJDpOT_EEES7_', symObjAddr: 0x3BA40, symBinAddr: 0x10004B494, symSize: 0x2C }
  - { offsetInCU: 0x53F1E, offset: 0x73B20, size: 0x8, addend: 0x0, symName: '__ZNSt3__13getB8ue170006ILm0EJRKZ31test_destructor_waits_for_tasksvE4$_28EEERNS_13tuple_elementIXT_ENS_5tupleIJDpT0_EEEE4typeERS8_', symObjAddr: 0x3BC24, symBinAddr: 0x10004B678, symSize: 0x24 }
  - { offsetInCU: 0x53F61, offset: 0x73B63, size: 0x8, addend: 0x0, symName: '__ZNSt3__116forward_as_tupleB8ue170006IJRKNS_9allocatorIZ31test_destructor_waits_for_tasksvE4$_28EEEEENS_5tupleIJDpOT_EEES9_', symObjAddr: 0x3BF80, symBinAddr: 0x10004B9D4, symSize: 0x2C }
  - { offsetInCU: 0x53FAF, offset: 0x73BB1, size: 0x8, addend: 0x0, symName: '__ZNSt3__13getB8ue170006ILm0EJRKNS_9allocatorIZ31test_destructor_waits_for_tasksvE4$_28EEEEERNS_13tuple_elementIXT_ENS_5tupleIJDpT0_EEEE4typeERSA_', symObjAddr: 0x3C164, symBinAddr: 0x10004BBB8, symSize: 0x24 }
  - { offsetInCU: 0x53FF2, offset: 0x73BF4, size: 0x8, addend: 0x0, symName: '__ZNSt3__18__invokeB8ue170006IRZ31test_destructor_waits_for_tasksvE4$_28JEEEDTclclsr3stdE7declvalIT_EEspclsr3stdE7declvalIT0_EEEEOS3_DpOS4_', symObjAddr: 0x3C220, symBinAddr: 0x10004BC74, symSize: 0x24 }
  - { offsetInCU: 0x5418E, offset: 0x73D90, size: 0x8, addend: 0x0, symName: '__ZNSt3__116forward_as_tupleB8ue170006IJZ27test_repeated_pool_creationvE4$_29EEENS_5tupleIJDpOT_EEES5_', symObjAddr: 0x3C960, symBinAddr: 0x10004C3B4, symSize: 0x2C }
  - { offsetInCU: 0x541C7, offset: 0x73DC9, size: 0x8, addend: 0x0, symName: '__ZNSt3__116forward_as_tupleB8ue170006IJNS_9allocatorIZ27test_repeated_pool_creationvE4$_29EEEEENS_5tupleIJDpOT_EEES7_', symObjAddr: 0x3C98C, symBinAddr: 0x10004C3E0, symSize: 0x2C }
  - { offsetInCU: 0x5422A, offset: 0x73E2C, size: 0x8, addend: 0x0, symName: '__ZNSt3__13getB8ue170006ILm0EJOZ27test_repeated_pool_creationvE4$_29EEERNS_13tuple_elementIXT_ENS_5tupleIJDpT0_EEEE4typeERS7_', symObjAddr: 0x3CCA4, symBinAddr: 0x10004C6F8, symSize: 0x24 }
  - { offsetInCU: 0x5426D, offset: 0x73E6F, size: 0x8, addend: 0x0, symName: '__ZNSt3__13getB8ue170006ILm0EJONS_9allocatorIZ27test_repeated_pool_creationvE4$_29EEEEERNS_13tuple_elementIXT_ENS_5tupleIJDpT0_EEEE4typeERS9_', symObjAddr: 0x3CCE0, symBinAddr: 0x10004C734, symSize: 0x24 }
  - { offsetInCU: 0x54794, offset: 0x74396, size: 0x8, addend: 0x0, symName: '__ZNSt3__116forward_as_tupleB8ue170006IJRKZ27test_repeated_pool_creationvE4$_29EEENS_5tupleIJDpOT_EEES7_', symObjAddr: 0x3D274, symBinAddr: 0x10004CCC8, symSize: 0x2C }
  - { offsetInCU: 0x547E2, offset: 0x743E4, size: 0x8, addend: 0x0, symName: '__ZNSt3__13getB8ue170006ILm0EJRKZ27test_repeated_pool_creationvE4$_29EEERNS_13tuple_elementIXT_ENS_5tupleIJDpT0_EEEE4typeERS8_', symObjAddr: 0x3D464, symBinAddr: 0x10004CEB8, symSize: 0x24 }
  - { offsetInCU: 0x54825, offset: 0x74427, size: 0x8, addend: 0x0, symName: '__ZNSt3__116forward_as_tupleB8ue170006IJRKNS_9allocatorIZ27test_repeated_pool_creationvE4$_29EEEEENS_5tupleIJDpOT_EEES9_', symObjAddr: 0x3D7C0, symBinAddr: 0x10004D214, symSize: 0x2C }
  - { offsetInCU: 0x54873, offset: 0x74475, size: 0x8, addend: 0x0, symName: '__ZNSt3__13getB8ue170006ILm0EJRKNS_9allocatorIZ27test_repeated_pool_creationvE4$_29EEEEERNS_13tuple_elementIXT_ENS_5tupleIJDpT0_EEEE4typeERSA_', symObjAddr: 0x3D9A4, symBinAddr: 0x10004D3F8, symSize: 0x24 }
  - { offsetInCU: 0x548B6, offset: 0x744B8, size: 0x8, addend: 0x0, symName: '__ZNSt3__18__invokeB8ue170006IRZ27test_repeated_pool_creationvE4$_29JEEEDTclclsr3stdE7declvalIT_EEspclsr3stdE7declvalIT0_EEEEOS3_DpOS4_', symObjAddr: 0x3DA60, symBinAddr: 0x10004D4B4, symSize: 0x24 }
  - { offsetInCU: 0x54CEC, offset: 0x748EE, size: 0x8, addend: 0x0, symName: '__ZNSt3__114__thread_proxyB8ue170006INS_5tupleIJNS_10unique_ptrINS_15__thread_structENS_14default_deleteIS3_EEEEZ27test_deep_nested_schedulingvE4$_30EEEEEPvS9_', symObjAddr: 0x3DC80, symBinAddr: 0x10004D6D4, symSize: 0x90 }
  - { offsetInCU: 0x54D49, offset: 0x7494B, size: 0x8, addend: 0x0, symName: '__ZNSt3__13getB8ue170006ILm0EJNS_10unique_ptrINS_15__thread_structENS_14default_deleteIS2_EEEEZ27test_deep_nested_schedulingvE4$_30EEERNS_13tuple_elementIXT_ENS_5tupleIJDpT0_EEEE4typeERSB_', symObjAddr: 0x3DF84, symBinAddr: 0x10004D9D8, symSize: 0x24 }
  - { offsetInCU: 0x54D91, offset: 0x74993, size: 0x8, addend: 0x0, symName: '__ZNSt3__116__thread_executeB8ue170006INS_10unique_ptrINS_15__thread_structENS_14default_deleteIS2_EEEEZ27test_deep_nested_schedulingvE4$_30JEJEEEvRNS_5tupleIJT_T0_DpT1_EEENS_15__tuple_indicesIJXspT2_EEEE', symObjAddr: 0x3DFA8, symBinAddr: 0x10004D9FC, symSize: 0x28 }
  - { offsetInCU: 0x54DE0, offset: 0x749E2, size: 0x8, addend: 0x0, symName: '__ZNSt3__18__invokeB8ue170006IZ27test_deep_nested_schedulingvE4$_30JEEEDTclclsr3stdE7declvalIT_EEspclsr3stdE7declvalIT0_EEEEOS2_DpOS3_', symObjAddr: 0x3DFD0, symBinAddr: 0x10004DA24, symSize: 0x24 }
  - { offsetInCU: 0x54E19, offset: 0x74A1B, size: 0x8, addend: 0x0, symName: '__ZNSt3__13getB8ue170006ILm1EJNS_10unique_ptrINS_15__thread_structENS_14default_deleteIS2_EEEEZ27test_deep_nested_schedulingvE4$_30EEERNS_13tuple_elementIXT_ENS_5tupleIJDpT0_EEEE4typeERSB_', symObjAddr: 0x3DFF4, symBinAddr: 0x10004DA48, symSize: 0x28 }
  - { offsetInCU: 0x54FC4, offset: 0x74BC6, size: 0x8, addend: 0x0, symName: '__ZNSt3__116forward_as_tupleB8ue170006IJZZ27test_deep_nested_schedulingvENK4$_30clEvEUlvE_EEENS_5tupleIJDpOT_EEES6_', symObjAddr: 0x3E8D0, symBinAddr: 0x10004E324, symSize: 0x2C }
  - { offsetInCU: 0x54FFD, offset: 0x74BFF, size: 0x8, addend: 0x0, symName: '__ZNSt3__116forward_as_tupleB8ue170006IJNS_9allocatorIZZ27test_deep_nested_schedulingvENK4$_30clEvEUlvE_EEEEENS_5tupleIJDpOT_EEES8_', symObjAddr: 0x3E8FC, symBinAddr: 0x10004E350, symSize: 0x2C }
  - { offsetInCU: 0x55060, offset: 0x74C62, size: 0x8, addend: 0x0, symName: '__ZNSt3__13getB8ue170006ILm0EJOZZ27test_deep_nested_schedulingvENK4$_30clEvEUlvE_EEERNS_13tuple_elementIXT_ENS_5tupleIJDpT0_EEEE4typeERS8_', symObjAddr: 0x3EC14, symBinAddr: 0x10004E668, symSize: 0x24 }
  - { offsetInCU: 0x550A3, offset: 0x74CA5, size: 0x8, addend: 0x0, symName: '__ZNSt3__13getB8ue170006ILm0EJONS_9allocatorIZZ27test_deep_nested_schedulingvENK4$_30clEvEUlvE_EEEEERNS_13tuple_elementIXT_ENS_5tupleIJDpT0_EEEE4typeERSA_', symObjAddr: 0x3EC50, symBinAddr: 0x10004E6A4, symSize: 0x24 }
  - { offsetInCU: 0x555CA, offset: 0x751CC, size: 0x8, addend: 0x0, symName: '__ZNSt3__116forward_as_tupleB8ue170006IJRKZZ27test_deep_nested_schedulingvENK4$_30clEvEUlvE_EEENS_5tupleIJDpOT_EEES8_', symObjAddr: 0x3F1EC, symBinAddr: 0x10004EC40, symSize: 0x2C }
  - { offsetInCU: 0x55618, offset: 0x7521A, size: 0x8, addend: 0x0, symName: '__ZNSt3__13getB8ue170006ILm0EJRKZZ27test_deep_nested_schedulingvENK4$_30clEvEUlvE_EEERNS_13tuple_elementIXT_ENS_5tupleIJDpT0_EEEE4typeERS9_', symObjAddr: 0x3F3DC, symBinAddr: 0x10004EE30, symSize: 0x24 }
  - { offsetInCU: 0x5565B, offset: 0x7525D, size: 0x8, addend: 0x0, symName: '__ZNSt3__116forward_as_tupleB8ue170006IJRKNS_9allocatorIZZ27test_deep_nested_schedulingvENK4$_30clEvEUlvE_EEEEENS_5tupleIJDpOT_EEESA_', symObjAddr: 0x3F73C, symBinAddr: 0x10004F190, symSize: 0x2C }
  - { offsetInCU: 0x556A9, offset: 0x752AB, size: 0x8, addend: 0x0, symName: '__ZNSt3__13getB8ue170006ILm0EJRKNS_9allocatorIZZ27test_deep_nested_schedulingvENK4$_30clEvEUlvE_EEEEERNS_13tuple_elementIXT_ENS_5tupleIJDpT0_EEEE4typeERSB_', symObjAddr: 0x3F920, symBinAddr: 0x10004F374, symSize: 0x24 }
  - { offsetInCU: 0x556EC, offset: 0x752EE, size: 0x8, addend: 0x0, symName: '__ZNSt3__18__invokeB8ue170006IRZZ27test_deep_nested_schedulingvENK4$_30clEvEUlvE_JEEEDTclclsr3stdE7declvalIT_EEspclsr3stdE7declvalIT0_EEEEOS4_DpOS5_', symObjAddr: 0x3F9DC, symBinAddr: 0x10004F430, symSize: 0x24 }
  - { offsetInCU: 0x55888, offset: 0x7548A, size: 0x8, addend: 0x0, symName: '__ZNSt3__116forward_as_tupleB8ue170006IJZZZ27test_deep_nested_schedulingvENK4$_30clEvENKUlvE_clEvEUlvE_EEENS_5tupleIJDpOT_EEES7_', symObjAddr: 0x401F0, symBinAddr: 0x10004FC44, symSize: 0x2C }
  - { offsetInCU: 0x558C1, offset: 0x754C3, size: 0x8, addend: 0x0, symName: '__ZNSt3__116forward_as_tupleB8ue170006IJNS_9allocatorIZZZ27test_deep_nested_schedulingvENK4$_30clEvENKUlvE_clEvEUlvE_EEEEENS_5tupleIJDpOT_EEES9_', symObjAddr: 0x4021C, symBinAddr: 0x10004FC70, symSize: 0x2C }
  - { offsetInCU: 0x55924, offset: 0x75526, size: 0x8, addend: 0x0, symName: '__ZNSt3__13getB8ue170006ILm0EJOZZZ27test_deep_nested_schedulingvENK4$_30clEvENKUlvE_clEvEUlvE_EEERNS_13tuple_elementIXT_ENS_5tupleIJDpT0_EEEE4typeERS9_', symObjAddr: 0x40534, symBinAddr: 0x10004FF88, symSize: 0x24 }
  - { offsetInCU: 0x55967, offset: 0x75569, size: 0x8, addend: 0x0, symName: '__ZNSt3__13getB8ue170006ILm0EJONS_9allocatorIZZZ27test_deep_nested_schedulingvENK4$_30clEvENKUlvE_clEvEUlvE_EEEEERNS_13tuple_elementIXT_ENS_5tupleIJDpT0_EEEE4typeERSB_', symObjAddr: 0x40570, symBinAddr: 0x10004FFC4, symSize: 0x24 }
  - { offsetInCU: 0x55E8E, offset: 0x75A90, size: 0x8, addend: 0x0, symName: '__ZNSt3__116forward_as_tupleB8ue170006IJRKZZZ27test_deep_nested_schedulingvENK4$_30clEvENKUlvE_clEvEUlvE_EEENS_5tupleIJDpOT_EEES9_', symObjAddr: 0x40B0C, symBinAddr: 0x100050560, symSize: 0x2C }
  - { offsetInCU: 0x55EDC, offset: 0x75ADE, size: 0x8, addend: 0x0, symName: '__ZNSt3__13getB8ue170006ILm0EJRKZZZ27test_deep_nested_schedulingvENK4$_30clEvENKUlvE_clEvEUlvE_EEERNS_13tuple_elementIXT_ENS_5tupleIJDpT0_EEEE4typeERSA_', symObjAddr: 0x40CFC, symBinAddr: 0x100050750, symSize: 0x24 }
  - { offsetInCU: 0x55F1F, offset: 0x75B21, size: 0x8, addend: 0x0, symName: '__ZNSt3__116forward_as_tupleB8ue170006IJRKNS_9allocatorIZZZ27test_deep_nested_schedulingvENK4$_30clEvENKUlvE_clEvEUlvE_EEEEENS_5tupleIJDpOT_EEESB_', symObjAddr: 0x4105C, symBinAddr: 0x100050AB0, symSize: 0x2C }
  - { offsetInCU: 0x55F6D, offset: 0x75B6F, size: 0x8, addend: 0x0, symName: '__ZNSt3__13getB8ue170006ILm0EJRKNS_9allocatorIZZZ27test_deep_nested_schedulingvENK4$_30clEvENKUlvE_clEvEUlvE_EEEEERNS_13tuple_elementIXT_ENS_5tupleIJDpT0_EEEE4typeERSC_', symObjAddr: 0x41240, symBinAddr: 0x100050C94, symSize: 0x24 }
  - { offsetInCU: 0x55FB0, offset: 0x75BB2, size: 0x8, addend: 0x0, symName: '__ZNSt3__18__invokeB8ue170006IRZZZ27test_deep_nested_schedulingvENK4$_30clEvENKUlvE_clEvEUlvE_JEEEDTclclsr3stdE7declvalIT_EEspclsr3stdE7declvalIT0_EEEEOS5_DpOS6_', symObjAddr: 0x412FC, symBinAddr: 0x100050D50, symSize: 0x24 }
  - { offsetInCU: 0x5614C, offset: 0x75D4E, size: 0x8, addend: 0x0, symName: '__ZNSt3__116forward_as_tupleB8ue170006IJZZZZ27test_deep_nested_schedulingvENK4$_30clEvENKUlvE_clEvENKUlvE_clEvEUlvE_EEENS_5tupleIJDpOT_EEES8_', symObjAddr: 0x41AF8, symBinAddr: 0x10005154C, symSize: 0x2C }
  - { offsetInCU: 0x56185, offset: 0x75D87, size: 0x8, addend: 0x0, symName: '__ZNSt3__116forward_as_tupleB8ue170006IJNS_9allocatorIZZZZ27test_deep_nested_schedulingvENK4$_30clEvENKUlvE_clEvENKUlvE_clEvEUlvE_EEEEENS_5tupleIJDpOT_EEESA_', symObjAddr: 0x41B24, symBinAddr: 0x100051578, symSize: 0x2C }
  - { offsetInCU: 0x561E8, offset: 0x75DEA, size: 0x8, addend: 0x0, symName: '__ZNSt3__13getB8ue170006ILm0EJOZZZZ27test_deep_nested_schedulingvENK4$_30clEvENKUlvE_clEvENKUlvE_clEvEUlvE_EEERNS_13tuple_elementIXT_ENS_5tupleIJDpT0_EEEE4typeERSA_', symObjAddr: 0x41E3C, symBinAddr: 0x100051890, symSize: 0x24 }
  - { offsetInCU: 0x5622B, offset: 0x75E2D, size: 0x8, addend: 0x0, symName: '__ZNSt3__13getB8ue170006ILm0EJONS_9allocatorIZZZZ27test_deep_nested_schedulingvENK4$_30clEvENKUlvE_clEvENKUlvE_clEvEUlvE_EEEEERNS_13tuple_elementIXT_ENS_5tupleIJDpT0_EEEE4typeERSC_', symObjAddr: 0x41E78, symBinAddr: 0x1000518CC, symSize: 0x24 }
  - { offsetInCU: 0x56752, offset: 0x76354, size: 0x8, addend: 0x0, symName: '__ZNSt3__116forward_as_tupleB8ue170006IJRKZZZZ27test_deep_nested_schedulingvENK4$_30clEvENKUlvE_clEvENKUlvE_clEvEUlvE_EEENS_5tupleIJDpOT_EEESA_', symObjAddr: 0x4240C, symBinAddr: 0x100051E60, symSize: 0x2C }
  - { offsetInCU: 0x567A0, offset: 0x763A2, size: 0x8, addend: 0x0, symName: '__ZNSt3__13getB8ue170006ILm0EJRKZZZZ27test_deep_nested_schedulingvENK4$_30clEvENKUlvE_clEvENKUlvE_clEvEUlvE_EEERNS_13tuple_elementIXT_ENS_5tupleIJDpT0_EEEE4typeERSB_', symObjAddr: 0x425FC, symBinAddr: 0x100052050, symSize: 0x24 }
  - { offsetInCU: 0x567E3, offset: 0x763E5, size: 0x8, addend: 0x0, symName: '__ZNSt3__116forward_as_tupleB8ue170006IJRKNS_9allocatorIZZZZ27test_deep_nested_schedulingvENK4$_30clEvENKUlvE_clEvENKUlvE_clEvEUlvE_EEEEENS_5tupleIJDpOT_EEESC_', symObjAddr: 0x42958, symBinAddr: 0x1000523AC, symSize: 0x2C }
  - { offsetInCU: 0x56831, offset: 0x76433, size: 0x8, addend: 0x0, symName: '__ZNSt3__13getB8ue170006ILm0EJRKNS_9allocatorIZZZZ27test_deep_nested_schedulingvENK4$_30clEvENKUlvE_clEvENKUlvE_clEvEUlvE_EEEEERNS_13tuple_elementIXT_ENS_5tupleIJDpT0_EEEE4typeERSD_', symObjAddr: 0x42B3C, symBinAddr: 0x100052590, symSize: 0x24 }
  - { offsetInCU: 0x56874, offset: 0x76476, size: 0x8, addend: 0x0, symName: '__ZNSt3__18__invokeB8ue170006IRZZZZ27test_deep_nested_schedulingvENK4$_30clEvENKUlvE_clEvENKUlvE_clEvEUlvE_JEEEDTclclsr3stdE7declvalIT_EEspclsr3stdE7declvalIT0_EEEEOS6_DpOS7_', symObjAddr: 0x42BF8, symBinAddr: 0x10005264C, symSize: 0x24 }
  - { offsetInCU: 0x56CAA, offset: 0x768AC, size: 0x8, addend: 0x0, symName: '__ZNSt3__114__thread_proxyB8ue170006INS_5tupleIJNS_10unique_ptrINS_15__thread_structENS_14default_deleteIS3_EEEEZ30test_extreme_nested_schedulingvE4$_31EEEEEPvS9_', symObjAddr: 0x4309C, symBinAddr: 0x100052AF0, symSize: 0x90 }
  - { offsetInCU: 0x56D07, offset: 0x76909, size: 0x8, addend: 0x0, symName: '__ZNSt3__13getB8ue170006ILm0EJNS_10unique_ptrINS_15__thread_structENS_14default_deleteIS2_EEEEZ30test_extreme_nested_schedulingvE4$_31EEERNS_13tuple_elementIXT_ENS_5tupleIJDpT0_EEEE4typeERSB_', symObjAddr: 0x433A0, symBinAddr: 0x100052DF4, symSize: 0x24 }
  - { offsetInCU: 0x56D4F, offset: 0x76951, size: 0x8, addend: 0x0, symName: '__ZNSt3__116__thread_executeB8ue170006INS_10unique_ptrINS_15__thread_structENS_14default_deleteIS2_EEEEZ30test_extreme_nested_schedulingvE4$_31JEJEEEvRNS_5tupleIJT_T0_DpT1_EEENS_15__tuple_indicesIJXspT2_EEEE', symObjAddr: 0x433C4, symBinAddr: 0x100052E18, symSize: 0x28 }
  - { offsetInCU: 0x56D9E, offset: 0x769A0, size: 0x8, addend: 0x0, symName: '__ZNSt3__18__invokeB8ue170006IZ30test_extreme_nested_schedulingvE4$_31JEEEDTclclsr3stdE7declvalIT_EEspclsr3stdE7declvalIT0_EEEEOS2_DpOS3_', symObjAddr: 0x433EC, symBinAddr: 0x100052E40, symSize: 0x24 }
  - { offsetInCU: 0x56DD7, offset: 0x769D9, size: 0x8, addend: 0x0, symName: '__ZNSt3__13getB8ue170006ILm1EJNS_10unique_ptrINS_15__thread_structENS_14default_deleteIS2_EEEEZ30test_extreme_nested_schedulingvE4$_31EEERNS_13tuple_elementIXT_ENS_5tupleIJDpT0_EEEE4typeERSB_', symObjAddr: 0x43410, symBinAddr: 0x100052E64, symSize: 0x28 }
  - { offsetInCU: 0x57466, offset: 0x77068, size: 0x8, addend: 0x0, symName: '__ZNSt3__116forward_as_tupleB8ue170006IJZZ30test_extreme_nested_schedulingvENK4$_31clEvEUliE_EEENS_5tupleIJDpOT_EEES6_', symObjAddr: 0x44128, symBinAddr: 0x100053B7C, symSize: 0x2C }
  - { offsetInCU: 0x5749F, offset: 0x770A1, size: 0x8, addend: 0x0, symName: '__ZNSt3__116forward_as_tupleB8ue170006IJNS_9allocatorIZZ30test_extreme_nested_schedulingvENK4$_31clEvEUliE_EEEEENS_5tupleIJDpOT_EEES8_', symObjAddr: 0x44154, symBinAddr: 0x100053BA8, symSize: 0x2C }
  - { offsetInCU: 0x57502, offset: 0x77104, size: 0x8, addend: 0x0, symName: '__ZNSt3__13getB8ue170006ILm0EJOZZ30test_extreme_nested_schedulingvENK4$_31clEvEUliE_EEERNS_13tuple_elementIXT_ENS_5tupleIJDpT0_EEEE4typeERS8_', symObjAddr: 0x44474, symBinAddr: 0x100053EC8, symSize: 0x24 }
  - { offsetInCU: 0x57545, offset: 0x77147, size: 0x8, addend: 0x0, symName: '__ZNSt3__13getB8ue170006ILm0EJONS_9allocatorIZZ30test_extreme_nested_schedulingvENK4$_31clEvEUliE_EEEEERNS_13tuple_elementIXT_ENS_5tupleIJDpT0_EEEE4typeERSA_', symObjAddr: 0x444B0, symBinAddr: 0x100053F04, symSize: 0x24 }
  - { offsetInCU: 0x57714, offset: 0x77316, size: 0x8, addend: 0x0, symName: '__ZNSt3__116forward_as_tupleB8ue170006IJRKZZ30test_extreme_nested_schedulingvENK4$_31clEvEUliE_EEENS_5tupleIJDpOT_EEES8_', symObjAddr: 0x448AC, symBinAddr: 0x100054300, symSize: 0x2C }
  - { offsetInCU: 0x57762, offset: 0x77364, size: 0x8, addend: 0x0, symName: '__ZNSt3__13getB8ue170006ILm0EJRKZZ30test_extreme_nested_schedulingvENK4$_31clEvEUliE_EEERNS_13tuple_elementIXT_ENS_5tupleIJDpT0_EEEE4typeERS9_', symObjAddr: 0x44AA4, symBinAddr: 0x1000544F8, symSize: 0x24 }
  - { offsetInCU: 0x577A5, offset: 0x773A7, size: 0x8, addend: 0x0, symName: '__ZNSt3__116forward_as_tupleB8ue170006IJRKNS_9allocatorIZZ30test_extreme_nested_schedulingvENK4$_31clEvEUliE_EEEEENS_5tupleIJDpOT_EEESA_', symObjAddr: 0x44E00, symBinAddr: 0x100054854, symSize: 0x2C }
  - { offsetInCU: 0x577F3, offset: 0x773F5, size: 0x8, addend: 0x0, symName: '__ZNSt3__13getB8ue170006ILm0EJRKNS_9allocatorIZZ30test_extreme_nested_schedulingvENK4$_31clEvEUliE_EEEEERNS_13tuple_elementIXT_ENS_5tupleIJDpT0_EEEE4typeERSB_', symObjAddr: 0x44FE4, symBinAddr: 0x100054A38, symSize: 0x24 }
  - { offsetInCU: 0x57836, offset: 0x77438, size: 0x8, addend: 0x0, symName: '__ZNSt3__18__invokeB8ue170006IRZZ30test_extreme_nested_schedulingvENK4$_31clEvEUliE_JiEEEDTclclsr3stdE7declvalIT_EEspclsr3stdE7declvalIT0_EEEEOS4_DpOS5_', symObjAddr: 0x450B0, symBinAddr: 0x100054B04, symSize: 0x30 }
  - { offsetInCU: 0x579E7, offset: 0x775E9, size: 0x8, addend: 0x0, symName: '__ZNSt3__116forward_as_tupleB8ue170006IJZZZ30test_extreme_nested_schedulingvENK4$_31clEvENKUliE_clEiEUlvE_EEENS_5tupleIJDpOT_EEES7_', symObjAddr: 0x458F8, symBinAddr: 0x10005534C, symSize: 0x2C }
  - { offsetInCU: 0x57A20, offset: 0x77622, size: 0x8, addend: 0x0, symName: '__ZNSt3__116forward_as_tupleB8ue170006IJNS_9allocatorIZZZ30test_extreme_nested_schedulingvENK4$_31clEvENKUliE_clEiEUlvE_EEEEENS_5tupleIJDpOT_EEES9_', symObjAddr: 0x45924, symBinAddr: 0x100055378, symSize: 0x2C }
  - { offsetInCU: 0x57A83, offset: 0x77685, size: 0x8, addend: 0x0, symName: '__ZNSt3__13getB8ue170006ILm0EJOZZZ30test_extreme_nested_schedulingvENK4$_31clEvENKUliE_clEiEUlvE_EEERNS_13tuple_elementIXT_ENS_5tupleIJDpT0_EEEE4typeERS9_', symObjAddr: 0x45C3C, symBinAddr: 0x100055690, symSize: 0x24 }
  - { offsetInCU: 0x57AC6, offset: 0x776C8, size: 0x8, addend: 0x0, symName: '__ZNSt3__13getB8ue170006ILm0EJONS_9allocatorIZZZ30test_extreme_nested_schedulingvENK4$_31clEvENKUliE_clEiEUlvE_EEEEERNS_13tuple_elementIXT_ENS_5tupleIJDpT0_EEEE4typeERSB_', symObjAddr: 0x45C78, symBinAddr: 0x1000556CC, symSize: 0x24 }
  - { offsetInCU: 0x57FED, offset: 0x77BEF, size: 0x8, addend: 0x0, symName: '__ZNSt3__116forward_as_tupleB8ue170006IJRKZZZ30test_extreme_nested_schedulingvENK4$_31clEvENKUliE_clEiEUlvE_EEENS_5tupleIJDpOT_EEES9_', symObjAddr: 0x46214, symBinAddr: 0x100055C68, symSize: 0x2C }
  - { offsetInCU: 0x5803B, offset: 0x77C3D, size: 0x8, addend: 0x0, symName: '__ZNSt3__13getB8ue170006ILm0EJRKZZZ30test_extreme_nested_schedulingvENK4$_31clEvENKUliE_clEiEUlvE_EEERNS_13tuple_elementIXT_ENS_5tupleIJDpT0_EEEE4typeERSA_', symObjAddr: 0x46404, symBinAddr: 0x100055E58, symSize: 0x24 }
  - { offsetInCU: 0x5807E, offset: 0x77C80, size: 0x8, addend: 0x0, symName: '__ZNSt3__116forward_as_tupleB8ue170006IJRKNS_9allocatorIZZZ30test_extreme_nested_schedulingvENK4$_31clEvENKUliE_clEiEUlvE_EEEEENS_5tupleIJDpOT_EEESB_', symObjAddr: 0x46764, symBinAddr: 0x1000561B8, symSize: 0x2C }
  - { offsetInCU: 0x580CC, offset: 0x77CCE, size: 0x8, addend: 0x0, symName: '__ZNSt3__13getB8ue170006ILm0EJRKNS_9allocatorIZZZ30test_extreme_nested_schedulingvENK4$_31clEvENKUliE_clEiEUlvE_EEEEERNS_13tuple_elementIXT_ENS_5tupleIJDpT0_EEEE4typeERSC_', symObjAddr: 0x46948, symBinAddr: 0x10005639C, symSize: 0x24 }
  - { offsetInCU: 0x5810F, offset: 0x77D11, size: 0x8, addend: 0x0, symName: '__ZNSt3__18__invokeB8ue170006IRZZZ30test_extreme_nested_schedulingvENK4$_31clEvENKUliE_clEiEUlvE_JEEEDTclclsr3stdE7declvalIT_EEspclsr3stdE7declvalIT0_EEEEOS5_DpOS6_', symObjAddr: 0x46A04, symBinAddr: 0x100056458, symSize: 0x24 }
  - { offsetInCU: 0x582AB, offset: 0x77EAD, size: 0x8, addend: 0x0, symName: '__ZNSt3__116forward_as_tupleB8ue170006IJZ21test_parallel_speedupvE4$_32EEENS_5tupleIJDpOT_EEES5_', symObjAddr: 0x476F8, symBinAddr: 0x100056FF8, symSize: 0x2C }
  - { offsetInCU: 0x582E4, offset: 0x77EE6, size: 0x8, addend: 0x0, symName: '__ZNSt3__116forward_as_tupleB8ue170006IJNS_9allocatorIZ21test_parallel_speedupvE4$_32EEEEENS_5tupleIJDpOT_EEES7_', symObjAddr: 0x47724, symBinAddr: 0x100057024, symSize: 0x2C }
  - { offsetInCU: 0x58347, offset: 0x77F49, size: 0x8, addend: 0x0, symName: '__ZNSt3__13getB8ue170006ILm0EJOZ21test_parallel_speedupvE4$_32EEERNS_13tuple_elementIXT_ENS_5tupleIJDpT0_EEEE4typeERS7_', symObjAddr: 0x47A30, symBinAddr: 0x100057330, symSize: 0x24 }
  - { offsetInCU: 0x5838A, offset: 0x77F8C, size: 0x8, addend: 0x0, symName: '__ZNSt3__13getB8ue170006ILm0EJONS_9allocatorIZ21test_parallel_speedupvE4$_32EEEEERNS_13tuple_elementIXT_ENS_5tupleIJDpT0_EEEE4typeERS9_', symObjAddr: 0x47A6C, symBinAddr: 0x10005736C, symSize: 0x24 }
  - { offsetInCU: 0x588B1, offset: 0x784B3, size: 0x8, addend: 0x0, symName: '__ZNSt3__116forward_as_tupleB8ue170006IJRKZ21test_parallel_speedupvE4$_32EEENS_5tupleIJDpOT_EEES7_', symObjAddr: 0x48000, symBinAddr: 0x100057900, symSize: 0x2C }
  - { offsetInCU: 0x588FF, offset: 0x78501, size: 0x8, addend: 0x0, symName: '__ZNSt3__13getB8ue170006ILm0EJRKZ21test_parallel_speedupvE4$_32EEERNS_13tuple_elementIXT_ENS_5tupleIJDpT0_EEEE4typeERS8_', symObjAddr: 0x481E4, symBinAddr: 0x100057AE4, symSize: 0x24 }
  - { offsetInCU: 0x58942, offset: 0x78544, size: 0x8, addend: 0x0, symName: '__ZNSt3__116forward_as_tupleB8ue170006IJRKNS_9allocatorIZ21test_parallel_speedupvE4$_32EEEEENS_5tupleIJDpOT_EEES9_', symObjAddr: 0x48540, symBinAddr: 0x100057E40, symSize: 0x2C }
  - { offsetInCU: 0x58990, offset: 0x78592, size: 0x8, addend: 0x0, symName: '__ZNSt3__13getB8ue170006ILm0EJRKNS_9allocatorIZ21test_parallel_speedupvE4$_32EEEEERNS_13tuple_elementIXT_ENS_5tupleIJDpT0_EEEE4typeERSA_', symObjAddr: 0x48724, symBinAddr: 0x100058024, symSize: 0x24 }
  - { offsetInCU: 0x589D3, offset: 0x785D5, size: 0x8, addend: 0x0, symName: '__ZNSt3__18__invokeB8ue170006IRZ21test_parallel_speedupvE4$_32JEEEDTclclsr3stdE7declvalIT_EEspclsr3stdE7declvalIT0_EEEEOS3_DpOS4_', symObjAddr: 0x487E0, symBinAddr: 0x1000580E0, symSize: 0x24 }
  - { offsetInCU: 0x58E09, offset: 0x78A0B, size: 0x8, addend: 0x0, symName: '__ZNSt3__114__thread_proxyB8ue170006INS_5tupleIJNS_10unique_ptrINS_15__thread_structENS_14default_deleteIS3_EEEEZ21test_wait_inside_taskvE4$_33EEEEEPvS9_', symObjAddr: 0x489F4, symBinAddr: 0x1000582F4, symSize: 0x90 }
  - { offsetInCU: 0x58E66, offset: 0x78A68, size: 0x8, addend: 0x0, symName: '__ZNSt3__13getB8ue170006ILm0EJNS_10unique_ptrINS_15__thread_structENS_14default_deleteIS2_EEEEZ21test_wait_inside_taskvE4$_33EEERNS_13tuple_elementIXT_ENS_5tupleIJDpT0_EEEE4typeERSB_', symObjAddr: 0x48CF8, symBinAddr: 0x1000585F8, symSize: 0x24 }
  - { offsetInCU: 0x58EAE, offset: 0x78AB0, size: 0x8, addend: 0x0, symName: '__ZNSt3__116__thread_executeB8ue170006INS_10unique_ptrINS_15__thread_structENS_14default_deleteIS2_EEEEZ21test_wait_inside_taskvE4$_33JEJEEEvRNS_5tupleIJT_T0_DpT1_EEENS_15__tuple_indicesIJXspT2_EEEE', symObjAddr: 0x48D1C, symBinAddr: 0x10005861C, symSize: 0x28 }
  - { offsetInCU: 0x58EFD, offset: 0x78AFF, size: 0x8, addend: 0x0, symName: '__ZNSt3__18__invokeB8ue170006IZ21test_wait_inside_taskvE4$_33JEEEDTclclsr3stdE7declvalIT_EEspclsr3stdE7declvalIT0_EEEEOS2_DpOS3_', symObjAddr: 0x48D44, symBinAddr: 0x100058644, symSize: 0x24 }
  - { offsetInCU: 0x58F36, offset: 0x78B38, size: 0x8, addend: 0x0, symName: '__ZNSt3__13getB8ue170006ILm1EJNS_10unique_ptrINS_15__thread_structENS_14default_deleteIS2_EEEEZ21test_wait_inside_taskvE4$_33EEERNS_13tuple_elementIXT_ENS_5tupleIJDpT0_EEEE4typeERSB_', symObjAddr: 0x48D68, symBinAddr: 0x100058668, symSize: 0x28 }
  - { offsetInCU: 0x590E1, offset: 0x78CE3, size: 0x8, addend: 0x0, symName: '__ZNSt3__116forward_as_tupleB8ue170006IJZZ21test_wait_inside_taskvENK4$_33clEvEUlvE_EEENS_5tupleIJDpOT_EEES6_', symObjAddr: 0x495CC, symBinAddr: 0x100058ECC, symSize: 0x2C }
  - { offsetInCU: 0x5911A, offset: 0x78D1C, size: 0x8, addend: 0x0, symName: '__ZNSt3__116forward_as_tupleB8ue170006IJNS_9allocatorIZZ21test_wait_inside_taskvENK4$_33clEvEUlvE_EEEEENS_5tupleIJDpOT_EEES8_', symObjAddr: 0x495F8, symBinAddr: 0x100058EF8, symSize: 0x2C }
  - { offsetInCU: 0x5917D, offset: 0x78D7F, size: 0x8, addend: 0x0, symName: '__ZNSt3__13getB8ue170006ILm0EJOZZ21test_wait_inside_taskvENK4$_33clEvEUlvE_EEERNS_13tuple_elementIXT_ENS_5tupleIJDpT0_EEEE4typeERS8_', symObjAddr: 0x49910, symBinAddr: 0x100059210, symSize: 0x24 }
  - { offsetInCU: 0x591C0, offset: 0x78DC2, size: 0x8, addend: 0x0, symName: '__ZNSt3__13getB8ue170006ILm0EJONS_9allocatorIZZ21test_wait_inside_taskvENK4$_33clEvEUlvE_EEEEERNS_13tuple_elementIXT_ENS_5tupleIJDpT0_EEEE4typeERSA_', symObjAddr: 0x4994C, symBinAddr: 0x10005924C, symSize: 0x24 }
  - { offsetInCU: 0x596E7, offset: 0x792E9, size: 0x8, addend: 0x0, symName: '__ZNSt3__116forward_as_tupleB8ue170006IJRKZZ21test_wait_inside_taskvENK4$_33clEvEUlvE_EEENS_5tupleIJDpOT_EEES8_', symObjAddr: 0x49EE8, symBinAddr: 0x1000597E8, symSize: 0x2C }
  - { offsetInCU: 0x59735, offset: 0x79337, size: 0x8, addend: 0x0, symName: '__ZNSt3__13getB8ue170006ILm0EJRKZZ21test_wait_inside_taskvENK4$_33clEvEUlvE_EEERNS_13tuple_elementIXT_ENS_5tupleIJDpT0_EEEE4typeERS9_', symObjAddr: 0x4A0D8, symBinAddr: 0x1000599D8, symSize: 0x24 }
  - { offsetInCU: 0x59778, offset: 0x7937A, size: 0x8, addend: 0x0, symName: '__ZNSt3__116forward_as_tupleB8ue170006IJRKNS_9allocatorIZZ21test_wait_inside_taskvENK4$_33clEvEUlvE_EEEEENS_5tupleIJDpOT_EEESA_', symObjAddr: 0x4A438, symBinAddr: 0x100059D38, symSize: 0x2C }
  - { offsetInCU: 0x597C6, offset: 0x793C8, size: 0x8, addend: 0x0, symName: '__ZNSt3__13getB8ue170006ILm0EJRKNS_9allocatorIZZ21test_wait_inside_taskvENK4$_33clEvEUlvE_EEEEERNS_13tuple_elementIXT_ENS_5tupleIJDpT0_EEEE4typeERSB_', symObjAddr: 0x4A61C, symBinAddr: 0x100059F1C, symSize: 0x24 }
  - { offsetInCU: 0x59809, offset: 0x7940B, size: 0x8, addend: 0x0, symName: '__ZNSt3__18__invokeB8ue170006IRZZ21test_wait_inside_taskvENK4$_33clEvEUlvE_JEEEDTclclsr3stdE7declvalIT_EEspclsr3stdE7declvalIT0_EEEEOS4_DpOS5_', symObjAddr: 0x4A6D8, symBinAddr: 0x100059FD8, symSize: 0x24 }
  - { offsetInCU: 0x59C3F, offset: 0x79841, size: 0x8, addend: 0x0, symName: '__ZNSt3__114__thread_proxyB8ue170006INS_5tupleIJNS_10unique_ptrINS_15__thread_structENS_14default_deleteIS3_EEEEZ32test_wait_with_infinite_schedulevE4$_34EEEEEPvS9_', symObjAddr: 0x4ABE0, symBinAddr: 0x10005A49C, symSize: 0x90 }
  - { offsetInCU: 0x59C9C, offset: 0x7989E, size: 0x8, addend: 0x0, symName: '__ZNSt3__13getB8ue170006ILm0EJNS_10unique_ptrINS_15__thread_structENS_14default_deleteIS2_EEEEZ32test_wait_with_infinite_schedulevE4$_34EEERNS_13tuple_elementIXT_ENS_5tupleIJDpT0_EEEE4typeERSB_', symObjAddr: 0x4AEE4, symBinAddr: 0x10005A7A0, symSize: 0x24 }
  - { offsetInCU: 0x59CE4, offset: 0x798E6, size: 0x8, addend: 0x0, symName: '__ZNSt3__116__thread_executeB8ue170006INS_10unique_ptrINS_15__thread_structENS_14default_deleteIS2_EEEEZ32test_wait_with_infinite_schedulevE4$_34JEJEEEvRNS_5tupleIJT_T0_DpT1_EEENS_15__tuple_indicesIJXspT2_EEEE', symObjAddr: 0x4AF08, symBinAddr: 0x10005A7C4, symSize: 0x28 }
  - { offsetInCU: 0x59D33, offset: 0x79935, size: 0x8, addend: 0x0, symName: '__ZNSt3__18__invokeB8ue170006IZ32test_wait_with_infinite_schedulevE4$_34JEEEDTclclsr3stdE7declvalIT_EEspclsr3stdE7declvalIT0_EEEEOS2_DpOS3_', symObjAddr: 0x4AF30, symBinAddr: 0x10005A7EC, symSize: 0x24 }
  - { offsetInCU: 0x59D6C, offset: 0x7996E, size: 0x8, addend: 0x0, symName: '__ZNSt3__13getB8ue170006ILm1EJNS_10unique_ptrINS_15__thread_structENS_14default_deleteIS2_EEEEZ32test_wait_with_infinite_schedulevE4$_34EEERNS_13tuple_elementIXT_ENS_5tupleIJDpT0_EEEE4typeERSB_', symObjAddr: 0x4AF54, symBinAddr: 0x10005A810, symSize: 0x28 }
  - { offsetInCU: 0x59F17, offset: 0x79B19, size: 0x8, addend: 0x0, symName: '__ZNSt3__116forward_as_tupleB8ue170006IJZZ32test_wait_with_infinite_schedulevENK4$_34clEvEUlvE_EEENS_5tupleIJDpOT_EEES6_', symObjAddr: 0x4B7F8, symBinAddr: 0x10005B0B4, symSize: 0x2C }
  - { offsetInCU: 0x59F50, offset: 0x79B52, size: 0x8, addend: 0x0, symName: '__ZNSt3__116forward_as_tupleB8ue170006IJNS_9allocatorIZZ32test_wait_with_infinite_schedulevENK4$_34clEvEUlvE_EEEEENS_5tupleIJDpOT_EEES8_', symObjAddr: 0x4B824, symBinAddr: 0x10005B0E0, symSize: 0x2C }
  - { offsetInCU: 0x59FB3, offset: 0x79BB5, size: 0x8, addend: 0x0, symName: '__ZNSt3__13getB8ue170006ILm0EJOZZ32test_wait_with_infinite_schedulevENK4$_34clEvEUlvE_EEERNS_13tuple_elementIXT_ENS_5tupleIJDpT0_EEEE4typeERS8_', symObjAddr: 0x4BB3C, symBinAddr: 0x10005B3F8, symSize: 0x24 }
  - { offsetInCU: 0x59FF6, offset: 0x79BF8, size: 0x8, addend: 0x0, symName: '__ZNSt3__13getB8ue170006ILm0EJONS_9allocatorIZZ32test_wait_with_infinite_schedulevENK4$_34clEvEUlvE_EEEEERNS_13tuple_elementIXT_ENS_5tupleIJDpT0_EEEE4typeERSA_', symObjAddr: 0x4BB78, symBinAddr: 0x10005B434, symSize: 0x24 }
  - { offsetInCU: 0x5A51D, offset: 0x7A11F, size: 0x8, addend: 0x0, symName: '__ZNSt3__116forward_as_tupleB8ue170006IJRKZZ32test_wait_with_infinite_schedulevENK4$_34clEvEUlvE_EEENS_5tupleIJDpOT_EEES8_', symObjAddr: 0x4C10C, symBinAddr: 0x10005B9C8, symSize: 0x2C }
  - { offsetInCU: 0x5A56B, offset: 0x7A16D, size: 0x8, addend: 0x0, symName: '__ZNSt3__13getB8ue170006ILm0EJRKZZ32test_wait_with_infinite_schedulevENK4$_34clEvEUlvE_EEERNS_13tuple_elementIXT_ENS_5tupleIJDpT0_EEEE4typeERS9_', symObjAddr: 0x4C2FC, symBinAddr: 0x10005BBB8, symSize: 0x24 }
  - { offsetInCU: 0x5A5AE, offset: 0x7A1B0, size: 0x8, addend: 0x0, symName: '__ZNSt3__116forward_as_tupleB8ue170006IJRKNS_9allocatorIZZ32test_wait_with_infinite_schedulevENK4$_34clEvEUlvE_EEEEENS_5tupleIJDpOT_EEESA_', symObjAddr: 0x4C658, symBinAddr: 0x10005BF14, symSize: 0x2C }
  - { offsetInCU: 0x5A5FC, offset: 0x7A1FE, size: 0x8, addend: 0x0, symName: '__ZNSt3__13getB8ue170006ILm0EJRKNS_9allocatorIZZ32test_wait_with_infinite_schedulevENK4$_34clEvEUlvE_EEEEERNS_13tuple_elementIXT_ENS_5tupleIJDpT0_EEEE4typeERSB_', symObjAddr: 0x4C83C, symBinAddr: 0x10005C0F8, symSize: 0x24 }
  - { offsetInCU: 0x5A63F, offset: 0x7A241, size: 0x8, addend: 0x0, symName: '__ZNSt3__18__invokeB8ue170006IRZZ32test_wait_with_infinite_schedulevENK4$_34clEvEUlvE_JEEEDTclclsr3stdE7declvalIT_EEspclsr3stdE7declvalIT0_EEEEOS4_DpOS5_', symObjAddr: 0x4C8F8, symBinAddr: 0x10005C1B4, symSize: 0x24 }
  - { offsetInCU: 0x5A7DB, offset: 0x7A3DD, size: 0x8, addend: 0x0, symName: '__ZNSt3__116forward_as_tupleB8ue170006IJZZZ32test_wait_with_infinite_schedulevENK4$_34clEvENKUlvE_clEvEUlvE_EEENS_5tupleIJDpOT_EEES7_', symObjAddr: 0x4D09C, symBinAddr: 0x10005C958, symSize: 0x2C }
  - { offsetInCU: 0x5A814, offset: 0x7A416, size: 0x8, addend: 0x0, symName: '__ZNSt3__116forward_as_tupleB8ue170006IJNS_9allocatorIZZZ32test_wait_with_infinite_schedulevENK4$_34clEvENKUlvE_clEvEUlvE_EEEEENS_5tupleIJDpOT_EEES9_', symObjAddr: 0x4D0C8, symBinAddr: 0x10005C984, symSize: 0x2C }
  - { offsetInCU: 0x5A877, offset: 0x7A479, size: 0x8, addend: 0x0, symName: '__ZNSt3__13getB8ue170006ILm0EJOZZZ32test_wait_with_infinite_schedulevENK4$_34clEvENKUlvE_clEvEUlvE_EEERNS_13tuple_elementIXT_ENS_5tupleIJDpT0_EEEE4typeERS9_', symObjAddr: 0x4D3D4, symBinAddr: 0x10005CC90, symSize: 0x24 }
  - { offsetInCU: 0x5A8BA, offset: 0x7A4BC, size: 0x8, addend: 0x0, symName: '__ZNSt3__13getB8ue170006ILm0EJONS_9allocatorIZZZ32test_wait_with_infinite_schedulevENK4$_34clEvENKUlvE_clEvEUlvE_EEEEERNS_13tuple_elementIXT_ENS_5tupleIJDpT0_EEEE4typeERSB_', symObjAddr: 0x4D410, symBinAddr: 0x10005CCCC, symSize: 0x24 }
  - { offsetInCU: 0x5ADE1, offset: 0x7A9E3, size: 0x8, addend: 0x0, symName: '__ZNSt3__116forward_as_tupleB8ue170006IJRKZZZ32test_wait_with_infinite_schedulevENK4$_34clEvENKUlvE_clEvEUlvE_EEENS_5tupleIJDpOT_EEES9_', symObjAddr: 0x4D9A4, symBinAddr: 0x10005D260, symSize: 0x2C }
  - { offsetInCU: 0x5AE2F, offset: 0x7AA31, size: 0x8, addend: 0x0, symName: '__ZNSt3__13getB8ue170006ILm0EJRKZZZ32test_wait_with_infinite_schedulevENK4$_34clEvENKUlvE_clEvEUlvE_EEERNS_13tuple_elementIXT_ENS_5tupleIJDpT0_EEEE4typeERSA_', symObjAddr: 0x4DB88, symBinAddr: 0x10005D444, symSize: 0x24 }
  - { offsetInCU: 0x5AE72, offset: 0x7AA74, size: 0x8, addend: 0x0, symName: '__ZNSt3__116forward_as_tupleB8ue170006IJRKNS_9allocatorIZZZ32test_wait_with_infinite_schedulevENK4$_34clEvENKUlvE_clEvEUlvE_EEEEENS_5tupleIJDpOT_EEESB_', symObjAddr: 0x4DEE4, symBinAddr: 0x10005D7A0, symSize: 0x2C }
  - { offsetInCU: 0x5AEC0, offset: 0x7AAC2, size: 0x8, addend: 0x0, symName: '__ZNSt3__13getB8ue170006ILm0EJRKNS_9allocatorIZZZ32test_wait_with_infinite_schedulevENK4$_34clEvENKUlvE_clEvEUlvE_EEEEERNS_13tuple_elementIXT_ENS_5tupleIJDpT0_EEEE4typeERSC_', symObjAddr: 0x4E0C8, symBinAddr: 0x10005D984, symSize: 0x24 }
  - { offsetInCU: 0x5AF03, offset: 0x7AB05, size: 0x8, addend: 0x0, symName: '__ZNSt3__18__invokeB8ue170006IRZZZ32test_wait_with_infinite_schedulevENK4$_34clEvENKUlvE_clEvEUlvE_JEEEDTclclsr3stdE7declvalIT_EEspclsr3stdE7declvalIT0_EEEEOS5_DpOS6_', symObjAddr: 0x4E184, symBinAddr: 0x10005DA40, symSize: 0x24 }
  - { offsetInCU: 0x5AF93, offset: 0x7AB95, size: 0x8, addend: 0x0, symName: __ZNSt3__1eqB8ue170006ERKNS_21__tree_const_iteratorINS_12__value_typeIcNS_12basic_stringIcNS_11char_traitsIcEENS_9allocatorIcEEEEEEPNS_11__tree_nodeIS8_PvEElEESF_, symObjAddr: 0x4F368, symBinAddr: 0x10005EC00, symSize: 0x30 }
  - { offsetInCU: 0x5AFCF, offset: 0x7ABD1, size: 0x8, addend: 0x0, symName: __ZNSt3__14nextB8ue170006INS_21__tree_const_iteratorINS_12__value_typeIcNS_12basic_stringIcNS_11char_traitsIcEENS_9allocatorIcEEEEEEPNS_11__tree_nodeIS9_PvEElEEEENS_9enable_ifIXsr29__has_input_iterator_categoryIT_EE5valueESG_E4typeESG_NS_15iterator_traitsISG_E15difference_typeE, symObjAddr: 0x4F6D8, symBinAddr: 0x10005EF70, symSize: 0x3C }
  - { offsetInCU: 0x5B012, offset: 0x7AC14, size: 0x8, addend: 0x0, symName: __ZNSt3__116__tree_prev_iterB8ue170006IPNS_16__tree_node_baseIPvEEPNS_15__tree_end_nodeIS4_EEEET_T0_, symObjAddr: 0x4F820, symBinAddr: 0x10005F0B8, symSize: 0xA4 }
  - { offsetInCU: 0x5B05E, offset: 0x7AC60, size: 0x8, addend: 0x0, symName: __ZNSt3__110__tree_maxB8ue170006IPNS_16__tree_node_baseIPvEEEET_S5_, symObjAddr: 0x4F8C4, symBinAddr: 0x10005F15C, symSize: 0x40 }
  - { offsetInCU: 0x5B093, offset: 0x7AC95, size: 0x8, addend: 0x0, symName: __ZNSt3__120__tree_is_left_childB8ue170006IPNS_16__tree_node_baseIPvEEEEbT_, symObjAddr: 0x4F904, symBinAddr: 0x10005F19C, symSize: 0x2C }
  - { offsetInCU: 0x5B0C8, offset: 0x7ACCA, size: 0x8, addend: 0x0, symName: __ZNSt3__121__convert_to_integralB8ue170006El, symObjAddr: 0x4F9CC, symBinAddr: 0x10005F264, symSize: 0x14 }
  - { offsetInCU: 0x5B0F5, offset: 0x7ACF7, size: 0x8, addend: 0x0, symName: __ZNSt3__19__advanceB8ue170006INS_21__tree_const_iteratorINS_12__value_typeIcNS_12basic_stringIcNS_11char_traitsIcEENS_9allocatorIcEEEEEEPNS_11__tree_nodeIS9_PvEElEEEEvRT_NS_15iterator_traitsISF_E15difference_typeENS_26bidirectional_iterator_tagE, symObjAddr: 0x4F9E0, symBinAddr: 0x10005F278, symSize: 0xA4 }
  - { offsetInCU: 0x5B13F, offset: 0x7AD41, size: 0x8, addend: 0x0, symName: __ZNSt3__116__tree_next_iterB8ue170006IPNS_15__tree_end_nodeIPNS_16__tree_node_baseIPvEEEES5_EET_T0_, symObjAddr: 0x4FABC, symBinAddr: 0x10005F354, symSize: 0x80 }
  - { offsetInCU: 0x5B17D, offset: 0x7AD7F, size: 0x8, addend: 0x0, symName: __ZNSt3__110__tree_minB8ue170006IPNS_16__tree_node_baseIPvEEEET_S5_, symObjAddr: 0x4FB3C, symBinAddr: 0x10005F3D4, symSize: 0x40 }
  - { offsetInCU: 0x5B1D1, offset: 0x7ADD3, size: 0x8, addend: 0x0, symName: __ZNSt3__127__tree_balance_after_insertB8ue170006IPNS_16__tree_node_baseIPvEEEEvT_S5_, symObjAddr: 0x50040, symBinAddr: 0x10005F8D8, symSize: 0x27C }
  - { offsetInCU: 0x5B251, offset: 0x7AE53, size: 0x8, addend: 0x0, symName: __ZNSt3__118__tree_left_rotateB8ue170006IPNS_16__tree_node_baseIPvEEEEvT_, symObjAddr: 0x502E4, symBinAddr: 0x10005FB7C, symSize: 0xD8 }
  - { offsetInCU: 0x5B294, offset: 0x7AE96, size: 0x8, addend: 0x0, symName: __ZNSt3__119__tree_right_rotateB8ue170006IPNS_16__tree_node_baseIPvEEEEvT_, symObjAddr: 0x503BC, symBinAddr: 0x10005FC54, symSize: 0xCC }
  - { offsetInCU: 0x5B2D7, offset: 0x7AED9, size: 0x8, addend: 0x0, symName: __ZNSt3__120__throw_out_of_rangeB8ue170006EPKc, symObjAddr: 0x509F4, symBinAddr: 0x100060278, symSize: 0x64 }
  - { offsetInCU: 0x5B496, offset: 0x7B098, size: 0x8, addend: 0x0, symName: __ZNSt3__116forward_as_tupleB8ue170006IJPFbvEEEENS_5tupleIJDpOT_EEES6_, symObjAddr: 0x516E0, symBinAddr: 0x100060F64, symSize: 0x2C }
  - { offsetInCU: 0x5B4CF, offset: 0x7B0D1, size: 0x8, addend: 0x0, symName: __ZNSt3__116forward_as_tupleB8ue170006IJNS_9allocatorIPFbvEEEEEENS_5tupleIJDpOT_EEES8_, symObjAddr: 0x5170C, symBinAddr: 0x100060F90, symSize: 0x2C }
  - { offsetInCU: 0x5B532, offset: 0x7B134, size: 0x8, addend: 0x0, symName: __ZNSt3__13getB8ue170006ILm0EJOPFbvEEEERNS_13tuple_elementIXT_ENS_5tupleIJDpT0_EEEE4typeERS8_, symObjAddr: 0x51A24, symBinAddr: 0x1000612A8, symSize: 0x24 }
  - { offsetInCU: 0x5B575, offset: 0x7B177, size: 0x8, addend: 0x0, symName: __ZNSt3__13getB8ue170006ILm0EJONS_9allocatorIPFbvEEEEEERNS_13tuple_elementIXT_ENS_5tupleIJDpT0_EEEE4typeERSA_, symObjAddr: 0x51A60, symBinAddr: 0x1000612E4, symSize: 0x24 }
  - { offsetInCU: 0x5BA9C, offset: 0x7B69E, size: 0x8, addend: 0x0, symName: __ZNSt3__116forward_as_tupleB8ue170006IJRKPFbvEEEENS_5tupleIJDpOT_EEES8_, symObjAddr: 0x51FF4, symBinAddr: 0x100061878, symSize: 0x2C }
  - { offsetInCU: 0x5BAEA, offset: 0x7B6EC, size: 0x8, addend: 0x0, symName: __ZNSt3__13getB8ue170006ILm0EJRKPFbvEEEERNS_13tuple_elementIXT_ENS_5tupleIJDpT0_EEEE4typeERS9_, symObjAddr: 0x521E4, symBinAddr: 0x100061A68, symSize: 0x24 }
  - { offsetInCU: 0x5BB2D, offset: 0x7B72F, size: 0x8, addend: 0x0, symName: __ZNSt3__116forward_as_tupleB8ue170006IJRKNS_9allocatorIPFbvEEEEEENS_5tupleIJDpOT_EEESA_, symObjAddr: 0x52540, symBinAddr: 0x100061DC4, symSize: 0x2C }
  - { offsetInCU: 0x5BB7B, offset: 0x7B77D, size: 0x8, addend: 0x0, symName: __ZNSt3__13getB8ue170006ILm0EJRKNS_9allocatorIPFbvEEEEEERNS_13tuple_elementIXT_ENS_5tupleIJDpT0_EEEE4typeERSB_, symObjAddr: 0x52724, symBinAddr: 0x100061FA8, symSize: 0x24 }
  - { offsetInCU: 0x5BBF9, offset: 0x7B7FB, size: 0x8, addend: 0x0, symName: __ZNSt3__18__invokeB8ue170006IRPFbvEJEEEDTclclsr3stdE7declvalIT_EEspclsr3stdE7declvalIT0_EEEEOS4_DpOS5_, symObjAddr: 0x527E8, symBinAddr: 0x10006206C, symSize: 0x2C }
  - { offsetInCU: 0x5BC35, offset: 0x7B837, size: 0x8, addend: 0x0, symName: __ZNSt3__122__make_exception_guardB8ue170006INS_6vectorI8TestCaseNS_9allocatorIS2_EEE16__destroy_vectorEEENS_28__exception_guard_exceptionsIT_EES8_, symObjAddr: 0x52984, symBinAddr: 0x100062208, symSize: 0x40 }
  - { offsetInCU: 0x5BC6A, offset: 0x7B86C, size: 0x8, addend: 0x0, symName: __ZNSt3__119__allocate_at_leastB8ue170006INS_9allocatorI8TestCaseEEEENS_19__allocation_resultINS_16allocator_traitsIT_E7pointerEEERS6_m, symObjAddr: 0x52D94, symBinAddr: 0x100062618, symSize: 0x40 }
  - { offsetInCU: 0x5BCAD, offset: 0x7B8AF, size: 0x8, addend: 0x0, symName: __ZNSt3__112__to_addressB8ue170006I8TestCaseEEPT_S3_, symObjAddr: 0x530DC, symBinAddr: 0x100062960, symSize: 0x14 }
  - { offsetInCU: 0x5BCE2, offset: 0x7B8E4, size: 0x8, addend: 0x0, symName: __ZNSt3__130__uninitialized_allocator_copyB8ue170006INS_9allocatorI8TestCaseEEPKS2_S5_PS2_EET2_RT_T0_T1_S7_, symObjAddr: 0x5318C, symBinAddr: 0x100062A10, symSize: 0x80 }
  - { offsetInCU: 0x5BD81, offset: 0x7B983, size: 0x8, addend: 0x0, symName: __ZNSt3__114__unwrap_rangeB8ue170006IPK8TestCaseS3_EENS_4pairIT0_S5_EET_S7_, symObjAddr: 0x53284, symBinAddr: 0x100062B08, symSize: 0x60 }
  - { offsetInCU: 0x5BDCD, offset: 0x7B9CF, size: 0x8, addend: 0x0, symName: __ZNSt3__135__uninitialized_allocator_copy_implB8ue170006INS_9allocatorI8TestCaseEEPKS2_S5_PS2_EET2_RT_T0_T1_S7_, symObjAddr: 0x532E4, symBinAddr: 0x100062B68, symSize: 0xF4 }
  - { offsetInCU: 0x5BE6D, offset: 0x7BA6F, size: 0x8, addend: 0x0, symName: __ZNSt3__113__unwrap_iterB8ue170006IP8TestCaseNS_18__unwrap_iter_implIS2_Lb1EEELi0EEEDTclsrT0_8__unwrapclsr3stdE7declvalIT_EEEES6_, symObjAddr: 0x533D8, symBinAddr: 0x100062C5C, symSize: 0x24 }
  - { offsetInCU: 0x5BEB1, offset: 0x7BAB3, size: 0x8, addend: 0x0, symName: __ZNSt3__113__rewrap_iterB8ue170006IP8TestCaseS2_NS_18__unwrap_iter_implIS2_Lb1EEEEET_S5_T0_, symObjAddr: 0x533FC, symBinAddr: 0x100062C80, symSize: 0x3C }
  - { offsetInCU: 0x5BF06, offset: 0x7BB08, size: 0x8, addend: 0x0, symName: __ZNSt3__19make_pairB8ue170006IPK8TestCaseS3_EENS_4pairINS_18__unwrap_ref_decayIT_E4typeENS5_IT0_E4typeEEEOS6_OS9_, symObjAddr: 0x53438, symBinAddr: 0x100062CBC, symSize: 0x38 }
  - { offsetInCU: 0x5BF55, offset: 0x7BB57, size: 0x8, addend: 0x0, symName: __ZNSt3__113__unwrap_iterB8ue170006IPK8TestCaseNS_18__unwrap_iter_implIS3_Lb1EEELi0EEEDTclsrT0_8__unwrapclsr3stdE7declvalIT_EEEES7_, symObjAddr: 0x53470, symBinAddr: 0x100062CF4, symSize: 0x24 }
  - { offsetInCU: 0x5C0C0, offset: 0x7BCC2, size: 0x8, addend: 0x0, symName: __ZNSt3__112__to_addressB8ue170006IK8TestCaseEEPT_S4_, symObjAddr: 0x53528, symBinAddr: 0x100062DAC, symSize: 0x14 }
  - { offsetInCU: 0x5C0F5, offset: 0x7BCF7, size: 0x8, addend: 0x0, symName: __ZNSt3__122__make_exception_guardB8ue170006INS_29_AllocatorDestroyRangeReverseINS_9allocatorI8TestCaseEEPS3_EEEENS_28__exception_guard_exceptionsIT_EES8_, symObjAddr: 0x5353C, symBinAddr: 0x100062DC0, symSize: 0x4C }
  - { offsetInCU: 0x5C12C, offset: 0x7BD2E, size: 0x8, addend: 0x0, symName: __ZNSt3__119__allocator_destroyB8ue170006INS_9allocatorI8TestCaseEENS_16reverse_iteratorIPS2_EES6_EEvRT_T0_T1_, symObjAddr: 0x53A18, symBinAddr: 0x10006329C, symSize: 0x70 }
  - { offsetInCU: 0x5C18E, offset: 0x7BD90, size: 0x8, addend: 0x0, symName: __ZNSt3__1neB8ue170006IP8TestCaseS2_EEbRKNS_16reverse_iteratorIT_EERKNS3_IT0_EE, symObjAddr: 0x53ABC, symBinAddr: 0x100063340, symSize: 0x48 }
  - { offsetInCU: 0x5C1DA, offset: 0x7BDDC, size: 0x8, addend: 0x0, symName: __ZNSt3__112__to_addressB8ue170006INS_16reverse_iteratorIP8TestCaseEEvEEu7__decayIDTclsr19__to_address_helperIT_EE6__callclsr3stdE7declvalIRKS5_EEEEES7_, symObjAddr: 0x53B30, symBinAddr: 0x1000633B4, symSize: 0x24 }
  - { offsetInCU: 0x5D950, offset: 0x7D552, size: 0x8, addend: 0x0, symName: __ZSt18make_exception_ptrB8ue170006INSt3__112future_errorEESt13exception_ptrT_, symObjAddr: 0x32DC8, symBinAddr: 0x100042920, symSize: 0x88 }
  - { offsetInCU: 0x5D986, offset: 0x7D588, size: 0x8, addend: 0x0, symName: __ZStneB8ue170006RKSt13exception_ptrS1_, symObjAddr: 0x32F0C, symBinAddr: 0x1000429E8, symSize: 0x34 }
  - { offsetInCU: 0x5D9C0, offset: 0x7D5C2, size: 0x8, addend: 0x0, symName: __ZSteqB8ue170006RKSt13exception_ptrS1_, symObjAddr: 0x32F74, symBinAddr: 0x100042A50, symSize: 0x30 }
  - { offsetInCU: 0x5DA29, offset: 0x7D62B, size: 0x8, addend: 0x0, symName: _global_success, symObjAddr: 0x560C8, symBinAddr: 0x100070040, symSize: 0x0 }
  - { offsetInCU: 0x5DF8F, offset: 0x7DB91, size: 0x8, addend: 0x0, symName: __ZNKSt3__16chrono15__duration_castINS0_8durationIxNS_5ratioILl1ELl1000000000EEEEENS2_IxNS3_ILl1ELl1000EEEEENS3_ILl1ELl1000000EEELb1ELb0EEclB8ue170006ERKS5_, symObjAddr: 0x6C68, symBinAddr: 0x100017630, symSize: 0x4C }
  - { offsetInCU: 0x5E008, offset: 0x7DC0A, size: 0x8, addend: 0x0, symName: __ZNKSt3__16chrono13__duration_ltINS0_8durationIxNS_5ratioILl1ELl1000EEEEENS2_IeNS3_ILl1ELl1EEEEEEclB8ue170006ERKS5_RKS7_, symObjAddr: 0x716C, symBinAddr: 0x100017AC8, symSize: 0x78 }
  - { offsetInCU: 0x5E08B, offset: 0x7DC8D, size: 0x8, addend: 0x0, symName: __ZNKSt3__16chrono15__duration_castINS0_8durationIeNS_5ratioILl1ELl1EEEEENS2_IeNS3_ILl1ELl1000EEEEENS3_ILl1000ELl1EEELb0ELb1EEclB8ue170006ERKS5_, symObjAddr: 0x740C, symBinAddr: 0x100017D68, symSize: 0x4C }
  - { offsetInCU: 0x5E0D5, offset: 0x7DCD7, size: 0x8, addend: 0x0, symName: __ZNKSt3__16chrono15__duration_castINS0_8durationIxNS_5ratioILl1ELl1000EEEEENS2_IxNS3_ILl1ELl1000000000EEEEENS3_ILl1000000ELl1EEELb0ELb1EEclB8ue170006ERKS5_, symObjAddr: 0x7470, symBinAddr: 0x100017DCC, symSize: 0x4C }
  - { offsetInCU: 0x5E11F, offset: 0x7DD21, size: 0x8, addend: 0x0, symName: __ZNKSt3__16chrono13__duration_ltINS0_8durationIxNS_5ratioILl1ELl1000000000EEEEENS2_IxNS3_ILl1ELl1000EEEEEEclB8ue170006ERKS5_RKS7_, symObjAddr: 0x7520, symBinAddr: 0x100017E7C, symSize: 0x6C }
  - { offsetInCU: 0x5E2EB, offset: 0x7DEED, size: 0x8, addend: 0x0, symName: __Z10test_basicv, symObjAddr: 0x13C, symBinAddr: 0x100010E00, symSize: 0x218 }
  - { offsetInCU: 0x5E6E0, offset: 0x7E2E2, size: 0x8, addend: 0x0, symName: __Z21test_serial_executionv, symObjAddr: 0x5E0, symBinAddr: 0x100011278, symSize: 0x1E4 }
  - { offsetInCU: 0x5EAE1, offset: 0x7E6E3, size: 0x8, addend: 0x0, symName: __Z23test_fifo_single_threadv, symObjAddr: 0xA44, symBinAddr: 0x1000116B0, symSize: 0x224 }
  - { offsetInCU: 0x5EDF5, offset: 0x7E9F7, size: 0x8, addend: 0x0, symName: __ZNSt3__16vectorIiNS_9allocatorIiEEE26__swap_out_circular_bufferERNS_14__split_bufferIiRS2_EE, symObjAddr: 0xF394, symBinAddr: 0x10001F6FC, symSize: 0x110 }
  - { offsetInCU: 0x5EE4E, offset: 0x7EA50, size: 0x8, addend: 0x0, symName: __Z22test_concurrent_stressv, symObjAddr: 0xCEC, symBinAddr: 0x100011958, symSize: 0x24C }
  - { offsetInCU: 0x5F18D, offset: 0x7ED8F, size: 0x8, addend: 0x0, symName: __Z15test_reuse_poolv, symObjAddr: 0x1040, symBinAddr: 0x100011CAC, symSize: 0x1C8 }
  - { offsetInCU: 0x5F6BF, offset: 0x7F2C1, size: 0x8, addend: 0x0, symName: __Z24test_multiple_wait_callsv, symObjAddr: 0x1270, symBinAddr: 0x100011EDC, symSize: 0x14C }
  - { offsetInCU: 0x5F97F, offset: 0x7F581, size: 0x8, addend: 0x0, symName: __Z19test_massive_stressv, symObjAddr: 0x1418, symBinAddr: 0x100012084, symSize: 0x180 }
  - { offsetInCU: 0x5FC5C, offset: 0x7F85E, size: 0x8, addend: 0x0, symName: __Z25test_long_tasks_then_quitv, symObjAddr: 0x15CC, symBinAddr: 0x100012238, symSize: 0x154 }
  - { offsetInCU: 0x5FF11, offset: 0x7FB13, size: 0x8, addend: 0x0, symName: __Z36test_many_short_tasks_on_few_threadsv, symObjAddr: 0x174C, symBinAddr: 0x1000123B8, symSize: 0x170 }
  - { offsetInCU: 0x601FE, offset: 0x7FE00, size: 0x8, addend: 0x0, symName: __Z23test_potential_deadlockv, symObjAddr: 0x18F0, symBinAddr: 0x10001255C, symSize: 0x1BC }
  - { offsetInCU: 0x60380, offset: 0x7FF82, size: 0x8, addend: 0x0, symName: '__ZZ23test_potential_deadlockvENK4$_10clEv', symObjAddr: 0x1B8FC, symBinAddr: 0x10002B634, symSize: 0x220 }
  - { offsetInCU: 0x6068C, offset: 0x8028E, size: 0x8, addend: 0x0, symName: __ZNSt3__118condition_variable10wait_untilINS_6chrono12steady_clockENS2_8durationIxNS_5ratioILl1ELl1000000000EEEEEEENS_9cv_statusERNS_11unique_lockINS_5mutexEEERKNS2_10time_pointIT_T0_EE, symObjAddr: 0x1D928, symBinAddr: 0x10002D4B0, symSize: 0xC0 }
  - { offsetInCU: 0x6070E, offset: 0x80310, size: 0x8, addend: 0x0, symName: __Z36test_pending_tasks_tracking_simuladov, symObjAddr: 0x1C20, symBinAddr: 0x1000127C4, symSize: 0x170 }
  - { offsetInCU: 0x60BC1, offset: 0x807C3, size: 0x8, addend: 0x0, symName: __Z35test_schedule_from_multiple_threadsv, symObjAddr: 0x1DC4, symBinAddr: 0x100012968, symSize: 0x1C4 }
  - { offsetInCU: 0x60FA2, offset: 0x80BA4, size: 0x8, addend: 0x0, symName: '__ZZ35test_schedule_from_multiple_threadsvENK4$_13clEv', symObjAddr: 0x209C0, symBinAddr: 0x100030548, symSize: 0xE4 }
  - { offsetInCU: 0x6125E, offset: 0x80E60, size: 0x8, addend: 0x0, symName: __ZNSt3__16vectorINS_6threadENS_9allocatorIS1_EEE26__swap_out_circular_bufferERNS_14__split_bufferIS1_RS3_EE, symObjAddr: 0x22698, symBinAddr: 0x100032220, symSize: 0x110 }
  - { offsetInCU: 0x612FC, offset: 0x80EFE, size: 0x8, addend: 0x0, symName: __Z31test_schedule_after_destructionv, symObjAddr: 0x2118, symBinAddr: 0x100012CBC, symSize: 0x1D8 }
  - { offsetInCU: 0x6180E, offset: 0x81410, size: 0x8, addend: 0x0, symName: __Z25test_schedule_inside_taskv, symObjAddr: 0x2348, symBinAddr: 0x100012EEC, symSize: 0x1B0 }
  - { offsetInCU: 0x61B0D, offset: 0x8170F, size: 0x8, addend: 0x0, symName: '__ZZ25test_schedule_inside_taskvENK4$_16clEv', symObjAddr: 0x2810C, symBinAddr: 0x100037C94, symSize: 0xCC }
  - { offsetInCU: 0x61DBE, offset: 0x819C0, size: 0x8, addend: 0x0, symName: __Z29test_wait_blocks_until_finishv, symObjAddr: 0x255C, symBinAddr: 0x1000130D0, symSize: 0x13C }
  - { offsetInCU: 0x62080, offset: 0x81C82, size: 0x8, addend: 0x0, symName: __Z32test_many_waits_during_executionv, symObjAddr: 0x26CC, symBinAddr: 0x100013240, symSize: 0x414 }
  - { offsetInCU: 0x625EA, offset: 0x821EC, size: 0x8, addend: 0x0, symName: __Z35test_high_contention_atomic_updatesv, symObjAddr: 0x2CC4, symBinAddr: 0x1000137F4, symSize: 0x170 }
  - { offsetInCU: 0x628C3, offset: 0x824C5, size: 0x8, addend: 0x0, symName: __Z41test_immediate_destruction_after_schedulev, symObjAddr: 0x2E68, symBinAddr: 0x100013998, symSize: 0x184 }
  - { offsetInCU: 0x62B84, offset: 0x82786, size: 0x8, addend: 0x0, symName: __Z37test_massive_schedule_wait_interleavev, symObjAddr: 0x3018, symBinAddr: 0x100013B48, symSize: 0x104 }
  - { offsetInCU: 0x62C9E, offset: 0x828A0, size: 0x8, addend: 0x0, symName: '__ZZ37test_massive_schedule_wait_interleavevENK4$_23clEv', symObjAddr: 0x30C40, symBinAddr: 0x1000407C8, symSize: 0x19C }
  - { offsetInCU: 0x6301C, offset: 0x82C1E, size: 0x8, addend: 0x0, symName: __Z39test_schedule_after_wait_multiple_timesv, symObjAddr: 0x317C, symBinAddr: 0x100013C80, symSize: 0x198 }
  - { offsetInCU: 0x63143, offset: 0x82D45, size: 0x8, addend: 0x0, symName: '__ZZ39test_schedule_after_wait_multiple_timesvENK4$_24clEv', symObjAddr: 0x3389C, symBinAddr: 0x1000432F0, symSize: 0x1B4 }
  - { offsetInCU: 0x6342D, offset: 0x8302F, size: 0x8, addend: 0x0, symName: __Z31test_multiple_wait_inside_tasksv, symObjAddr: 0x34D4, symBinAddr: 0x100013FD8, symSize: 0x1A0 }
  - { offsetInCU: 0x6352B, offset: 0x8312D, size: 0x8, addend: 0x0, symName: '__ZZ31test_multiple_wait_inside_tasksvENK4$_25clEv', symObjAddr: 0x360C0, symBinAddr: 0x100045B14, symSize: 0x138 }
  - { offsetInCU: 0x63805, offset: 0x83407, size: 0x8, addend: 0x0, symName: __Z38test_concurrent_schedule_wait_parallelv, symObjAddr: 0x36A8, symBinAddr: 0x1000141AC, symSize: 0x338 }
  - { offsetInCU: 0x63A9E, offset: 0x836A0, size: 0x8, addend: 0x0, symName: '__ZZ38test_concurrent_schedule_wait_parallelvENK4$_26clEv', symObjAddr: 0x38424, symBinAddr: 0x100047E78, symSize: 0xE4 }
  - { offsetInCU: 0x63DD9, offset: 0x839DB, size: 0x8, addend: 0x0, symName: __Z31test_destructor_waits_for_tasksv, symObjAddr: 0x3B58, symBinAddr: 0x10001465C, symSize: 0x124 }
  - { offsetInCU: 0x640AF, offset: 0x83CB1, size: 0x8, addend: 0x0, symName: __Z27test_repeated_pool_creationv, symObjAddr: 0x3CA8, symBinAddr: 0x1000147AC, symSize: 0x1F8 }
  - { offsetInCU: 0x643C4, offset: 0x83FC6, size: 0x8, addend: 0x0, symName: __Z27test_deep_nested_schedulingv, symObjAddr: 0x3ED4, symBinAddr: 0x1000149D8, symSize: 0xE0 }
  - { offsetInCU: 0x644B2, offset: 0x840B4, size: 0x8, addend: 0x0, symName: '__ZZ27test_deep_nested_schedulingvENK4$_30clEv', symObjAddr: 0x3E01C, symBinAddr: 0x10004DA70, symSize: 0x190 }
  - { offsetInCU: 0x6478D, offset: 0x8438F, size: 0x8, addend: 0x0, symName: '__ZZZ27test_deep_nested_schedulingvENK4$_30clEvENKUlvE_clEv', symObjAddr: 0x3FA00, symBinAddr: 0x10004F454, symSize: 0xCC }
  - { offsetInCU: 0x64A3F, offset: 0x84641, size: 0x8, addend: 0x0, symName: '__ZZZZ27test_deep_nested_schedulingvENK4$_30clEvENKUlvE_clEvENKUlvE_clEv', symObjAddr: 0x41320, symBinAddr: 0x100050D74, symSize: 0xC0 }
  - { offsetInCU: 0x64CE9, offset: 0x848EB, size: 0x8, addend: 0x0, symName: __Z30test_extreme_nested_schedulingv, symObjAddr: 0x3FE8, symBinAddr: 0x100014AEC, symSize: 0x100 }
  - { offsetInCU: 0x64E11, offset: 0x84A13, size: 0x8, addend: 0x0, symName: '__ZZ30test_extreme_nested_schedulingvENK4$_31clEv', symObjAddr: 0x43438, symBinAddr: 0x100052E8C, symSize: 0x20C }
  - { offsetInCU: 0x651C0, offset: 0x84DC2, size: 0x8, addend: 0x0, symName: '__ZZZ30test_extreme_nested_schedulingvENK4$_31clEvENKUliE_clEi', symObjAddr: 0x450E0, symBinAddr: 0x100054B34, symSize: 0xF4 }
  - { offsetInCU: 0x65480, offset: 0x85082, size: 0x8, addend: 0x0, symName: __Z21test_parallel_speedupv, symObjAddr: 0x411C, symBinAddr: 0x100014C20, symSize: 0x18C }
  - { offsetInCU: 0x65797, offset: 0x85399, size: 0x8, addend: 0x0, symName: __Z21test_wait_inside_taskv, symObjAddr: 0x42D4, symBinAddr: 0x100014DD8, symSize: 0x1A0 }
  - { offsetInCU: 0x65895, offset: 0x85497, size: 0x8, addend: 0x0, symName: '__ZZ21test_wait_inside_taskvENK4$_33clEv', symObjAddr: 0x48D90, symBinAddr: 0x100058690, symSize: 0x118 }
  - { offsetInCU: 0x65B5D, offset: 0x8575F, size: 0x8, addend: 0x0, symName: __Z32test_wait_with_infinite_schedulev, symObjAddr: 0x45F0, symBinAddr: 0x1000150F4, symSize: 0x1A0 }
  - { offsetInCU: 0x65C5B, offset: 0x8585D, size: 0x8, addend: 0x0, symName: '__ZZ32test_wait_with_infinite_schedulevENK4$_34clEv', symObjAddr: 0x4AF7C, symBinAddr: 0x10005A838, symSize: 0x164 }
  - { offsetInCU: 0x65F18, offset: 0x85B1A, size: 0x8, addend: 0x0, symName: '__ZZZ32test_wait_with_infinite_schedulevENK4$_34clEvENKUlvE_clEv', symObjAddr: 0x4C91C, symBinAddr: 0x10005C1D8, symSize: 0x78 }
  - { offsetInCU: 0x6898E, offset: 0x88590, size: 0x8, addend: 0x0, symName: __Z12sleep_for_msi, symObjAddr: 0x0, symBinAddr: 0x100010CC4, symSize: 0x38 }
  - { offsetInCU: 0x689BD, offset: 0x885BF, size: 0x8, addend: 0x0, symName: __ZNSt3__16chrono8durationIxNS_5ratioILl1ELl1000EEEEC1B8ue170006IiEERKT_PNS_9enable_ifIXaasr14is_convertibleIS8_xEE5valueooL_ZNS_17integral_constantIbLb0EE5valueEEntsr23treat_as_floating_pointIS6_EE5valueEvE4typeE, symObjAddr: 0xF4, symBinAddr: 0x100010DB8, symSize: 0x3C }
  - { offsetInCU: 0x68A0A, offset: 0x8860C, size: 0x8, addend: 0x0, symName: __Z19running_on_helgrindv, symObjAddr: 0x130, symBinAddr: 0x100010DF4, symSize: 0xC }
  - { offsetInCU: 0x68A28, offset: 0x8862A, size: 0x8, addend: 0x0, symName: __ZNSt3__16vectorIiNS_9allocatorIiEEEC1EmRKi, symObjAddr: 0x354, symBinAddr: 0x100011018, symSize: 0x3C }
  - { offsetInCU: 0x68A72, offset: 0x88674, size: 0x8, addend: 0x0, symName: '__ZNSt3__18functionIFvvEEC1IZ10test_basicvE3$_0vEET_', symObjAddr: 0x390, symBinAddr: 0x100011054, symSize: 0x3C }
  - { offsetInCU: 0x68AB7, offset: 0x886B9, size: 0x8, addend: 0x0, symName: __ZNSt3__16vectorIiNS_9allocatorIiEEEC1B8ue170006ESt16initializer_listIiE, symObjAddr: 0x494, symBinAddr: 0x10001112C, symSize: 0x3C }
  - { offsetInCU: 0x68AF2, offset: 0x886F4, size: 0x8, addend: 0x0, symName: __ZNSt3__16vectorIiNS_9allocatorIiEEED1B8ue170006Ev, symObjAddr: 0x4D0, symBinAddr: 0x100011168, symSize: 0x2C }
  - { offsetInCU: 0x68B1B, offset: 0x8871D, size: 0x8, addend: 0x0, symName: __Z14test_wait_onlyv, symObjAddr: 0x4FC, symBinAddr: 0x100011194, symSize: 0xE4 }
  - { offsetInCU: 0x68B4F, offset: 0x88751, size: 0x8, addend: 0x0, symName: __ZNSt3__118basic_stringstreamIcNS_11char_traitsIcEENS_9allocatorIcEEEC1B8ue170006Ev, symObjAddr: 0x7C4, symBinAddr: 0x10001145C, symSize: 0x104 }
  - { offsetInCU: 0x68B79, offset: 0x8877B, size: 0x8, addend: 0x0, symName: '__ZNSt3__18functionIFvvEEC1IZ21test_serial_executionvE3$_1vEET_', symObjAddr: 0x8F4, symBinAddr: 0x100011560, symSize: 0x34 }
  - { offsetInCU: 0x68BBF, offset: 0x887C1, size: 0x8, addend: 0x0, symName: __ZNKSt3__118basic_stringstreamIcNS_11char_traitsIcEENS_9allocatorIcEEE3strB8ue170006Ev, symObjAddr: 0x9D4, symBinAddr: 0x100011640, symSize: 0x30 }
  - { offsetInCU: 0x68BEB, offset: 0x887ED, size: 0x8, addend: 0x0, symName: __ZNSt3__118basic_stringstreamIcNS_11char_traitsIcEENS_9allocatorIcEEED1Ev, symObjAddr: 0xA04, symBinAddr: 0x100011670, symSize: 0x40 }
  - { offsetInCU: 0x68C18, offset: 0x8881A, size: 0x8, addend: 0x0, symName: __ZNSt3__16vectorIiNS_9allocatorIiEEEC1B8ue170006Ev, symObjAddr: 0xC68, symBinAddr: 0x1000118D4, symSize: 0x2C }
  - { offsetInCU: 0x68C42, offset: 0x88844, size: 0x8, addend: 0x0, symName: '__ZNSt3__18functionIFvvEEC1IZ23test_fifo_single_threadvE3$_2vEET_', symObjAddr: 0xC94, symBinAddr: 0x100011900, symSize: 0x34 }
  - { offsetInCU: 0x68C88, offset: 0x8888A, size: 0x8, addend: 0x0, symName: __ZNSt3__16vectorIiNS_9allocatorIiEEEixB8ue170006Em, symObjAddr: 0xCC8, symBinAddr: 0x100011934, symSize: 0x24 }
  - { offsetInCU: 0x68CBF, offset: 0x888C1, size: 0x8, addend: 0x0, symName: '__ZNSt3__18functionIFvvEEC1IZ22test_concurrent_stressvE3$_3vEET_', symObjAddr: 0xF38, symBinAddr: 0x100011BA4, symSize: 0x3C }
  - { offsetInCU: 0x68D04, offset: 0x88906, size: 0x8, addend: 0x0, symName: __ZNSt3__16vectorIiNS_9allocatorIiEEE5beginB8ue170006Ev, symObjAddr: 0xF74, symBinAddr: 0x100011BE0, symSize: 0x30 }
  - { offsetInCU: 0x68D2C, offset: 0x8892E, size: 0x8, addend: 0x0, symName: __ZNSt3__16vectorIiNS_9allocatorIiEEE3endB8ue170006Ev, symObjAddr: 0xFA4, symBinAddr: 0x100011C10, symSize: 0x30 }
  - { offsetInCU: 0x68D54, offset: 0x88956, size: 0x8, addend: 0x0, symName: __ZNKSt3__111__wrap_iterIPiEdeB8ue170006Ev, symObjAddr: 0x1008, symBinAddr: 0x100011C74, symSize: 0x18 }
  - { offsetInCU: 0x68D7A, offset: 0x8897C, size: 0x8, addend: 0x0, symName: __ZNSt3__111__wrap_iterIPiEppB8ue170006Ev, symObjAddr: 0x1020, symBinAddr: 0x100011C8C, symSize: 0x20 }
  - { offsetInCU: 0x68DA0, offset: 0x889A2, size: 0x8, addend: 0x0, symName: '__ZNSt3__18functionIFvvEEC1IZ15test_reuse_poolvE3$_4vEET_', symObjAddr: 0x1208, symBinAddr: 0x100011E74, symSize: 0x34 }
  - { offsetInCU: 0x68DE5, offset: 0x889E7, size: 0x8, addend: 0x0, symName: '__ZNSt3__18functionIFvvEEC1IZ15test_reuse_poolvE3$_5vEET_', symObjAddr: 0x123C, symBinAddr: 0x100011EA8, symSize: 0x34 }
  - { offsetInCU: 0x68E2A, offset: 0x88A2C, size: 0x8, addend: 0x0, symName: '__ZNSt3__18functionIFvvEEC1IZ24test_multiple_wait_callsvE3$_6vEET_', symObjAddr: 0x13BC, symBinAddr: 0x100012028, symSize: 0x34 }
  - { offsetInCU: 0x68E6F, offset: 0x88A71, size: 0x8, addend: 0x0, symName: __ZNKSt3__113__atomic_baseIiLb0EEcviB8ue170006Ev, symObjAddr: 0x13F0, symBinAddr: 0x10001205C, symSize: 0x28 }
  - { offsetInCU: 0x68E95, offset: 0x88A97, size: 0x8, addend: 0x0, symName: '__ZNSt3__18functionIFvvEEC1IZ19test_massive_stressvE3$_7vEET_', symObjAddr: 0x1598, symBinAddr: 0x100012204, symSize: 0x34 }
  - { offsetInCU: 0x68EDA, offset: 0x88ADC, size: 0x8, addend: 0x0, symName: '__ZNSt3__18functionIFvvEEC1IZ25test_long_tasks_then_quitvE3$_8vEET_', symObjAddr: 0x1720, symBinAddr: 0x10001238C, symSize: 0x2C }
  - { offsetInCU: 0x68F1F, offset: 0x88B21, size: 0x8, addend: 0x0, symName: '__ZNSt3__18functionIFvvEEC1IZ36test_many_short_tasks_on_few_threadsvE3$_9vEET_', symObjAddr: 0x18BC, symBinAddr: 0x100012528, symSize: 0x34 }
  - { offsetInCU: 0x68F6A, offset: 0x88B6C, size: 0x8, addend: 0x0, symName: '__ZNSt3__16threadC1IZ23test_potential_deadlockvE4$_10JEvEEOT_DpOT0_', symObjAddr: 0x1AD8, symBinAddr: 0x100012718, symSize: 0x34 }
  - { offsetInCU: 0x68FBC, offset: 0x88BBE, size: 0x8, addend: 0x0, symName: '__ZNSt3__118condition_variable8wait_forB8ue170006IxNS_5ratioILl1ELl1000EEEZ23test_potential_deadlockvE4$_11EEbRNS_11unique_lockINS_5mutexEEERKNS_6chrono8durationIT_T0_EET1_', symObjAddr: 0x1B40, symBinAddr: 0x10001274C, symSize: 0x78 }
  - { offsetInCU: 0x69027, offset: 0x88C29, size: 0x8, addend: 0x0, symName: '__ZNSt3__18functionIFvvEEC1IZ36test_pending_tasks_tracking_simuladovE4$_12vEET_', symObjAddr: 0x1D90, symBinAddr: 0x100012934, symSize: 0x34 }
  - { offsetInCU: 0x6906C, offset: 0x88C6E, size: 0x8, addend: 0x0, symName: __ZNSt3__16vectorINS_6threadENS_9allocatorIS1_EEEC1B8ue170006Ev, symObjAddr: 0x1F88, symBinAddr: 0x100012B2C, symSize: 0x2C }
  - { offsetInCU: 0x6909C, offset: 0x88C9E, size: 0x8, addend: 0x0, symName: '__ZNSt3__16vectorINS_6threadENS_9allocatorIS1_EEE12emplace_backIJZ35test_schedule_from_multiple_threadsvE4$_13EEEvDpOT_', symObjAddr: 0x1FB4, symBinAddr: 0x100012B58, symSize: 0x6C }
  - { offsetInCU: 0x690DE, offset: 0x88CE0, size: 0x8, addend: 0x0, symName: __ZNSt3__16vectorINS_6threadENS_9allocatorIS1_EEE5beginB8ue170006Ev, symObjAddr: 0x2020, symBinAddr: 0x100012BC4, symSize: 0x30 }
  - { offsetInCU: 0x69106, offset: 0x88D08, size: 0x8, addend: 0x0, symName: __ZNSt3__16vectorINS_6threadENS_9allocatorIS1_EEE3endB8ue170006Ev, symObjAddr: 0x2050, symBinAddr: 0x100012BF4, symSize: 0x30 }
  - { offsetInCU: 0x6912E, offset: 0x88D30, size: 0x8, addend: 0x0, symName: __ZNKSt3__111__wrap_iterIPNS_6threadEEdeB8ue170006Ev, symObjAddr: 0x20B4, symBinAddr: 0x100012C58, symSize: 0x18 }
  - { offsetInCU: 0x69154, offset: 0x88D56, size: 0x8, addend: 0x0, symName: __ZNSt3__111__wrap_iterIPNS_6threadEEppB8ue170006Ev, symObjAddr: 0x20CC, symBinAddr: 0x100012C70, symSize: 0x20 }
  - { offsetInCU: 0x6917A, offset: 0x88D7C, size: 0x8, addend: 0x0, symName: __ZNSt3__16vectorINS_6threadENS_9allocatorIS1_EEED1B8ue170006Ev, symObjAddr: 0x20EC, symBinAddr: 0x100012C90, symSize: 0x2C }
  - { offsetInCU: 0x691A4, offset: 0x88DA6, size: 0x8, addend: 0x0, symName: '__ZNSt3__18functionIFvvEEC1IZ31test_schedule_after_destructionvE4$_14vEET_', symObjAddr: 0x22F0, symBinAddr: 0x100012E94, symSize: 0x2C }
  - { offsetInCU: 0x691E9, offset: 0x88DEB, size: 0x8, addend: 0x0, symName: '__ZNSt3__18functionIFvvEEC1IZ31test_schedule_after_destructionvE4$_15vEET_', symObjAddr: 0x231C, symBinAddr: 0x100012EC0, symSize: 0x2C }
  - { offsetInCU: 0x6922E, offset: 0x88E30, size: 0x8, addend: 0x0, symName: '__ZNSt3__18functionIFvvEEC1IZ25test_schedule_inside_taskvE4$_16vEET_', symObjAddr: 0x24F8, symBinAddr: 0x10001309C, symSize: 0x34 }
  - { offsetInCU: 0x69274, offset: 0x88E76, size: 0x8, addend: 0x0, symName: '__ZNSt3__18functionIFvvEEC1IZ29test_wait_blocks_until_finishvE4$_17vEET_', symObjAddr: 0x2698, symBinAddr: 0x10001320C, symSize: 0x34 }
  - { offsetInCU: 0x692B9, offset: 0x88EBB, size: 0x8, addend: 0x0, symName: '__ZNSt3__18functionIFvvEEC1IZ32test_many_waits_during_executionvE4$_18vEET_', symObjAddr: 0x2AE0, symBinAddr: 0x100013654, symSize: 0x34 }
  - { offsetInCU: 0x692FE, offset: 0x88F00, size: 0x8, addend: 0x0, symName: __ZNSt3__15arrayINS_6atomicIbEELm5EEixB8ue170006Em, symObjAddr: 0x2B14, symBinAddr: 0x100013688, symSize: 0x20 }
  - { offsetInCU: 0x69338, offset: 0x88F3A, size: 0x8, addend: 0x0, symName: '__ZNSt3__16vectorINS_6threadENS_9allocatorIS1_EEE12emplace_backIJZ32test_many_waits_during_executionvE4$_19EEEvDpOT_', symObjAddr: 0x2B78, symBinAddr: 0x1000136A8, symSize: 0x6C }
  - { offsetInCU: 0x6937A, offset: 0x88F7C, size: 0x8, addend: 0x0, symName: __ZNSt3__15arrayINS_6atomicIbEELm5EE5beginB8ue170006Ev, symObjAddr: 0x2BE4, symBinAddr: 0x100013714, symSize: 0x24 }
  - { offsetInCU: 0x693A0, offset: 0x88FA2, size: 0x8, addend: 0x0, symName: __ZNSt3__15arrayINS_6atomicIbEELm5EE3endB8ue170006Ev, symObjAddr: 0x2C08, symBinAddr: 0x100013738, symSize: 0x28 }
  - { offsetInCU: 0x693C6, offset: 0x88FC8, size: 0x8, addend: 0x0, symName: '__ZNSt3__18functionIFvvEEC1IZ35test_high_contention_atomic_updatesvE4$_21vEET_', symObjAddr: 0x2E34, symBinAddr: 0x100013964, symSize: 0x34 }
  - { offsetInCU: 0x6940B, offset: 0x8900D, size: 0x8, addend: 0x0, symName: '__ZNSt3__18functionIFvvEEC1IZ41test_immediate_destruction_after_schedulevE4$_22vEET_', symObjAddr: 0x2FEC, symBinAddr: 0x100013B1C, symSize: 0x2C }
  - { offsetInCU: 0x69456, offset: 0x89058, size: 0x8, addend: 0x0, symName: '__ZNSt3__16threadC1IZ37test_massive_schedule_wait_interleavevE4$_23JEvEEOT_DpOT0_', symObjAddr: 0x311C, symBinAddr: 0x100013C4C, symSize: 0x34 }
  - { offsetInCU: 0x6949D, offset: 0x8909F, size: 0x8, addend: 0x0, symName: __ZNSt3__17promiseIbEC1Ev, symObjAddr: 0x3314, symBinAddr: 0x100013E18, symSize: 0x2C }
  - { offsetInCU: 0x694C9, offset: 0x890CB, size: 0x8, addend: 0x0, symName: __ZNSt3__17promiseIbE10get_futureEv, symObjAddr: 0x3340, symBinAddr: 0x100013E44, symSize: 0x58 }
  - { offsetInCU: 0x694F7, offset: 0x890F9, size: 0x8, addend: 0x0, symName: '__ZNSt3__16threadC1IZ39test_schedule_after_wait_multiple_timesvE4$_24JEvEEOT_DpOT0_', symObjAddr: 0x3398, symBinAddr: 0x100013E9C, symSize: 0x34 }
  - { offsetInCU: 0x6953E, offset: 0x89140, size: 0x8, addend: 0x0, symName: __ZNKSt3__16futureIbE8wait_forB8ue170006IxNS_5ratioILl1ELl1000EEEEENS_13future_statusERKNS_6chrono8durationIT_T0_EE, symObjAddr: 0x33CC, symBinAddr: 0x100013ED0, symSize: 0x30 }
  - { offsetInCU: 0x69585, offset: 0x89187, size: 0x8, addend: 0x0, symName: __ZNSt3__16futureIbE3getEv, symObjAddr: 0x33FC, symBinAddr: 0x100013F00, symSize: 0x80 }
  - { offsetInCU: 0x695CD, offset: 0x891CF, size: 0x8, addend: 0x0, symName: __ZNSt3__16futureIbED1Ev, symObjAddr: 0x347C, symBinAddr: 0x100013F80, symSize: 0x2C }
  - { offsetInCU: 0x695F9, offset: 0x891FB, size: 0x8, addend: 0x0, symName: __ZNSt3__17promiseIbED1Ev, symObjAddr: 0x34A8, symBinAddr: 0x100013FAC, symSize: 0x2C }
  - { offsetInCU: 0x6962B, offset: 0x8922D, size: 0x8, addend: 0x0, symName: '__ZNSt3__16threadC1IZ31test_multiple_wait_inside_tasksvE4$_25JEvEEOT_DpOT0_', symObjAddr: 0x3674, symBinAddr: 0x100014178, symSize: 0x34 }
  - { offsetInCU: 0x69678, offset: 0x8927A, size: 0x8, addend: 0x0, symName: '__ZNSt3__16vectorINS_6threadENS_9allocatorIS1_EEE12emplace_backIJZ38test_concurrent_schedule_wait_parallelvE4$_26EEEvDpOT_', symObjAddr: 0x39E0, symBinAddr: 0x1000144E4, symSize: 0x6C }
  - { offsetInCU: 0x696C0, offset: 0x892C2, size: 0x8, addend: 0x0, symName: '__ZNSt3__16vectorINS_6threadENS_9allocatorIS1_EEE12emplace_backIJZ38test_concurrent_schedule_wait_parallelvE4$_27EEEvDpOT_', symObjAddr: 0x3A4C, symBinAddr: 0x100014550, symSize: 0x6C }
  - { offsetInCU: 0x69702, offset: 0x89304, size: 0x8, addend: 0x0, symName: __ZNKSt3__16chrono8durationIxNS_5ratioILl1ELl1000EEEE5countB8ue170006Ev, symObjAddr: 0x3B40, symBinAddr: 0x100014644, symSize: 0x18 }
  - { offsetInCU: 0x69728, offset: 0x8932A, size: 0x8, addend: 0x0, symName: '__ZNSt3__18functionIFvvEEC1IZ31test_destructor_waits_for_tasksvE4$_28vEET_', symObjAddr: 0x3C7C, symBinAddr: 0x100014780, symSize: 0x2C }
  - { offsetInCU: 0x6976D, offset: 0x8936F, size: 0x8, addend: 0x0, symName: '__ZNSt3__18functionIFvvEEC1IZ27test_repeated_pool_creationvE4$_29vEET_', symObjAddr: 0x3EA0, symBinAddr: 0x1000149A4, symSize: 0x34 }
  - { offsetInCU: 0x697B8, offset: 0x893BA, size: 0x8, addend: 0x0, symName: '__ZNSt3__16threadC1IZ27test_deep_nested_schedulingvE4$_30JEvEEOT_DpOT0_', symObjAddr: 0x3FB4, symBinAddr: 0x100014AB8, symSize: 0x34 }
  - { offsetInCU: 0x69805, offset: 0x89407, size: 0x8, addend: 0x0, symName: '__ZNSt3__16threadC1IZ30test_extreme_nested_schedulingvE4$_31JEvEEOT_DpOT0_', symObjAddr: 0x40E8, symBinAddr: 0x100014BEC, symSize: 0x34 }
  - { offsetInCU: 0x6984C, offset: 0x8944E, size: 0x8, addend: 0x0, symName: '__ZNSt3__18functionIFvvEEC1IZ21test_parallel_speedupvE4$_32vEET_', symObjAddr: 0x42A8, symBinAddr: 0x100014DAC, symSize: 0x2C }
  - { offsetInCU: 0x69897, offset: 0x89499, size: 0x8, addend: 0x0, symName: '__ZNSt3__16threadC1IZ21test_wait_inside_taskvE4$_33JEvEEOT_DpOT0_', symObjAddr: 0x4474, symBinAddr: 0x100014F78, symSize: 0x34 }
  - { offsetInCU: 0x698DD, offset: 0x894DF, size: 0x8, addend: 0x0, symName: __Z21test_schedule_nullptrv, symObjAddr: 0x44A8, symBinAddr: 0x100014FAC, symSize: 0x114 }
  - { offsetInCU: 0x69925, offset: 0x89527, size: 0x8, addend: 0x0, symName: __ZNSt3__18functionIFvvEEC1B8ue170006EDn, symObjAddr: 0x45BC, symBinAddr: 0x1000150C0, symSize: 0x34 }
  - { offsetInCU: 0x69961, offset: 0x89563, size: 0x8, addend: 0x0, symName: '__ZNSt3__16threadC1IZ32test_wait_with_infinite_schedulevE4$_34JEvEEOT_DpOT0_', symObjAddr: 0x4790, symBinAddr: 0x100015294, symSize: 0x34 }
  - { offsetInCU: 0x699A8, offset: 0x895AA, size: 0x8, addend: 0x0, symName: __Z8run_testRK8TestCase, symObjAddr: 0x47C4, symBinAddr: 0x1000152C8, symSize: 0x758 }
  - { offsetInCU: 0x69ACF, offset: 0x896D1, size: 0x8, addend: 0x0, symName: __ZNSt3__112basic_stringIcNS_11char_traitsIcEENS_9allocatorIcEEEC1B8ue170006ILi0EEEPKc, symObjAddr: 0x4F1C, symBinAddr: 0x100015A20, symSize: 0x34 }
  - { offsetInCU: 0x69B2D, offset: 0x8972F, size: 0x8, addend: 0x0, symName: __ZNSt3__14pairIKcNS_12basic_stringIcNS_11char_traitsIcEENS_9allocatorIcEEEEEC1B8ue170006IcRA6_S1_LPv0EEEOT_OT0_, symObjAddr: 0x4F50, symBinAddr: 0x100015A54, symSize: 0x3C }
  - { offsetInCU: 0x69B8B, offset: 0x8978D, size: 0x8, addend: 0x0, symName: __ZNSt3__14pairIKcNS_12basic_stringIcNS_11char_traitsIcEENS_9allocatorIcEEEEED1Ev, symObjAddr: 0x4F8C, symBinAddr: 0x100015A90, symSize: 0x2C }
  - { offsetInCU: 0x69BB7, offset: 0x897B9, size: 0x8, addend: 0x0, symName: __ZNSt3__13mapIcNS_12basic_stringIcNS_11char_traitsIcEENS_9allocatorIcEEEENS_4lessIcEENS4_INS_4pairIKcS6_EEEEEC1B8ue170006ESt16initializer_listISB_ERKS8_, symObjAddr: 0x4FB8, symBinAddr: 0x100015ABC, symSize: 0x44 }
  - { offsetInCU: 0x69BFF, offset: 0x89801, size: 0x8, addend: 0x0, symName: __ZNKSt3__13mapIcNS_12basic_stringIcNS_11char_traitsIcEENS_9allocatorIcEEEENS_4lessIcEENS4_INS_4pairIKcS6_EEEEE5countB8ue170006ERSA_, symObjAddr: 0x4FFC, symBinAddr: 0x100015B00, symSize: 0x2C }
  - { offsetInCU: 0x69C34, offset: 0x89836, size: 0x8, addend: 0x0, symName: __ZNKSt3__112basic_stringIcNS_11char_traitsIcEENS_9allocatorIcEEEixB8ue170006Em, symObjAddr: 0x5028, symBinAddr: 0x100015B2C, symSize: 0x30 }
  - { offsetInCU: 0x69C69, offset: 0x8986B, size: 0x8, addend: 0x0, symName: __ZNKSt3__13mapIcNS_12basic_stringIcNS_11char_traitsIcEENS_9allocatorIcEEEENS_4lessIcEENS4_INS_4pairIKcS6_EEEEE2atERSA_, symObjAddr: 0x5058, symBinAddr: 0x100015B5C, symSize: 0x68 }
  - { offsetInCU: 0x69CC0, offset: 0x898C2, size: 0x8, addend: 0x0, symName: __ZNKSt3__18functionIFbvEEclEv, symObjAddr: 0x51B4, symBinAddr: 0x100015C58, symSize: 0x28 }
  - { offsetInCU: 0x69CE8, offset: 0x898EA, size: 0x8, addend: 0x0, symName: __ZNSt3__112basic_stringIcNS_11char_traitsIcEENS_9allocatorIcEEEC1B8ue170006Ev, symObjAddr: 0x51DC, symBinAddr: 0x100015C80, symSize: 0x2C }
  - { offsetInCU: 0x69D12, offset: 0x89914, size: 0x8, addend: 0x0, symName: __ZNSt3__112basic_stringIcNS_11char_traitsIcEENS_9allocatorIcEEEaSB8ue170006EPKc, symObjAddr: 0x5208, symBinAddr: 0x100015CAC, symSize: 0x2C }
  - { offsetInCU: 0x69D47, offset: 0x89949, size: 0x8, addend: 0x0, symName: __ZNSt3__112basic_stringIcNS_11char_traitsIcEENS_9allocatorIcEEEaSB8ue170006EOS5_, symObjAddr: 0x52B8, symBinAddr: 0x100015D5C, symSize: 0x34 }
  - { offsetInCU: 0x69D7C, offset: 0x8997E, size: 0x8, addend: 0x0, symName: __ZNSt3__113basic_ostreamIcNS_11char_traitsIcEEElsB8ue170006EPFRS3_S4_E, symObjAddr: 0x52EC, symBinAddr: 0x100015D90, symSize: 0x2C }
  - { offsetInCU: 0x69DB0, offset: 0x899B2, size: 0x8, addend: 0x0, symName: __ZNSt3__13mapIcNS_12basic_stringIcNS_11char_traitsIcEENS_9allocatorIcEEEENS_4lessIcEENS4_INS_4pairIKcS6_EEEEED1B8ue170006Ev, symObjAddr: 0x5370, symBinAddr: 0x100015E14, symSize: 0x2C }
  - { offsetInCU: 0x69DDA, offset: 0x899DC, size: 0x8, addend: 0x0, symName: __Z13print_summaryRKNSt3__16vectorI8TestCaseNS_9allocatorIS1_EEEE, symObjAddr: 0x539C, symBinAddr: 0x100015E40, symSize: 0xA8 }
  - { offsetInCU: 0x69E04, offset: 0x89A06, size: 0x8, addend: 0x0, symName: __ZNKSt3__16vectorI8TestCaseNS_9allocatorIS1_EEE4sizeB8ue170006Ev, symObjAddr: 0x5444, symBinAddr: 0x100015EE8, symSize: 0x28 }
  - { offsetInCU: 0x69E2A, offset: 0x89A2C, size: 0x8, addend: 0x0, symName: _main, symObjAddr: 0x546C, symBinAddr: 0x100015F10, symSize: 0x1380 }
  - { offsetInCU: 0x69EA0, offset: 0x89AA2, size: 0x8, addend: 0x0, symName: __ZNSt3__18functionIFbvEEC1IPS1_vEET_, symObjAddr: 0x67EC, symBinAddr: 0x100017290, symSize: 0x34 }
  - { offsetInCU: 0x69EEB, offset: 0x89AED, size: 0x8, addend: 0x0, symName: __ZN8TestCaseD1Ev, symObjAddr: 0x6820, symBinAddr: 0x1000172C4, symSize: 0x2C }
  - { offsetInCU: 0x69F17, offset: 0x89B19, size: 0x8, addend: 0x0, symName: __ZNSt3__16vectorI8TestCaseNS_9allocatorIS1_EEEC1B8ue170006ESt16initializer_listIS1_E, symObjAddr: 0x684C, symBinAddr: 0x1000172F0, symSize: 0x3C }
  - { offsetInCU: 0x69F52, offset: 0x89B54, size: 0x8, addend: 0x0, symName: __ZNSt3__16vectorI8TestCaseNS_9allocatorIS1_EEE5beginB8ue170006Ev, symObjAddr: 0x6888, symBinAddr: 0x10001732C, symSize: 0x30 }
  - { offsetInCU: 0x69F7A, offset: 0x89B7C, size: 0x8, addend: 0x0, symName: __ZNSt3__16vectorI8TestCaseNS_9allocatorIS1_EEE3endB8ue170006Ev, symObjAddr: 0x68B8, symBinAddr: 0x10001735C, symSize: 0x30 }
  - { offsetInCU: 0x69FA2, offset: 0x89BA4, size: 0x8, addend: 0x0, symName: __ZNKSt3__111__wrap_iterIP8TestCaseEdeB8ue170006Ev, symObjAddr: 0x691C, symBinAddr: 0x1000173C0, symSize: 0x18 }
  - { offsetInCU: 0x69FC8, offset: 0x89BCA, size: 0x8, addend: 0x0, symName: __ZNSt3__111__wrap_iterIP8TestCaseEppB8ue170006Ev, symObjAddr: 0x6934, symBinAddr: 0x1000173D8, symSize: 0x20 }
  - { offsetInCU: 0x69FEE, offset: 0x89BF0, size: 0x8, addend: 0x0, symName: __ZNSt3__16vectorI8TestCaseNS_9allocatorIS1_EEED1B8ue170006Ev, symObjAddr: 0x6954, symBinAddr: 0x1000173F8, symSize: 0x2C }
  - { offsetInCU: 0x6A018, offset: 0x89C1A, size: 0x8, addend: 0x0, symName: __ZNSt3__16chrono8durationIxNS_5ratioILl1ELl1000EEEEC2B8ue170006IiEERKT_PNS_9enable_ifIXaasr14is_convertibleIS8_xEE5valueooL_ZNS_17integral_constantIbLb0EE5valueEEntsr23treat_as_floating_pointIS6_EE5valueEvE4typeE, symObjAddr: 0x6980, symBinAddr: 0x100017424, symSize: 0x28 }
  - { offsetInCU: 0x6A065, offset: 0x89C67, size: 0x8, addend: 0x0, symName: __ZNSt3__118basic_stringstreamIcNS_11char_traitsIcEENS_9allocatorIcEEED2Ev, symObjAddr: 0x69EC, symBinAddr: 0x10001744C, symSize: 0x6C }
  - { offsetInCU: 0x6A09F, offset: 0x89CA1, size: 0x8, addend: 0x0, symName: __ZThn16_NSt3__118basic_stringstreamIcNS_11char_traitsIcEENS_9allocatorIcEEED1Ev, symObjAddr: 0x6A58, symBinAddr: 0x1000174B8, symSize: 0x1C }
  - { offsetInCU: 0x6A0B6, offset: 0x89CB8, size: 0x8, addend: 0x0, symName: __ZTv0_n24_NSt3__118basic_stringstreamIcNS_11char_traitsIcEENS_9allocatorIcEEED1Ev, symObjAddr: 0x6A74, symBinAddr: 0x1000174D4, symSize: 0x28 }
  - { offsetInCU: 0x6A0D3, offset: 0x89CD5, size: 0x8, addend: 0x0, symName: __ZNSt3__115basic_stringbufIcNS_11char_traitsIcEENS_9allocatorIcEEED1Ev, symObjAddr: 0x6A9C, symBinAddr: 0x1000174FC, symSize: 0x2C }
  - { offsetInCU: 0x6A100, offset: 0x89D02, size: 0x8, addend: 0x0, symName: __ZNSt3__115basic_stringbufIcNS_11char_traitsIcEENS_9allocatorIcEEED2Ev, symObjAddr: 0x6AC8, symBinAddr: 0x100017528, symSize: 0x48 }
  - { offsetInCU: 0x6A12D, offset: 0x89D2F, size: 0x8, addend: 0x0, symName: __ZNKSt3__111__wrap_iterIPiE4baseB8ue170006Ev, symObjAddr: 0x6B58, symBinAddr: 0x1000175B8, symSize: 0x18 }
  - { offsetInCU: 0x6A153, offset: 0x89D55, size: 0x8, addend: 0x0, symName: __ZNKSt3__111__wrap_iterIPNS_6threadEE4baseB8ue170006Ev, symObjAddr: 0x6C50, symBinAddr: 0x100017618, symSize: 0x18 }
  - { offsetInCU: 0x6A179, offset: 0x89D7B, size: 0x8, addend: 0x0, symName: __ZNKSt3__16chrono8durationIxNS_5ratioILl1ELl1000000000EEEE5countB8ue170006Ev, symObjAddr: 0x6CB4, symBinAddr: 0x10001767C, symSize: 0x18 }
  - { offsetInCU: 0x6A1AA, offset: 0x89DAC, size: 0x8, addend: 0x0, symName: __ZNSt3__16chrono8durationIxNS_5ratioILl1ELl1000EEEEC1B8ue170006IxEERKT_PNS_9enable_ifIXaasr14is_convertibleIS8_xEE5valueooL_ZNS_17integral_constantIbLb0EE5valueEEntsr23treat_as_floating_pointIS6_EE5valueEvE4typeE, symObjAddr: 0x6CCC, symBinAddr: 0x100017694, symSize: 0x3C }
  - { offsetInCU: 0x6A1F7, offset: 0x89DF9, size: 0x8, addend: 0x0, symName: __ZNSt3__16chrono8durationIxNS_5ratioILl1ELl1000EEEEC2B8ue170006IxEERKT_PNS_9enable_ifIXaasr14is_convertibleIS8_xEE5valueooL_ZNS_17integral_constantIbLb0EE5valueEEntsr23treat_as_floating_pointIS6_EE5valueEvE4typeE, symObjAddr: 0x6D08, symBinAddr: 0x1000176D0, symSize: 0x28 }
  - { offsetInCU: 0x6A244, offset: 0x89E46, size: 0x8, addend: 0x0, symName: __ZNSt3__14pairIKcNS_12basic_stringIcNS_11char_traitsIcEENS_9allocatorIcEEEEED2Ev, symObjAddr: 0x6D30, symBinAddr: 0x1000176F8, symSize: 0x30 }
  - { offsetInCU: 0x6A270, offset: 0x89E72, size: 0x8, addend: 0x0, symName: __ZN8TestCaseD2Ev, symObjAddr: 0x6D60, symBinAddr: 0x100017728, symSize: 0x44 }
  - { offsetInCU: 0x6A29C, offset: 0x89E9E, size: 0x8, addend: 0x0, symName: __ZNSt3__18functionIFbvEED1Ev, symObjAddr: 0x6DA4, symBinAddr: 0x10001776C, symSize: 0x2C }
  - { offsetInCU: 0x6A2C8, offset: 0x89ECA, size: 0x8, addend: 0x0, symName: __ZNSt3__18functionIFbvEED2Ev, symObjAddr: 0x6DD0, symBinAddr: 0x100017798, symSize: 0x2C }
  - { offsetInCU: 0x6A2F4, offset: 0x89EF6, size: 0x8, addend: 0x0, symName: __ZNSt3__110__function12__value_funcIFbvEED1B8ue170006Ev, symObjAddr: 0x6DFC, symBinAddr: 0x1000177C4, symSize: 0x2C }
  - { offsetInCU: 0x6A31E, offset: 0x89F20, size: 0x8, addend: 0x0, symName: __ZNSt3__110__function12__value_funcIFbvEED2B8ue170006Ev, symObjAddr: 0x6E28, symBinAddr: 0x1000177F0, symSize: 0x90 }
  - { offsetInCU: 0x6A348, offset: 0x89F4A, size: 0x8, addend: 0x0, symName: __ZNKSt3__111__wrap_iterIP8TestCaseE4baseB8ue170006Ev, symObjAddr: 0x6F00, symBinAddr: 0x1000178C8, symSize: 0x18 }
  - { offsetInCU: 0x6A36E, offset: 0x89F70, size: 0x8, addend: 0x0, symName: __ZNSt3__16chrono8durationIxNS_5ratioILl1ELl1000EEEE4zeroB8ue170006Ev, symObjAddr: 0x6FB4, symBinAddr: 0x100017910, symSize: 0x3C }
  - { offsetInCU: 0x6A382, offset: 0x89F84, size: 0x8, addend: 0x0, symName: __ZNSt3__16chrono8durationIxNS_5ratioILl1ELl1000000000EEEEppB8ue170006Ev, symObjAddr: 0x7088, symBinAddr: 0x1000179E4, symSize: 0x20 }
  - { offsetInCU: 0x6A3A8, offset: 0x89FAA, size: 0x8, addend: 0x0, symName: __ZNSt3__16chrono8durationIxNS_5ratioILl1ELl1000000000EEEE3maxB8ue170006Ev, symObjAddr: 0x70A8, symBinAddr: 0x100017A04, symSize: 0x3C }
  - { offsetInCU: 0x6A3C7, offset: 0x89FC9, size: 0x8, addend: 0x0, symName: __ZNKSt3__16chrono13__duration_ltINS0_8durationIxNS_5ratioILl1ELl1000EEEEES5_EclB8ue170006ERKS5_S8_, symObjAddr: 0x7118, symBinAddr: 0x100017A74, symSize: 0x4C }
  - { offsetInCU: 0x6A40B, offset: 0x8A00D, size: 0x8, addend: 0x0, symName: __ZNSt3__16chrono15duration_valuesIxE4zeroB8ue170006Ev, symObjAddr: 0x7164, symBinAddr: 0x100017AC0, symSize: 0x8 }
  - { offsetInCU: 0x6A41F, offset: 0x8A021, size: 0x8, addend: 0x0, symName: __ZNSt3__16chrono8durationIeNS_5ratioILl1ELl1000EEEEC1B8ue170006IxS3_EERKNS1_IT_T0_EEPNS_9enable_ifIXaasr13__no_overflowIS7_S3_EE5valueooL_ZNS_17integral_constantIbLb1EE5valueEEaaeqsr13__no_overflowIS7_S3_E4typeE3denLi1Entsr23treat_as_floating_pointIS6_EE5valueEvE4typeE, symObjAddr: 0x71E4, symBinAddr: 0x100017B40, symSize: 0x3C }
  - { offsetInCU: 0x6A476, offset: 0x8A078, size: 0x8, addend: 0x0, symName: __ZNKSt3__16chrono8durationIeNS_5ratioILl1ELl1000EEEE5countB8ue170006Ev, symObjAddr: 0x7220, symBinAddr: 0x100017B7C, symSize: 0x18 }
  - { offsetInCU: 0x6A49C, offset: 0x8A09E, size: 0x8, addend: 0x0, symName: __ZNSt3__16chrono8durationIeNS_5ratioILl1ELl1000EEEEC1B8ue170006IeNS2_ILl1ELl1EEEEERKNS1_IT_T0_EEPNS_9enable_ifIXaasr13__no_overflowIS8_S3_EE5valueooL_ZNS_17integral_constantIbLb1EE5valueEEaaeqsr13__no_overflowIS8_S3_E4typeE3denLi1Entsr23treat_as_floating_pointIS7_EE5valueEvE4typeE, symObjAddr: 0x7238, symBinAddr: 0x100017B94, symSize: 0x3C }
  - { offsetInCU: 0x6A4F3, offset: 0x8A0F5, size: 0x8, addend: 0x0, symName: __ZNSt3__16chrono8durationIeNS_5ratioILl1ELl1000EEEEC2B8ue170006IxS3_EERKNS1_IT_T0_EEPNS_9enable_ifIXaasr13__no_overflowIS7_S3_EE5valueooL_ZNS_17integral_constantIbLb1EE5valueEEaaeqsr13__no_overflowIS7_S3_E4typeE3denLi1Entsr23treat_as_floating_pointIS6_EE5valueEvE4typeE, symObjAddr: 0x7274, symBinAddr: 0x100017BD0, symSize: 0x48 }
  - { offsetInCU: 0x6A555, offset: 0x8A157, size: 0x8, addend: 0x0, symName: __ZNKSt3__16chrono15__duration_castINS0_8durationIxNS_5ratioILl1ELl1000EEEEENS2_IeS4_EENS3_ILl1ELl1EEELb1ELb1EEclB8ue170006ERKS5_, symObjAddr: 0x72EC, symBinAddr: 0x100017C48, symSize: 0x44 }
  - { offsetInCU: 0x6A594, offset: 0x8A196, size: 0x8, addend: 0x0, symName: __ZNSt3__16chrono8durationIeNS_5ratioILl1ELl1000EEEEC1B8ue170006IeEERKT_PNS_9enable_ifIXaasr14is_convertibleIS8_eEE5valueooL_ZNS_17integral_constantIbLb1EE5valueEEntsr23treat_as_floating_pointIS6_EE5valueEvE4typeE, symObjAddr: 0x7330, symBinAddr: 0x100017C8C, symSize: 0x3C }
  - { offsetInCU: 0x6A5E1, offset: 0x8A1E3, size: 0x8, addend: 0x0, symName: __ZNSt3__16chrono8durationIeNS_5ratioILl1ELl1000EEEEC2B8ue170006IeEERKT_PNS_9enable_ifIXaasr14is_convertibleIS8_eEE5valueooL_ZNS_17integral_constantIbLb1EE5valueEEntsr23treat_as_floating_pointIS6_EE5valueEvE4typeE, symObjAddr: 0x736C, symBinAddr: 0x100017CC8, symSize: 0x28 }
  - { offsetInCU: 0x6A62E, offset: 0x8A230, size: 0x8, addend: 0x0, symName: __ZNSt3__16chrono8durationIeNS_5ratioILl1ELl1000EEEEC2B8ue170006IeNS2_ILl1ELl1EEEEERKNS1_IT_T0_EEPNS_9enable_ifIXaasr13__no_overflowIS8_S3_EE5valueooL_ZNS_17integral_constantIbLb1EE5valueEEaaeqsr13__no_overflowIS8_S3_E4typeE3denLi1Entsr23treat_as_floating_pointIS7_EE5valueEvE4typeE, symObjAddr: 0x7394, symBinAddr: 0x100017CF0, symSize: 0x48 }
  - { offsetInCU: 0x6A685, offset: 0x8A287, size: 0x8, addend: 0x0, symName: __ZNKSt3__16chrono8durationIeNS_5ratioILl1ELl1EEEE5countB8ue170006Ev, symObjAddr: 0x7458, symBinAddr: 0x100017DB4, symSize: 0x18 }
  - { offsetInCU: 0x6A6AB, offset: 0x8A2AD, size: 0x8, addend: 0x0, symName: __ZNSt3__16chrono8durationIxNS_5ratioILl1ELl1000000000EEEEC1B8ue170006IxEERKT_PNS_9enable_ifIXaasr14is_convertibleIS8_xEE5valueooL_ZNS_17integral_constantIbLb0EE5valueEEntsr23treat_as_floating_pointIS6_EE5valueEvE4typeE, symObjAddr: 0x74BC, symBinAddr: 0x100017E18, symSize: 0x3C }
  - { offsetInCU: 0x6A6F8, offset: 0x8A2FA, size: 0x8, addend: 0x0, symName: __ZNSt3__16chrono8durationIxNS_5ratioILl1ELl1000000000EEEEC2B8ue170006IxEERKT_PNS_9enable_ifIXaasr14is_convertibleIS8_xEE5valueooL_ZNS_17integral_constantIbLb0EE5valueEEntsr23treat_as_floating_pointIS6_EE5valueEvE4typeE, symObjAddr: 0x74F8, symBinAddr: 0x100017E54, symSize: 0x28 }
  - { offsetInCU: 0x6A745, offset: 0x8A347, size: 0x8, addend: 0x0, symName: __ZNSt3__16chrono8durationIxNS_5ratioILl1ELl1000000000EEEEC1B8ue170006IxNS2_ILl1ELl1000EEEEERKNS1_IT_T0_EEPNS_9enable_ifIXaasr13__no_overflowIS8_S3_EE5valueooL_ZNS_17integral_constantIbLb0EE5valueEEaaeqsr13__no_overflowIS8_S3_E4typeE3denLi1Entsr23treat_as_floating_pointIS7_EE5valueEvE4typeE, symObjAddr: 0x758C, symBinAddr: 0x100017EE8, symSize: 0x3C }
  - { offsetInCU: 0x6A79C, offset: 0x8A39E, size: 0x8, addend: 0x0, symName: __ZNSt3__16chrono8durationIxNS_5ratioILl1ELl1000000000EEEEC2B8ue170006IxNS2_ILl1ELl1000EEEEERKNS1_IT_T0_EEPNS_9enable_ifIXaasr13__no_overflowIS8_S3_EE5valueooL_ZNS_17integral_constantIbLb0EE5valueEEaaeqsr13__no_overflowIS8_S3_E4typeE3denLi1Entsr23treat_as_floating_pointIS7_EE5valueEvE4typeE, symObjAddr: 0x75C8, symBinAddr: 0x100017F24, symSize: 0x50 }
  - { offsetInCU: 0x6A7F3, offset: 0x8A3F5, size: 0x8, addend: 0x0, symName: __ZNSt3__16chrono15duration_valuesIxE3maxB8ue170006Ev, symObjAddr: 0x7618, symBinAddr: 0x100017F74, symSize: 0x14 }
  - { offsetInCU: 0x6A807, offset: 0x8A409, size: 0x8, addend: 0x0, symName: __ZNSt3__114numeric_limitsIxE3maxB8ue170006Ev, symObjAddr: 0x762C, symBinAddr: 0x100017F88, symSize: 0x14 }
  - { offsetInCU: 0x6A81B, offset: 0x8A41D, size: 0x8, addend: 0x0, symName: __ZNSt3__123__libcpp_numeric_limitsIxLb1EE3maxB8ue170006Ev, symObjAddr: 0x7640, symBinAddr: 0x100017F9C, symSize: 0x8 }
  - { offsetInCU: 0x6A82F, offset: 0x8A431, size: 0x8, addend: 0x0, symName: __ZNSt3__16vectorIiNS_9allocatorIiEEEC2EmRKi, symObjAddr: 0x7648, symBinAddr: 0x100017FA4, symSize: 0xDC }
  - { offsetInCU: 0x6A89C, offset: 0x8A49E, size: 0x8, addend: 0x0, symName: __ZNSt3__117__compressed_pairIPiNS_9allocatorIiEEEC1B8ue170006IDnNS_18__default_init_tagEEEOT_OT0_, symObjAddr: 0x7724, symBinAddr: 0x100018080, symSize: 0x3C }
  - { offsetInCU: 0x6A8F4, offset: 0x8A4F6, size: 0x8, addend: 0x0, symName: __ZNSt3__16vectorIiNS_9allocatorIiEEE16__destroy_vectorC1B8ue170006ERS3_, symObjAddr: 0x77A0, symBinAddr: 0x1000180FC, symSize: 0x34 }
  - { offsetInCU: 0x6A92D, offset: 0x8A52F, size: 0x8, addend: 0x0, symName: __ZNSt3__16vectorIiNS_9allocatorIiEEE11__vallocateB8ue170006Em, symObjAddr: 0x77D4, symBinAddr: 0x100018130, symSize: 0xAC }
  - { offsetInCU: 0x6A972, offset: 0x8A574, size: 0x8, addend: 0x0, symName: __ZNSt3__16vectorIiNS_9allocatorIiEEE18__construct_at_endEmRKi, symObjAddr: 0x7880, symBinAddr: 0x1000181DC, symSize: 0xD0 }
  - { offsetInCU: 0x6A9F7, offset: 0x8A5F9, size: 0x8, addend: 0x0, symName: __ZNSt3__128__exception_guard_exceptionsINS_6vectorIiNS_9allocatorIiEEE16__destroy_vectorEE10__completeB8ue170006Ev, symObjAddr: 0x7950, symBinAddr: 0x1000182AC, symSize: 0x1C }
  - { offsetInCU: 0x6AA1D, offset: 0x8A61F, size: 0x8, addend: 0x0, symName: __ZNSt3__128__exception_guard_exceptionsINS_6vectorIiNS_9allocatorIiEEE16__destroy_vectorEED1B8ue170006Ev, symObjAddr: 0x796C, symBinAddr: 0x1000182C8, symSize: 0x2C }
  - { offsetInCU: 0x6AA47, offset: 0x8A649, size: 0x8, addend: 0x0, symName: __ZNSt3__117__compressed_pairIPiNS_9allocatorIiEEEC2B8ue170006IDnNS_18__default_init_tagEEEOT_OT0_, symObjAddr: 0x7998, symBinAddr: 0x1000182F4, symSize: 0x40 }
  - { offsetInCU: 0x6AA9F, offset: 0x8A6A1, size: 0x8, addend: 0x0, symName: __ZNSt3__122__compressed_pair_elemIPiLi0ELb0EEC2B8ue170006IDnvEEOT_, symObjAddr: 0x79D8, symBinAddr: 0x100018334, symSize: 0x1C }
  - { offsetInCU: 0x6AAE1, offset: 0x8A6E3, size: 0x8, addend: 0x0, symName: __ZNSt3__128__exception_guard_exceptionsINS_6vectorIiNS_9allocatorIiEEE16__destroy_vectorEEC1B8ue170006ES5_, symObjAddr: 0x7A60, symBinAddr: 0x100018350, symSize: 0x34 }
  - { offsetInCU: 0x6AB19, offset: 0x8A71B, size: 0x8, addend: 0x0, symName: __ZNSt3__128__exception_guard_exceptionsINS_6vectorIiNS_9allocatorIiEEE16__destroy_vectorEEC2B8ue170006ES5_, symObjAddr: 0x7A94, symBinAddr: 0x100018384, symSize: 0x24 }
  - { offsetInCU: 0x6AB51, offset: 0x8A753, size: 0x8, addend: 0x0, symName: __ZNSt3__16vectorIiNS_9allocatorIiEEE16__destroy_vectorC2B8ue170006ERS3_, symObjAddr: 0x7AB8, symBinAddr: 0x1000183A8, symSize: 0x20 }
  - { offsetInCU: 0x6AB8A, offset: 0x8A78C, size: 0x8, addend: 0x0, symName: __ZNKSt3__16vectorIiNS_9allocatorIiEEE8max_sizeEv, symObjAddr: 0x7AD8, symBinAddr: 0x1000183C8, symSize: 0x60 }
  - { offsetInCU: 0x6ABB2, offset: 0x8A7B4, size: 0x8, addend: 0x0, symName: __ZNKSt3__16vectorIiNS_9allocatorIiEEE20__throw_length_errorB8ue170006Ev, symObjAddr: 0x7B38, symBinAddr: 0x100018428, symSize: 0x1C }
  - { offsetInCU: 0x6ABD8, offset: 0x8A7DA, size: 0x8, addend: 0x0, symName: __ZNSt3__16vectorIiNS_9allocatorIiEEE7__allocB8ue170006Ev, symObjAddr: 0x7B94, symBinAddr: 0x100018484, symSize: 0x28 }
  - { offsetInCU: 0x6ABFE, offset: 0x8A800, size: 0x8, addend: 0x0, symName: __ZNSt3__16vectorIiNS_9allocatorIiEEE9__end_capB8ue170006Ev, symObjAddr: 0x7BBC, symBinAddr: 0x1000184AC, symSize: 0x28 }
  - { offsetInCU: 0x6AC24, offset: 0x8A826, size: 0x8, addend: 0x0, symName: __ZNKSt3__16vectorIiNS_9allocatorIiEEE14__annotate_newB8ue170006Em, symObjAddr: 0x7BE4, symBinAddr: 0x1000184D4, symSize: 0xAC }
  - { offsetInCU: 0x6AC59, offset: 0x8A85B, size: 0x8, addend: 0x0, symName: __ZNKSt3__16vectorIiNS_9allocatorIiEEE7__allocB8ue170006Ev, symObjAddr: 0x7CE0, symBinAddr: 0x100018580, symSize: 0x28 }
  - { offsetInCU: 0x6AC7F, offset: 0x8A881, size: 0x8, addend: 0x0, symName: __ZNKSt3__117__compressed_pairIPiNS_9allocatorIiEEE6secondB8ue170006Ev, symObjAddr: 0x7DB8, symBinAddr: 0x1000185A8, symSize: 0x24 }
  - { offsetInCU: 0x6ACA5, offset: 0x8A8A7, size: 0x8, addend: 0x0, symName: __ZNKSt3__122__compressed_pair_elemINS_9allocatorIiEELi1ELb1EE5__getB8ue170006Ev, symObjAddr: 0x7DDC, symBinAddr: 0x1000185CC, symSize: 0x14 }
  - { offsetInCU: 0x6ACCB, offset: 0x8A8CD, size: 0x8, addend: 0x0, symName: __ZNSt3__117__compressed_pairIPiNS_9allocatorIiEEE6secondB8ue170006Ev, symObjAddr: 0x7FB4, symBinAddr: 0x1000185E0, symSize: 0x24 }
  - { offsetInCU: 0x6ACF1, offset: 0x8A8F3, size: 0x8, addend: 0x0, symName: __ZNSt3__117__compressed_pairIPiNS_9allocatorIiEEE5firstB8ue170006Ev, symObjAddr: 0x7FEC, symBinAddr: 0x100018604, symSize: 0x24 }
  - { offsetInCU: 0x6AD17, offset: 0x8A919, size: 0x8, addend: 0x0, symName: __ZNKSt3__16vectorIiNS_9allocatorIiEEE31__annotate_contiguous_containerB8ue170006EPKvS5_S5_S5_, symObjAddr: 0x8024, symBinAddr: 0x100018628, symSize: 0x20 }
  - { offsetInCU: 0x6AD6D, offset: 0x8A96F, size: 0x8, addend: 0x0, symName: __ZNKSt3__16vectorIiNS_9allocatorIiEEE4dataB8ue170006Ev, symObjAddr: 0x8044, symBinAddr: 0x100018648, symSize: 0x28 }
  - { offsetInCU: 0x6AD93, offset: 0x8A995, size: 0x8, addend: 0x0, symName: __ZNKSt3__16vectorIiNS_9allocatorIiEEE8capacityB8ue170006Ev, symObjAddr: 0x806C, symBinAddr: 0x100018670, symSize: 0x40 }
  - { offsetInCU: 0x6ADB9, offset: 0x8A9BB, size: 0x8, addend: 0x0, symName: __ZNKSt3__16vectorIiNS_9allocatorIiEEE9__end_capB8ue170006Ev, symObjAddr: 0x80C0, symBinAddr: 0x1000186B0, symSize: 0x28 }
  - { offsetInCU: 0x6ADDF, offset: 0x8A9E1, size: 0x8, addend: 0x0, symName: __ZNKSt3__117__compressed_pairIPiNS_9allocatorIiEEE5firstB8ue170006Ev, symObjAddr: 0x80E8, symBinAddr: 0x1000186D8, symSize: 0x24 }
  - { offsetInCU: 0x6AE21, offset: 0x8AA23, size: 0x8, addend: 0x0, symName: __ZNSt3__16vectorIiNS_9allocatorIiEEE21_ConstructTransactionC1B8ue170006ERS3_m, symObjAddr: 0x8120, symBinAddr: 0x1000186FC, symSize: 0x3C }
  - { offsetInCU: 0x6AE69, offset: 0x8AA6B, size: 0x8, addend: 0x0, symName: __ZNSt3__16vectorIiNS_9allocatorIiEEE21_ConstructTransactionD1B8ue170006Ev, symObjAddr: 0x8190, symBinAddr: 0x100018738, symSize: 0x2C }
  - { offsetInCU: 0x6AE93, offset: 0x8AA95, size: 0x8, addend: 0x0, symName: __ZNSt3__16vectorIiNS_9allocatorIiEEE21_ConstructTransactionC2B8ue170006ERS3_m, symObjAddr: 0x81BC, symBinAddr: 0x100018764, symSize: 0x44 }
  - { offsetInCU: 0x6AEDB, offset: 0x8AADD, size: 0x8, addend: 0x0, symName: __ZNSt3__16vectorIiNS_9allocatorIiEEE21_ConstructTransactionD2B8ue170006Ev, symObjAddr: 0x8228, symBinAddr: 0x1000187A8, symSize: 0x20 }
  - { offsetInCU: 0x6AF05, offset: 0x8AB07, size: 0x8, addend: 0x0, symName: __ZNSt3__128__exception_guard_exceptionsINS_6vectorIiNS_9allocatorIiEEE16__destroy_vectorEED2B8ue170006Ev, symObjAddr: 0x8248, symBinAddr: 0x1000187C8, symSize: 0x50 }
  - { offsetInCU: 0x6AF2F, offset: 0x8AB31, size: 0x8, addend: 0x0, symName: __ZNSt3__16vectorIiNS_9allocatorIiEEE16__destroy_vectorclB8ue170006Ev, symObjAddr: 0x8298, symBinAddr: 0x100018818, symSize: 0x90 }
  - { offsetInCU: 0x6AF55, offset: 0x8AB57, size: 0x8, addend: 0x0, symName: __ZNSt3__16vectorIiNS_9allocatorIiEEE7__clearB8ue170006Ev, symObjAddr: 0x8328, symBinAddr: 0x1000188A8, symSize: 0x28 }
  - { offsetInCU: 0x6AF7B, offset: 0x8AB7D, size: 0x8, addend: 0x0, symName: __ZNKSt3__16vectorIiNS_9allocatorIiEEE17__annotate_deleteB8ue170006Ev, symObjAddr: 0x8350, symBinAddr: 0x1000188D0, symSize: 0xB8 }
  - { offsetInCU: 0x6AFA1, offset: 0x8ABA3, size: 0x8, addend: 0x0, symName: __ZNSt3__16vectorIiNS_9allocatorIiEEE22__base_destruct_at_endB8ue170006EPi, symObjAddr: 0x843C, symBinAddr: 0x100018988, symSize: 0x8C }
  - { offsetInCU: 0x6AFE6, offset: 0x8ABE8, size: 0x8, addend: 0x0, symName: __ZNKSt3__16vectorIiNS_9allocatorIiEEE4sizeB8ue170006Ev, symObjAddr: 0x8508, symBinAddr: 0x100018A14, symSize: 0x28 }
  - { offsetInCU: 0x6B00C, offset: 0x8AC0E, size: 0x8, addend: 0x0, symName: __ZNSt3__16vectorIiNS_9allocatorIiEEED2B8ue170006Ev, symObjAddr: 0x85EC, symBinAddr: 0x100018A3C, symSize: 0x40 }
  - { offsetInCU: 0x6B036, offset: 0x8AC38, size: 0x8, addend: 0x0, symName: '__ZNSt3__18functionIFvvEEC2IZ10test_basicvE3$_0vEET_', symObjAddr: 0x862C, symBinAddr: 0x100018A7C, symSize: 0x3C }
  - { offsetInCU: 0x6B07B, offset: 0x8AC7D, size: 0x8, addend: 0x0, symName: '__ZNSt3__110__function12__value_funcIFvvEEC1B8ue170006IZ10test_basicvE3$_0vEEOT_', symObjAddr: 0x8668, symBinAddr: 0x100018AB8, symSize: 0x50 }
  - { offsetInCU: 0x6B0BE, offset: 0x8ACC0, size: 0x8, addend: 0x0, symName: '__ZNSt3__19allocatorIZ10test_basicvE3$_0EC1B8ue170006Ev', symObjAddr: 0x86B8, symBinAddr: 0x100018B08, symSize: 0x2C }
  - { offsetInCU: 0x6B0E8, offset: 0x8ACEA, size: 0x8, addend: 0x0, symName: '__ZNSt3__110__function12__value_funcIFvvEEC1B8ue170006IZ10test_basicvE3$_0NS_9allocatorIS5_EEEEOT_RKT0_', symObjAddr: 0x86E4, symBinAddr: 0x100018B34, symSize: 0x3C }
  - { offsetInCU: 0x6B142, offset: 0x8AD44, size: 0x8, addend: 0x0, symName: '__ZNSt3__19allocatorIZ10test_basicvE3$_0EC2B8ue170006Ev', symObjAddr: 0x8720, symBinAddr: 0x100018B70, symSize: 0x2C }
  - { offsetInCU: 0x6B16C, offset: 0x8AD6E, size: 0x8, addend: 0x0, symName: '__ZNSt3__116__non_trivial_ifILb1ENS_9allocatorIZ10test_basicvE3$_0EEEC2B8ue170006Ev', symObjAddr: 0x874C, symBinAddr: 0x100018B9C, symSize: 0x14 }
  - { offsetInCU: 0x6B196, offset: 0x8AD98, size: 0x8, addend: 0x0, symName: '__ZNSt3__110__function12__value_funcIFvvEEC2B8ue170006IZ10test_basicvE3$_0NS_9allocatorIS5_EEEEOT_RKT0_', symObjAddr: 0x8760, symBinAddr: 0x100018BB0, symSize: 0x94 }
  - { offsetInCU: 0x6B244, offset: 0x8AE46, size: 0x8, addend: 0x0, symName: '__ZNSt3__19allocatorINS_10__function6__funcIZ10test_basicvE3$_0NS0_IS3_EEFvvEEEEC1B8ue170006IS3_EERKNS0_IT_EE', symObjAddr: 0x880C, symBinAddr: 0x100018C5C, symSize: 0x34 }
  - { offsetInCU: 0x6B288, offset: 0x8AE8A, size: 0x8, addend: 0x0, symName: '__ZNSt3__19allocatorIZ10test_basicvE3$_0EC1B8ue170006INS_10__function6__funcIS1_S2_FvvEEEEERKNS0_IT_EE', symObjAddr: 0x8840, symBinAddr: 0x100018C90, symSize: 0x34 }
  - { offsetInCU: 0x6B2C6, offset: 0x8AEC8, size: 0x8, addend: 0x0, symName: '__ZNSt3__110__function6__funcIZ10test_basicvE3$_0NS_9allocatorIS2_EEFvvEEC1B8ue170006EOS2_OS4_', symObjAddr: 0x8874, symBinAddr: 0x100018CC4, symSize: 0x3C }
  - { offsetInCU: 0x6B30E, offset: 0x8AF10, size: 0x8, addend: 0x0, symName: '__ZNSt3__19allocatorINS_10__function6__funcIZ10test_basicvE3$_0NS0_IS3_EEFvvEEEEC2B8ue170006IS3_EERKNS0_IT_EE', symObjAddr: 0x88B0, symBinAddr: 0x100018D00, symSize: 0x30 }
  - { offsetInCU: 0x6B34C, offset: 0x8AF4E, size: 0x8, addend: 0x0, symName: '__ZNSt3__116__non_trivial_ifILb1ENS_9allocatorINS_10__function6__funcIZ10test_basicvE3$_0NS1_IS4_EEFvvEEEEEEC2B8ue170006Ev', symObjAddr: 0x88E0, symBinAddr: 0x100018D30, symSize: 0x14 }
  - { offsetInCU: 0x6B376, offset: 0x8AF78, size: 0x8, addend: 0x0, symName: '__ZNSt3__19allocatorIZ10test_basicvE3$_0EC2B8ue170006INS_10__function6__funcIS1_S2_FvvEEEEERKNS0_IT_EE', symObjAddr: 0x88F4, symBinAddr: 0x100018D44, symSize: 0x30 }
  - { offsetInCU: 0x6B3B4, offset: 0x8AFB6, size: 0x8, addend: 0x0, symName: '__ZNSt3__110__function6__funcIZ10test_basicvE3$_0NS_9allocatorIS2_EEFvvEEC2B8ue170006EOS2_OS4_', symObjAddr: 0x8924, symBinAddr: 0x100018D74, symSize: 0x88 }
  - { offsetInCU: 0x6B3FC, offset: 0x8AFFE, size: 0x8, addend: 0x0, symName: __ZNSt3__110__function6__baseIFvvEEC2B8ue170006Ev, symObjAddr: 0x89AC, symBinAddr: 0x100018DFC, symSize: 0x24 }
  - { offsetInCU: 0x6B426, offset: 0x8B028, size: 0x8, addend: 0x0, symName: '__ZNSt3__110__function12__alloc_funcIZ10test_basicvE3$_0NS_9allocatorIS2_EEFvvEEC1B8ue170006EOS2_OS4_', symObjAddr: 0x89D0, symBinAddr: 0x100018E20, symSize: 0x3C }
  - { offsetInCU: 0x6B46C, offset: 0x8B06E, size: 0x8, addend: 0x0, symName: __ZNSt3__110__function6__baseIFvvEED2Ev, symObjAddr: 0x8A0C, symBinAddr: 0x100018E5C, symSize: 0x14 }
  - { offsetInCU: 0x6B496, offset: 0x8B098, size: 0x8, addend: 0x0, symName: '__ZNSt3__110__function6__funcIZ10test_basicvE3$_0NS_9allocatorIS2_EEFvvEED1Ev', symObjAddr: 0x8A20, symBinAddr: 0x100018E70, symSize: 0x2C }
  - { offsetInCU: 0x6B4C3, offset: 0x8B0C5, size: 0x8, addend: 0x0, symName: '__ZNSt3__110__function6__funcIZ10test_basicvE3$_0NS_9allocatorIS2_EEFvvEED0Ev', symObjAddr: 0x8A4C, symBinAddr: 0x100018E9C, symSize: 0x30 }
  - { offsetInCU: 0x6B4F0, offset: 0x8B0F2, size: 0x8, addend: 0x0, symName: '__ZNKSt3__110__function6__funcIZ10test_basicvE3$_0NS_9allocatorIS2_EEFvvEE7__cloneEv', symObjAddr: 0x8A7C, symBinAddr: 0x100018ECC, symSize: 0xFC }
  - { offsetInCU: 0x6B544, offset: 0x8B146, size: 0x8, addend: 0x0, symName: '__ZNKSt3__110__function6__funcIZ10test_basicvE3$_0NS_9allocatorIS2_EEFvvEE7__cloneEPNS0_6__baseIS5_EE', symObjAddr: 0x8B78, symBinAddr: 0x100018FC8, symSize: 0x58 }
  - { offsetInCU: 0x6B57B, offset: 0x8B17D, size: 0x8, addend: 0x0, symName: '__ZNSt3__110__function6__funcIZ10test_basicvE3$_0NS_9allocatorIS2_EEFvvEE7destroyEv', symObjAddr: 0x8BD0, symBinAddr: 0x100019020, symSize: 0x28 }
  - { offsetInCU: 0x6B5A3, offset: 0x8B1A5, size: 0x8, addend: 0x0, symName: '__ZNSt3__110__function6__funcIZ10test_basicvE3$_0NS_9allocatorIS2_EEFvvEE18destroy_deallocateEv', symObjAddr: 0x8BF8, symBinAddr: 0x100019048, symSize: 0x58 }
  - { offsetInCU: 0x6B5E7, offset: 0x8B1E9, size: 0x8, addend: 0x0, symName: '__ZNSt3__110__function6__funcIZ10test_basicvE3$_0NS_9allocatorIS2_EEFvvEEclEv', symObjAddr: 0x8C50, symBinAddr: 0x1000190A0, symSize: 0x28 }
  - { offsetInCU: 0x6B60F, offset: 0x8B211, size: 0x8, addend: 0x0, symName: '__ZNKSt3__110__function6__funcIZ10test_basicvE3$_0NS_9allocatorIS2_EEFvvEE6targetERKSt9type_info', symObjAddr: 0x8C78, symBinAddr: 0x1000190C8, symSize: 0x60 }
  - { offsetInCU: 0x6B646, offset: 0x8B248, size: 0x8, addend: 0x0, symName: '__ZNKSt3__110__function6__funcIZ10test_basicvE3$_0NS_9allocatorIS2_EEFvvEE11target_typeEv', symObjAddr: 0x8CD8, symBinAddr: 0x100019128, symSize: 0x18 }
  - { offsetInCU: 0x6B66E, offset: 0x8B270, size: 0x8, addend: 0x0, symName: __ZNSt3__110__function6__baseIFvvEED1Ev, symObjAddr: 0x8CF0, symBinAddr: 0x100019140, symSize: 0x14 }
  - { offsetInCU: 0x6B698, offset: 0x8B29A, size: 0x8, addend: 0x0, symName: __ZNSt3__110__function6__baseIFvvEED0Ev, symObjAddr: 0x8D04, symBinAddr: 0x100019154, symSize: 0xC }
  - { offsetInCU: 0x6B6C2, offset: 0x8B2C4, size: 0x8, addend: 0x0, symName: '__ZNSt3__110__function12__alloc_funcIZ10test_basicvE3$_0NS_9allocatorIS2_EEFvvEEC2B8ue170006EOS2_OS4_', symObjAddr: 0x8D10, symBinAddr: 0x100019160, symSize: 0x5C }
  - { offsetInCU: 0x6B708, offset: 0x8B30A, size: 0x8, addend: 0x0, symName: '__ZNSt3__117__compressed_pairIZ10test_basicvE3$_0NS_9allocatorIS1_EEEC1B8ue170006IJOS1_EJOS3_EEENS_21piecewise_construct_tENS_5tupleIJDpT_EEENS9_IJDpT0_EEE', symObjAddr: 0x8DC4, symBinAddr: 0x100019214, symSize: 0x3C }
  - { offsetInCU: 0x6B772, offset: 0x8B374, size: 0x8, addend: 0x0, symName: '__ZNSt3__15tupleIJOZ10test_basicvE3$_0EEC1B8ue170006IJS1_ELi0EEEDpOT_', symObjAddr: 0x8E00, symBinAddr: 0x100019250, symSize: 0x34 }
  - { offsetInCU: 0x6B7BC, offset: 0x8B3BE, size: 0x8, addend: 0x0, symName: '__ZNSt3__15tupleIJOZ10test_basicvE3$_0EEC2B8ue170006IJS1_ELi0EEEDpOT_', symObjAddr: 0x8E34, symBinAddr: 0x100019284, symSize: 0x34 }
  - { offsetInCU: 0x6B806, offset: 0x8B408, size: 0x8, addend: 0x0, symName: '__ZNSt3__112__tuple_implINS_15__tuple_indicesIJLm0EEEEJOZ10test_basicvE3$_0EEC1B8ue170006IJLm0EEJS4_EJEJEJS3_EEENS1_IJXspT_EEEENS_13__tuple_typesIJDpT0_EEENS1_IJXspT1_EEEENS8_IJDpT2_EEEDpOT3_', symObjAddr: 0x8E68, symBinAddr: 0x1000192B8, symSize: 0x34 }
  - { offsetInCU: 0x6B89B, offset: 0x8B49D, size: 0x8, addend: 0x0, symName: '__ZNSt3__112__tuple_implINS_15__tuple_indicesIJLm0EEEEJOZ10test_basicvE3$_0EEC2B8ue170006IJLm0EEJS4_EJEJEJS3_EEENS1_IJXspT_EEEENS_13__tuple_typesIJDpT0_EEENS1_IJXspT1_EEEENS8_IJDpT2_EEEDpOT3_', symObjAddr: 0x8E9C, symBinAddr: 0x1000192EC, symSize: 0x34 }
  - { offsetInCU: 0x6B930, offset: 0x8B532, size: 0x8, addend: 0x0, symName: '__ZNSt3__112__tuple_leafILm0EOZ10test_basicvE3$_0Lb0EEC2B8ue170006IS1_vEEOT_', symObjAddr: 0x8ED0, symBinAddr: 0x100019320, symSize: 0x20 }
  - { offsetInCU: 0x6B973, offset: 0x8B575, size: 0x8, addend: 0x0, symName: '__ZNSt3__15tupleIJONS_9allocatorIZ10test_basicvE3$_0EEEEC1B8ue170006IJS3_ELi0EEEDpOT_', symObjAddr: 0x8EF0, symBinAddr: 0x100019340, symSize: 0x34 }
  - { offsetInCU: 0x6B9BD, offset: 0x8B5BF, size: 0x8, addend: 0x0, symName: '__ZNSt3__15tupleIJONS_9allocatorIZ10test_basicvE3$_0EEEEC2B8ue170006IJS3_ELi0EEEDpOT_', symObjAddr: 0x8F24, symBinAddr: 0x100019374, symSize: 0x34 }
  - { offsetInCU: 0x6BA07, offset: 0x8B609, size: 0x8, addend: 0x0, symName: '__ZNSt3__112__tuple_implINS_15__tuple_indicesIJLm0EEEEJONS_9allocatorIZ10test_basicvE3$_0EEEEC1B8ue170006IJLm0EEJS6_EJEJEJS5_EEENS1_IJXspT_EEEENS_13__tuple_typesIJDpT0_EEENS1_IJXspT1_EEEENSA_IJDpT2_EEEDpOT3_', symObjAddr: 0x8F58, symBinAddr: 0x1000193A8, symSize: 0x34 }
  - { offsetInCU: 0x6BA9C, offset: 0x8B69E, size: 0x8, addend: 0x0, symName: '__ZNSt3__112__tuple_implINS_15__tuple_indicesIJLm0EEEEJONS_9allocatorIZ10test_basicvE3$_0EEEEC2B8ue170006IJLm0EEJS6_EJEJEJS5_EEENS1_IJXspT_EEEENS_13__tuple_typesIJDpT0_EEENS1_IJXspT1_EEEENSA_IJDpT2_EEEDpOT3_', symObjAddr: 0x8F8C, symBinAddr: 0x1000193DC, symSize: 0x34 }
  - { offsetInCU: 0x6BB31, offset: 0x8B733, size: 0x8, addend: 0x0, symName: '__ZNSt3__112__tuple_leafILm0EONS_9allocatorIZ10test_basicvE3$_0EELb0EEC2B8ue170006IS3_vEEOT_', symObjAddr: 0x8FC0, symBinAddr: 0x100019410, symSize: 0x20 }
  - { offsetInCU: 0x6BB74, offset: 0x8B776, size: 0x8, addend: 0x0, symName: '__ZNSt3__117__compressed_pairIZ10test_basicvE3$_0NS_9allocatorIS1_EEEC2B8ue170006IJOS1_EJOS3_EEENS_21piecewise_construct_tENS_5tupleIJDpT_EEENS9_IJDpT0_EEE', symObjAddr: 0x8FE0, symBinAddr: 0x100019430, symSize: 0x54 }
  - { offsetInCU: 0x6BBDE, offset: 0x8B7E0, size: 0x8, addend: 0x0, symName: '__ZNSt3__122__compressed_pair_elemIZ10test_basicvE3$_0Li0ELb0EEC2B8ue170006IJOS1_EJLm0EEEENS_21piecewise_construct_tENS_5tupleIJDpT_EEENS_15__tuple_indicesIJXspT0_EEEE', symObjAddr: 0x9034, symBinAddr: 0x100019484, symSize: 0x44 }
  - { offsetInCU: 0x6BC43, offset: 0x8B845, size: 0x8, addend: 0x0, symName: '__ZNSt3__122__compressed_pair_elemINS_9allocatorIZ10test_basicvE3$_0EELi1ELb1EEC2B8ue170006IJOS3_EJLm0EEEENS_21piecewise_construct_tENS_5tupleIJDpT_EEENS_15__tuple_indicesIJXspT0_EEEE', symObjAddr: 0x9078, symBinAddr: 0x1000194C8, symSize: 0x38 }
  - { offsetInCU: 0x6BCA8, offset: 0x8B8AA, size: 0x8, addend: 0x0, symName: '__ZNSt3__112__tuple_leafILm0EOZ10test_basicvE3$_0Lb0EE3getB8ue170006Ev', symObjAddr: 0x90D4, symBinAddr: 0x100019524, symSize: 0x18 }
  - { offsetInCU: 0x6BCCE, offset: 0x8B8D0, size: 0x8, addend: 0x0, symName: '__ZNSt3__112__tuple_leafILm0EONS_9allocatorIZ10test_basicvE3$_0EELb0EE3getB8ue170006Ev', symObjAddr: 0x9110, symBinAddr: 0x100019560, symSize: 0x18 }
  - { offsetInCU: 0x6BCF4, offset: 0x8B8F6, size: 0x8, addend: 0x0, symName: '__ZNSt3__110__function6__funcIZ10test_basicvE3$_0NS_9allocatorIS2_EEFvvEED2Ev', symObjAddr: 0x9128, symBinAddr: 0x100019578, symSize: 0x2C }
  - { offsetInCU: 0x6BD21, offset: 0x8B923, size: 0x8, addend: 0x0, symName: '__ZNKSt3__110__function12__alloc_funcIZ10test_basicvE3$_0NS_9allocatorIS2_EEFvvEE15__get_allocatorB8ue170006Ev', symObjAddr: 0x9154, symBinAddr: 0x1000195A4, symSize: 0x24 }
  - { offsetInCU: 0x6BD47, offset: 0x8B949, size: 0x8, addend: 0x0, symName: '__ZNSt3__19allocatorINS_10__function6__funcIZ10test_basicvE3$_0NS0_IS3_EEFvvEEEE8allocateB8ue170006Em', symObjAddr: 0x9178, symBinAddr: 0x1000195C8, symSize: 0x5C }
  - { offsetInCU: 0x6BD8D, offset: 0x8B98F, size: 0x8, addend: 0x0, symName: '__ZNSt3__122__allocator_destructorINS_9allocatorINS_10__function6__funcIZ10test_basicvE3$_0NS1_IS4_EEFvvEEEEEEC1B8ue170006ERS8_m', symObjAddr: 0x91D4, symBinAddr: 0x100019624, symSize: 0x3C }
  - { offsetInCU: 0x6BE74, offset: 0x8BA76, size: 0x8, addend: 0x0, symName: '__ZNSt3__110unique_ptrINS_10__function6__funcIZ10test_basicvE3$_0NS_9allocatorIS3_EEFvvEEENS_22__allocator_destructorINS4_IS7_EEEEEC1B8ue170006ILb1EvEEPS7_NS_16__dependent_typeINS_27__unique_ptr_deleter_sfinaeISA_EEXT_EE20__good_rval_ref_typeE', symObjAddr: 0x9210, symBinAddr: 0x100019660, symSize: 0x3C }
  - { offsetInCU: 0x6BEC5, offset: 0x8BAC7, size: 0x8, addend: 0x0, symName: '__ZNKSt3__110unique_ptrINS_10__function6__funcIZ10test_basicvE3$_0NS_9allocatorIS3_EEFvvEEENS_22__allocator_destructorINS4_IS7_EEEEE3getB8ue170006Ev', symObjAddr: 0x924C, symBinAddr: 0x10001969C, symSize: 0x28 }
  - { offsetInCU: 0x6BEEB, offset: 0x8BAED, size: 0x8, addend: 0x0, symName: '__ZNKSt3__110__function12__alloc_funcIZ10test_basicvE3$_0NS_9allocatorIS2_EEFvvEE8__targetB8ue170006Ev', symObjAddr: 0x9274, symBinAddr: 0x1000196C4, symSize: 0x24 }
  - { offsetInCU: 0x6BF11, offset: 0x8BB13, size: 0x8, addend: 0x0, symName: '__ZNSt3__110__function6__funcIZ10test_basicvE3$_0NS_9allocatorIS2_EEFvvEEC1B8ue170006ERKS2_OS4_', symObjAddr: 0x9298, symBinAddr: 0x1000196E8, symSize: 0x3C }
  - { offsetInCU: 0x6BF59, offset: 0x8BB5B, size: 0x8, addend: 0x0, symName: '__ZNSt3__110unique_ptrINS_10__function6__funcIZ10test_basicvE3$_0NS_9allocatorIS3_EEFvvEEENS_22__allocator_destructorINS4_IS7_EEEEE7releaseB8ue170006Ev', symObjAddr: 0x92D4, symBinAddr: 0x100019724, symSize: 0x44 }
  - { offsetInCU: 0x6BF8F, offset: 0x8BB91, size: 0x8, addend: 0x0, symName: '__ZNSt3__110unique_ptrINS_10__function6__funcIZ10test_basicvE3$_0NS_9allocatorIS3_EEFvvEEENS_22__allocator_destructorINS4_IS7_EEEEED1B8ue170006Ev', symObjAddr: 0x9318, symBinAddr: 0x100019768, symSize: 0x2C }
  - { offsetInCU: 0x6BFB9, offset: 0x8BBBB, size: 0x8, addend: 0x0, symName: '__ZNKSt3__117__compressed_pairIZ10test_basicvE3$_0NS_9allocatorIS1_EEE6secondB8ue170006Ev', symObjAddr: 0x9344, symBinAddr: 0x100019794, symSize: 0x24 }
  - { offsetInCU: 0x6BFDF, offset: 0x8BBE1, size: 0x8, addend: 0x0, symName: '__ZNKSt3__122__compressed_pair_elemINS_9allocatorIZ10test_basicvE3$_0EELi1ELb1EE5__getB8ue170006Ev', symObjAddr: 0x9368, symBinAddr: 0x1000197B8, symSize: 0x14 }
  - { offsetInCU: 0x6C010, offset: 0x8BC12, size: 0x8, addend: 0x0, symName: '__ZNSt3__116allocator_traitsINS_9allocatorINS_10__function6__funcIZ10test_basicvE3$_0NS1_IS4_EEFvvEEEEEE8max_sizeB8ue170006IS8_vEEmRKS8_', symObjAddr: 0x937C, symBinAddr: 0x1000197CC, symSize: 0x24 }
  - { offsetInCU: 0x6C03E, offset: 0x8BC40, size: 0x8, addend: 0x0, symName: '__ZNKSt3__19allocatorINS_10__function6__funcIZ10test_basicvE3$_0NS0_IS3_EEFvvEEEE8max_sizeB8ue170006Ev', symObjAddr: 0x93A0, symBinAddr: 0x1000197F0, symSize: 0x18 }
  - { offsetInCU: 0x6C064, offset: 0x8BC66, size: 0x8, addend: 0x0, symName: '__ZNSt3__122__allocator_destructorINS_9allocatorINS_10__function6__funcIZ10test_basicvE3$_0NS1_IS4_EEFvvEEEEEEC2B8ue170006ERS8_m', symObjAddr: 0x93B8, symBinAddr: 0x100019808, symSize: 0x2C }
  - { offsetInCU: 0x6C0AA, offset: 0x8BCAC, size: 0x8, addend: 0x0, symName: '__ZNSt3__110unique_ptrINS_10__function6__funcIZ10test_basicvE3$_0NS_9allocatorIS3_EEFvvEEENS_22__allocator_destructorINS4_IS7_EEEEEC2B8ue170006ILb1EvEEPS7_NS_16__dependent_typeINS_27__unique_ptr_deleter_sfinaeISA_EEXT_EE20__good_rval_ref_typeE', symObjAddr: 0x93E4, symBinAddr: 0x100019834, symSize: 0x48 }
  - { offsetInCU: 0x6C0FB, offset: 0x8BCFD, size: 0x8, addend: 0x0, symName: '__ZNSt3__117__compressed_pairIPNS_10__function6__funcIZ10test_basicvE3$_0NS_9allocatorIS3_EEFvvEEENS_22__allocator_destructorINS4_IS7_EEEEEC1B8ue170006IRS8_SB_EEOT_OT0_', symObjAddr: 0x942C, symBinAddr: 0x10001987C, symSize: 0x3C }
  - { offsetInCU: 0x6C153, offset: 0x8BD55, size: 0x8, addend: 0x0, symName: '__ZNSt3__117__compressed_pairIPNS_10__function6__funcIZ10test_basicvE3$_0NS_9allocatorIS3_EEFvvEEENS_22__allocator_destructorINS4_IS7_EEEEEC2B8ue170006IRS8_SB_EEOT_OT0_', symObjAddr: 0x9468, symBinAddr: 0x1000198B8, symSize: 0x48 }
  - { offsetInCU: 0x6C1AB, offset: 0x8BDAD, size: 0x8, addend: 0x0, symName: '__ZNSt3__122__compressed_pair_elemIPNS_10__function6__funcIZ10test_basicvE3$_0NS_9allocatorIS3_EEFvvEEELi0ELb0EEC2B8ue170006IRS8_vEEOT_', symObjAddr: 0x94B0, symBinAddr: 0x100019900, symSize: 0x24 }
  - { offsetInCU: 0x6C1ED, offset: 0x8BDEF, size: 0x8, addend: 0x0, symName: '__ZNSt3__122__compressed_pair_elemINS_22__allocator_destructorINS_9allocatorINS_10__function6__funcIZ10test_basicvE3$_0NS2_IS5_EEFvvEEEEEEELi1ELb0EEC2B8ue170006ISA_vEEOT_', symObjAddr: 0x94D4, symBinAddr: 0x100019924, symSize: 0x24 }
  - { offsetInCU: 0x6C22F, offset: 0x8BE31, size: 0x8, addend: 0x0, symName: '__ZNKSt3__117__compressed_pairIPNS_10__function6__funcIZ10test_basicvE3$_0NS_9allocatorIS3_EEFvvEEENS_22__allocator_destructorINS4_IS7_EEEEE5firstB8ue170006Ev', symObjAddr: 0x94F8, symBinAddr: 0x100019948, symSize: 0x24 }
  - { offsetInCU: 0x6C255, offset: 0x8BE57, size: 0x8, addend: 0x0, symName: '__ZNKSt3__122__compressed_pair_elemIPNS_10__function6__funcIZ10test_basicvE3$_0NS_9allocatorIS3_EEFvvEEELi0ELb0EE5__getB8ue170006Ev', symObjAddr: 0x951C, symBinAddr: 0x10001996C, symSize: 0x14 }
  - { offsetInCU: 0x6C27B, offset: 0x8BE7D, size: 0x8, addend: 0x0, symName: '__ZNKSt3__117__compressed_pairIZ10test_basicvE3$_0NS_9allocatorIS1_EEE5firstB8ue170006Ev', symObjAddr: 0x9530, symBinAddr: 0x100019980, symSize: 0x24 }
  - { offsetInCU: 0x6C2A1, offset: 0x8BEA3, size: 0x8, addend: 0x0, symName: '__ZNKSt3__122__compressed_pair_elemIZ10test_basicvE3$_0Li0ELb0EE5__getB8ue170006Ev', symObjAddr: 0x9554, symBinAddr: 0x1000199A4, symSize: 0x14 }
  - { offsetInCU: 0x6C2C7, offset: 0x8BEC9, size: 0x8, addend: 0x0, symName: '__ZNSt3__110__function6__funcIZ10test_basicvE3$_0NS_9allocatorIS2_EEFvvEEC2B8ue170006ERKS2_OS4_', symObjAddr: 0x9568, symBinAddr: 0x1000199B8, symSize: 0x88 }
  - { offsetInCU: 0x6C30F, offset: 0x8BF11, size: 0x8, addend: 0x0, symName: '__ZNSt3__110__function12__alloc_funcIZ10test_basicvE3$_0NS_9allocatorIS2_EEFvvEEC1B8ue170006ERKS2_OS4_', symObjAddr: 0x95F0, symBinAddr: 0x100019A40, symSize: 0x3C }
  - { offsetInCU: 0x6C355, offset: 0x8BF57, size: 0x8, addend: 0x0, symName: '__ZNSt3__110__function12__alloc_funcIZ10test_basicvE3$_0NS_9allocatorIS2_EEFvvEEC2B8ue170006ERKS2_OS4_', symObjAddr: 0x962C, symBinAddr: 0x100019A7C, symSize: 0x5C }
  - { offsetInCU: 0x6C39B, offset: 0x8BF9D, size: 0x8, addend: 0x0, symName: '__ZNSt3__117__compressed_pairIZ10test_basicvE3$_0NS_9allocatorIS1_EEEC1B8ue170006IJRKS1_EJOS3_EEENS_21piecewise_construct_tENS_5tupleIJDpT_EEENSA_IJDpT0_EEE', symObjAddr: 0x96B4, symBinAddr: 0x100019B04, symSize: 0x3C }
  - { offsetInCU: 0x6C405, offset: 0x8C007, size: 0x8, addend: 0x0, symName: '__ZNSt3__15tupleIJRKZ10test_basicvE3$_0EEC1B8ue170006INS_4_AndELi0EEES3_', symObjAddr: 0x96F0, symBinAddr: 0x100019B40, symSize: 0x34 }
  - { offsetInCU: 0x6C44E, offset: 0x8C050, size: 0x8, addend: 0x0, symName: '__ZNSt3__15tupleIJRKZ10test_basicvE3$_0EEC2B8ue170006INS_4_AndELi0EEES3_', symObjAddr: 0x9724, symBinAddr: 0x100019B74, symSize: 0x34 }
  - { offsetInCU: 0x6C497, offset: 0x8C099, size: 0x8, addend: 0x0, symName: '__ZNSt3__112__tuple_implINS_15__tuple_indicesIJLm0EEEEJRKZ10test_basicvE3$_0EEC1B8ue170006IJLm0EEJS5_EJEJEJS5_EEENS1_IJXspT_EEEENS_13__tuple_typesIJDpT0_EEENS1_IJXspT1_EEEENS9_IJDpT2_EEEDpOT3_', symObjAddr: 0x9758, symBinAddr: 0x100019BA8, symSize: 0x34 }
  - { offsetInCU: 0x6C52C, offset: 0x8C12E, size: 0x8, addend: 0x0, symName: '__ZNSt3__112__tuple_implINS_15__tuple_indicesIJLm0EEEEJRKZ10test_basicvE3$_0EEC2B8ue170006IJLm0EEJS5_EJEJEJS5_EEENS1_IJXspT_EEEENS_13__tuple_typesIJDpT0_EEENS1_IJXspT1_EEEENS9_IJDpT2_EEEDpOT3_', symObjAddr: 0x978C, symBinAddr: 0x100019BDC, symSize: 0x34 }
  - { offsetInCU: 0x6C5C1, offset: 0x8C1C3, size: 0x8, addend: 0x0, symName: '__ZNSt3__112__tuple_leafILm0ERKZ10test_basicvE3$_0Lb0EEC2B8ue170006IS3_vEEOT_', symObjAddr: 0x97C0, symBinAddr: 0x100019C10, symSize: 0x20 }
  - { offsetInCU: 0x6C604, offset: 0x8C206, size: 0x8, addend: 0x0, symName: '__ZNSt3__117__compressed_pairIZ10test_basicvE3$_0NS_9allocatorIS1_EEEC2B8ue170006IJRKS1_EJOS3_EEENS_21piecewise_construct_tENS_5tupleIJDpT_EEENSA_IJDpT0_EEE', symObjAddr: 0x97E0, symBinAddr: 0x100019C30, symSize: 0x54 }
  - { offsetInCU: 0x6C66E, offset: 0x8C270, size: 0x8, addend: 0x0, symName: '__ZNSt3__122__compressed_pair_elemIZ10test_basicvE3$_0Li0ELb0EEC2B8ue170006IJRKS1_EJLm0EEEENS_21piecewise_construct_tENS_5tupleIJDpT_EEENS_15__tuple_indicesIJXspT0_EEEE', symObjAddr: 0x9834, symBinAddr: 0x100019C84, symSize: 0x44 }
  - { offsetInCU: 0x6C6D3, offset: 0x8C2D5, size: 0x8, addend: 0x0, symName: '__ZNSt3__112__tuple_leafILm0ERKZ10test_basicvE3$_0Lb0EE3getB8ue170006Ev', symObjAddr: 0x989C, symBinAddr: 0x100019CEC, symSize: 0x18 }
  - { offsetInCU: 0x6C6F9, offset: 0x8C2FB, size: 0x8, addend: 0x0, symName: '__ZNSt3__117__compressed_pairIPNS_10__function6__funcIZ10test_basicvE3$_0NS_9allocatorIS3_EEFvvEEENS_22__allocator_destructorINS4_IS7_EEEEE5firstB8ue170006Ev', symObjAddr: 0x98B4, symBinAddr: 0x100019D04, symSize: 0x24 }
  - { offsetInCU: 0x6C71F, offset: 0x8C321, size: 0x8, addend: 0x0, symName: '__ZNSt3__122__compressed_pair_elemIPNS_10__function6__funcIZ10test_basicvE3$_0NS_9allocatorIS3_EEFvvEEELi0ELb0EE5__getB8ue170006Ev', symObjAddr: 0x98D8, symBinAddr: 0x100019D28, symSize: 0x14 }
  - { offsetInCU: 0x6C745, offset: 0x8C347, size: 0x8, addend: 0x0, symName: '__ZNSt3__110unique_ptrINS_10__function6__funcIZ10test_basicvE3$_0NS_9allocatorIS3_EEFvvEEENS_22__allocator_destructorINS4_IS7_EEEEED2B8ue170006Ev', symObjAddr: 0x98EC, symBinAddr: 0x100019D3C, symSize: 0x30 }
  - { offsetInCU: 0x6C76F, offset: 0x8C371, size: 0x8, addend: 0x0, symName: '__ZNSt3__110unique_ptrINS_10__function6__funcIZ10test_basicvE3$_0NS_9allocatorIS3_EEFvvEEENS_22__allocator_destructorINS4_IS7_EEEEE5resetB8ue170006EPS7_', symObjAddr: 0x991C, symBinAddr: 0x100019D6C, symSize: 0x78 }
  - { offsetInCU: 0x6C7B4, offset: 0x8C3B6, size: 0x8, addend: 0x0, symName: '__ZNSt3__117__compressed_pairIPNS_10__function6__funcIZ10test_basicvE3$_0NS_9allocatorIS3_EEFvvEEENS_22__allocator_destructorINS4_IS7_EEEEE6secondB8ue170006Ev', symObjAddr: 0x9994, symBinAddr: 0x100019DE4, symSize: 0x28 }
  - { offsetInCU: 0x6C7DA, offset: 0x8C3DC, size: 0x8, addend: 0x0, symName: '__ZNSt3__122__allocator_destructorINS_9allocatorINS_10__function6__funcIZ10test_basicvE3$_0NS1_IS4_EEFvvEEEEEEclB8ue170006EPS7_', symObjAddr: 0x99BC, symBinAddr: 0x100019E0C, symSize: 0x34 }
  - { offsetInCU: 0x6C80E, offset: 0x8C410, size: 0x8, addend: 0x0, symName: '__ZNSt3__122__compressed_pair_elemINS_22__allocator_destructorINS_9allocatorINS_10__function6__funcIZ10test_basicvE3$_0NS2_IS5_EEFvvEEEEEEELi1ELb0EE5__getB8ue170006Ev', symObjAddr: 0x99F0, symBinAddr: 0x100019E40, symSize: 0x14 }
  - { offsetInCU: 0x6C834, offset: 0x8C436, size: 0x8, addend: 0x0, symName: '__ZNSt3__116allocator_traitsINS_9allocatorINS_10__function6__funcIZ10test_basicvE3$_0NS1_IS4_EEFvvEEEEEE10deallocateB8ue170006ERS8_PS7_m', symObjAddr: 0x9A04, symBinAddr: 0x100019E54, symSize: 0x34 }
  - { offsetInCU: 0x6C876, offset: 0x8C478, size: 0x8, addend: 0x0, symName: '__ZNSt3__19allocatorINS_10__function6__funcIZ10test_basicvE3$_0NS0_IS3_EEFvvEEEE10deallocateB8ue170006EPS6_m', symObjAddr: 0x9A38, symBinAddr: 0x100019E88, symSize: 0x44 }
  - { offsetInCU: 0x6C8B8, offset: 0x8C4BA, size: 0x8, addend: 0x0, symName: '__ZNSt3__110__function6__funcIZ10test_basicvE3$_0NS_9allocatorIS2_EEFvvEEC1B8ue170006ERKS2_RKS4_', symObjAddr: 0x9A7C, symBinAddr: 0x100019ECC, symSize: 0x3C }
  - { offsetInCU: 0x6C900, offset: 0x8C502, size: 0x8, addend: 0x0, symName: '__ZNSt3__110__function6__funcIZ10test_basicvE3$_0NS_9allocatorIS2_EEFvvEEC2B8ue170006ERKS2_RKS4_', symObjAddr: 0x9AB8, symBinAddr: 0x100019F08, symSize: 0x88 }
  - { offsetInCU: 0x6C948, offset: 0x8C54A, size: 0x8, addend: 0x0, symName: '__ZNSt3__110__function12__alloc_funcIZ10test_basicvE3$_0NS_9allocatorIS2_EEFvvEEC1B8ue170006ERKS2_RKS4_', symObjAddr: 0x9B40, symBinAddr: 0x100019F90, symSize: 0x3C }
  - { offsetInCU: 0x6C98E, offset: 0x8C590, size: 0x8, addend: 0x0, symName: '__ZNSt3__110__function12__alloc_funcIZ10test_basicvE3$_0NS_9allocatorIS2_EEFvvEEC2B8ue170006ERKS2_RKS4_', symObjAddr: 0x9B7C, symBinAddr: 0x100019FCC, symSize: 0x5C }
  - { offsetInCU: 0x6C9D4, offset: 0x8C5D6, size: 0x8, addend: 0x0, symName: '__ZNSt3__117__compressed_pairIZ10test_basicvE3$_0NS_9allocatorIS1_EEEC1B8ue170006IJRKS1_EJRKS3_EEENS_21piecewise_construct_tENS_5tupleIJDpT_EEENSB_IJDpT0_EEE', symObjAddr: 0x9C04, symBinAddr: 0x10001A054, symSize: 0x3C }
  - { offsetInCU: 0x6CA3E, offset: 0x8C640, size: 0x8, addend: 0x0, symName: '__ZNSt3__15tupleIJRKNS_9allocatorIZ10test_basicvE3$_0EEEEC1B8ue170006INS_4_AndELi0EEES5_', symObjAddr: 0x9C40, symBinAddr: 0x10001A090, symSize: 0x34 }
  - { offsetInCU: 0x6CA87, offset: 0x8C689, size: 0x8, addend: 0x0, symName: '__ZNSt3__15tupleIJRKNS_9allocatorIZ10test_basicvE3$_0EEEEC2B8ue170006INS_4_AndELi0EEES5_', symObjAddr: 0x9C74, symBinAddr: 0x10001A0C4, symSize: 0x34 }
  - { offsetInCU: 0x6CAD0, offset: 0x8C6D2, size: 0x8, addend: 0x0, symName: '__ZNSt3__112__tuple_implINS_15__tuple_indicesIJLm0EEEEJRKNS_9allocatorIZ10test_basicvE3$_0EEEEC1B8ue170006IJLm0EEJS7_EJEJEJS7_EEENS1_IJXspT_EEEENS_13__tuple_typesIJDpT0_EEENS1_IJXspT1_EEEENSB_IJDpT2_EEEDpOT3_', symObjAddr: 0x9CA8, symBinAddr: 0x10001A0F8, symSize: 0x34 }
  - { offsetInCU: 0x6CB65, offset: 0x8C767, size: 0x8, addend: 0x0, symName: '__ZNSt3__112__tuple_implINS_15__tuple_indicesIJLm0EEEEJRKNS_9allocatorIZ10test_basicvE3$_0EEEEC2B8ue170006IJLm0EEJS7_EJEJEJS7_EEENS1_IJXspT_EEEENS_13__tuple_typesIJDpT0_EEENS1_IJXspT1_EEEENSB_IJDpT2_EEEDpOT3_', symObjAddr: 0x9CDC, symBinAddr: 0x10001A12C, symSize: 0x34 }
  - { offsetInCU: 0x6CBFA, offset: 0x8C7FC, size: 0x8, addend: 0x0, symName: '__ZNSt3__112__tuple_leafILm0ERKNS_9allocatorIZ10test_basicvE3$_0EELb0EEC2B8ue170006IS5_vEEOT_', symObjAddr: 0x9D10, symBinAddr: 0x10001A160, symSize: 0x20 }
  - { offsetInCU: 0x6CC3D, offset: 0x8C83F, size: 0x8, addend: 0x0, symName: '__ZNSt3__117__compressed_pairIZ10test_basicvE3$_0NS_9allocatorIS1_EEEC2B8ue170006IJRKS1_EJRKS3_EEENS_21piecewise_construct_tENS_5tupleIJDpT_EEENSB_IJDpT0_EEE', symObjAddr: 0x9D30, symBinAddr: 0x10001A180, symSize: 0x54 }
  - { offsetInCU: 0x6CCA7, offset: 0x8C8A9, size: 0x8, addend: 0x0, symName: '__ZNSt3__122__compressed_pair_elemINS_9allocatorIZ10test_basicvE3$_0EELi1ELb1EEC2B8ue170006IJRKS3_EJLm0EEEENS_21piecewise_construct_tENS_5tupleIJDpT_EEENS_15__tuple_indicesIJXspT0_EEEE', symObjAddr: 0x9D84, symBinAddr: 0x10001A1D4, symSize: 0x38 }
  - { offsetInCU: 0x6CD0C, offset: 0x8C90E, size: 0x8, addend: 0x0, symName: '__ZNSt3__112__tuple_leafILm0ERKNS_9allocatorIZ10test_basicvE3$_0EELb0EE3getB8ue170006Ev', symObjAddr: 0x9DE0, symBinAddr: 0x10001A230, symSize: 0x18 }
  - { offsetInCU: 0x6CD32, offset: 0x8C934, size: 0x8, addend: 0x0, symName: '__ZNSt3__110__function12__alloc_funcIZ10test_basicvE3$_0NS_9allocatorIS2_EEFvvEE7destroyB8ue170006Ev', symObjAddr: 0x9DF8, symBinAddr: 0x10001A248, symSize: 0x10 }
  - { offsetInCU: 0x6CD58, offset: 0x8C95A, size: 0x8, addend: 0x0, symName: '__ZNSt3__110__function12__alloc_funcIZ10test_basicvE3$_0NS_9allocatorIS2_EEFvvEEclB8ue170006Ev', symObjAddr: 0x9E08, symBinAddr: 0x10001A258, symSize: 0x28 }
  - { offsetInCU: 0x6CD7E, offset: 0x8C980, size: 0x8, addend: 0x0, symName: '__ZNSt3__128__invoke_void_return_wrapperIvLb1EE6__callB8ue170006IJRZ10test_basicvE3$_0EEEvDpOT_', symObjAddr: 0x9E30, symBinAddr: 0x10001A280, symSize: 0x24 }
  - { offsetInCU: 0x6CDAD, offset: 0x8C9AF, size: 0x8, addend: 0x0, symName: '__ZNSt3__117__compressed_pairIZ10test_basicvE3$_0NS_9allocatorIS1_EEE5firstB8ue170006Ev', symObjAddr: 0x9E54, symBinAddr: 0x10001A2A4, symSize: 0x24 }
  - { offsetInCU: 0x6CDD3, offset: 0x8C9D5, size: 0x8, addend: 0x0, symName: '__ZZ10test_basicvENK3$_0clEv', symObjAddr: 0x9E9C, symBinAddr: 0x10001A2EC, symSize: 0x40 }
  - { offsetInCU: 0x6CDFD, offset: 0x8C9FF, size: 0x8, addend: 0x0, symName: '__ZNSt3__122__compressed_pair_elemIZ10test_basicvE3$_0Li0ELb0EE5__getB8ue170006Ev', symObjAddr: 0x9EDC, symBinAddr: 0x10001A32C, symSize: 0x14 }
  - { offsetInCU: 0x6CE59, offset: 0x8CA5B, size: 0x8, addend: 0x0, symName: __ZNKSt9type_infoeqB8ue170006ERKS_, symObjAddr: 0x9EF0, symBinAddr: 0x10001A340, symSize: 0xDC }
  - { offsetInCU: 0x6CEF7, offset: 0x8CAF9, size: 0x8, addend: 0x0, symName: __ZNSt27__type_info_implementations30__non_unique_arm_rtti_bit_impl21__is_type_name_uniqueB8ue170006Em, symObjAddr: 0x9FCC, symBinAddr: 0x10001A41C, symSize: 0x20 }
  - { offsetInCU: 0x6CF1B, offset: 0x8CB1D, size: 0x8, addend: 0x0, symName: __ZNSt3__16vectorIiNS_9allocatorIiEEEC2B8ue170006ESt16initializer_listIiE, symObjAddr: 0xA0D4, symBinAddr: 0x10001A43C, symSize: 0x120 }
  - { offsetInCU: 0x6CF6D, offset: 0x8CB6F, size: 0x8, addend: 0x0, symName: __ZNKSt16initializer_listIiE4sizeB8ue170006Ev, symObjAddr: 0xA1F4, symBinAddr: 0x10001A55C, symSize: 0x18 }
  - { offsetInCU: 0x6CF93, offset: 0x8CB95, size: 0x8, addend: 0x0, symName: __ZNSt3__16vectorIiNS_9allocatorIiEEE18__construct_at_endIPKiS6_EEvT_T0_m, symObjAddr: 0xA20C, symBinAddr: 0x10001A574, symSize: 0x8C }
  - { offsetInCU: 0x6D00A, offset: 0x8CC0C, size: 0x8, addend: 0x0, symName: __ZNKSt16initializer_listIiE5beginB8ue170006Ev, symObjAddr: 0xA298, symBinAddr: 0x10001A600, symSize: 0x18 }
  - { offsetInCU: 0x6D030, offset: 0x8CC32, size: 0x8, addend: 0x0, symName: __ZNKSt16initializer_listIiE3endB8ue170006Ev, symObjAddr: 0xA2B0, symBinAddr: 0x10001A618, symSize: 0x20 }
  - { offsetInCU: 0x6D079, offset: 0x8CC7B, size: 0x8, addend: 0x0, symName: __ZNSt3__14pairIPKiS2_EC1B8ue170006IS2_S2_LPv0EEEOT_OT0_, symObjAddr: 0xA4A4, symBinAddr: 0x10001A80C, symSize: 0x3C }
  - { offsetInCU: 0x6D0D7, offset: 0x8CCD9, size: 0x8, addend: 0x0, symName: __ZNSt3__14pairIPKiS2_EC2B8ue170006IS2_S2_LPv0EEEOT_OT0_, symObjAddr: 0xA4E0, symBinAddr: 0x10001A848, symSize: 0x34 }
  - { offsetInCU: 0x6D135, offset: 0x8CD37, size: 0x8, addend: 0x0, symName: __ZNSt3__118__unwrap_iter_implIPKiLb1EE8__unwrapB8ue170006ES2_, symObjAddr: 0xA514, symBinAddr: 0x10001A87C, symSize: 0x24 }
  - { offsetInCU: 0x6D180, offset: 0x8CD82, size: 0x8, addend: 0x0, symName: __ZNKSt3__114__copy_trivialclB8ue170006IKiiLi0EEENS_4pairIPT_PT0_EES5_S5_S7_, symObjAddr: 0xA6C8, symBinAddr: 0x10001AA30, symSize: 0x48 }
  - { offsetInCU: 0x6D1F4, offset: 0x8CDF6, size: 0x8, addend: 0x0, symName: __ZNSt3__14pairIPKiPiEC1B8ue170006IRS2_S3_LPv0EEEOT_OT0_, symObjAddr: 0xA890, symBinAddr: 0x10001ABF8, symSize: 0x3C }
  - { offsetInCU: 0x6D252, offset: 0x8CE54, size: 0x8, addend: 0x0, symName: __ZNSt3__14pairIPKiPiEC2B8ue170006IRS2_S3_LPv0EEEOT_OT0_, symObjAddr: 0xA8CC, symBinAddr: 0x10001AC34, symSize: 0x34 }
  - { offsetInCU: 0x6D2B0, offset: 0x8CEB2, size: 0x8, addend: 0x0, symName: __ZNSt3__14pairIPKiPiEC1B8ue170006IS2_S3_LPv0EEEOT_OT0_, symObjAddr: 0xA900, symBinAddr: 0x10001AC68, symSize: 0x3C }
  - { offsetInCU: 0x6D30E, offset: 0x8CF10, size: 0x8, addend: 0x0, symName: __ZNSt3__14pairIPKiPiEC2B8ue170006IS2_S3_LPv0EEEOT_OT0_, symObjAddr: 0xA93C, symBinAddr: 0x10001ACA4, symSize: 0x34 }
  - { offsetInCU: 0x6D36C, offset: 0x8CF6E, size: 0x8, addend: 0x0, symName: __ZNSt3__118__unwrap_iter_implIPKiLb1EE8__rewrapB8ue170006ES2_S2_, symObjAddr: 0xA9AC, symBinAddr: 0x10001AD14, symSize: 0x50 }
  - { offsetInCU: 0x6D39D, offset: 0x8CF9F, size: 0x8, addend: 0x0, symName: __ZNSt3__118__unwrap_iter_implIPiLb1EE8__unwrapB8ue170006ES1_, symObjAddr: 0xA9FC, symBinAddr: 0x10001AD64, symSize: 0x24 }
  - { offsetInCU: 0x6D3C0, offset: 0x8CFC2, size: 0x8, addend: 0x0, symName: __ZNSt3__118__unwrap_iter_implIPiLb1EE8__rewrapB8ue170006ES1_S1_, symObjAddr: 0xAA20, symBinAddr: 0x10001AD88, symSize: 0x50 }
  - { offsetInCU: 0x6D3F1, offset: 0x8CFF3, size: 0x8, addend: 0x0, symName: __ZNKSt3__16vectorIiNS_9allocatorIiEEE5beginB8ue170006Ev, symObjAddr: 0xAAC0, symBinAddr: 0x10001AE28, symSize: 0x30 }
  - { offsetInCU: 0x6D419, offset: 0x8D01B, size: 0x8, addend: 0x0, symName: __ZNKSt3__16vectorIiNS_9allocatorIiEEE3endB8ue170006Ev, symObjAddr: 0xAAF0, symBinAddr: 0x10001AE58, symSize: 0x30 }
  - { offsetInCU: 0x6D441, offset: 0x8D043, size: 0x8, addend: 0x0, symName: __ZNSt3__118__unwrap_iter_implINS_11__wrap_iterIPKiEELb1EE8__unwrapB8ue170006ES4_, symObjAddr: 0xAC58, symBinAddr: 0x10001AFC0, symSize: 0x28 }
  - { offsetInCU: 0x6D470, offset: 0x8D072, size: 0x8, addend: 0x0, symName: __ZNSt3__119__to_address_helperINS_11__wrap_iterIPKiEEvE6__callB8ue170006ERKS4_, symObjAddr: 0xACA4, symBinAddr: 0x10001B00C, symSize: 0x30 }
  - { offsetInCU: 0x6D493, offset: 0x8D095, size: 0x8, addend: 0x0, symName: __ZNSt3__114pointer_traitsINS_11__wrap_iterIPKiEEE10to_addressB8ue170006ES4_, symObjAddr: 0xACD4, symBinAddr: 0x10001B03C, symSize: 0x2C }
  - { offsetInCU: 0x6D4B6, offset: 0x8D0B8, size: 0x8, addend: 0x0, symName: __ZNKSt3__111__wrap_iterIPKiE4baseB8ue170006Ev, symObjAddr: 0xAD00, symBinAddr: 0x10001B068, symSize: 0x18 }
  - { offsetInCU: 0x6D4DC, offset: 0x8D0DE, size: 0x8, addend: 0x0, symName: __ZNKSt3__16vectorIiNS_9allocatorIiEEE11__make_iterB8ue170006EPKi, symObjAddr: 0xAD18, symBinAddr: 0x10001B080, symSize: 0x30 }
  - { offsetInCU: 0x6D511, offset: 0x8D113, size: 0x8, addend: 0x0, symName: __ZNSt3__111__wrap_iterIPKiEC1B8ue170006ES2_, symObjAddr: 0xAD48, symBinAddr: 0x10001B0B0, symSize: 0x34 }
  - { offsetInCU: 0x6D549, offset: 0x8D14B, size: 0x8, addend: 0x0, symName: __ZNSt3__111__wrap_iterIPKiEC2B8ue170006ES2_, symObjAddr: 0xAD7C, symBinAddr: 0x10001B0E4, symSize: 0x20 }
  - { offsetInCU: 0x6D581, offset: 0x8D183, size: 0x8, addend: 0x0, symName: __ZNSt3__19basic_iosIcNS_11char_traitsIcEEEC2B8ue170006Ev, symObjAddr: 0xAD9C, symBinAddr: 0x10001B104, symSize: 0x44 }
  - { offsetInCU: 0x6D5AB, offset: 0x8D1AD, size: 0x8, addend: 0x0, symName: __ZNSt3__114basic_iostreamIcNS_11char_traitsIcEEEC2B8ue170006EPNS_15basic_streambufIcS2_EE, symObjAddr: 0xADE0, symBinAddr: 0x10001B148, symSize: 0xAC }
  - { offsetInCU: 0x6D5F1, offset: 0x8D1F3, size: 0x8, addend: 0x0, symName: __ZNSt3__115basic_stringbufIcNS_11char_traitsIcEENS_9allocatorIcEEEC1B8ue170006Ej, symObjAddr: 0xAE8C, symBinAddr: 0x10001B1F4, symSize: 0x34 }
  - { offsetInCU: 0x6D62A, offset: 0x8D22C, size: 0x8, addend: 0x0, symName: __ZNSt3__18ios_baseC2B8ue170006Ev, symObjAddr: 0xAEC0, symBinAddr: 0x10001B228, symSize: 0x24 }
  - { offsetInCU: 0x6D654, offset: 0x8D256, size: 0x8, addend: 0x0, symName: __ZNSt3__113basic_istreamIcNS_11char_traitsIcEEEC2B8ue170006EPNS_15basic_streambufIcS2_EE, symObjAddr: 0xAEE4, symBinAddr: 0x10001B24C, symSize: 0x64 }
  - { offsetInCU: 0x6D699, offset: 0x8D29B, size: 0x8, addend: 0x0, symName: __ZNSt3__113basic_ostreamIcNS_11char_traitsIcEEEC2B8ue170006Ev, symObjAddr: 0xAF48, symBinAddr: 0x10001B2B0, symSize: 0x34 }
  - { offsetInCU: 0x6D6D0, offset: 0x8D2D2, size: 0x8, addend: 0x0, symName: __ZNSt3__19basic_iosIcNS_11char_traitsIcEEE4initB8ue170006EPNS_15basic_streambufIcS2_EE, symObjAddr: 0xAF7C, symBinAddr: 0x10001B2E4, symSize: 0x44 }
  - { offsetInCU: 0x6D707, offset: 0x8D309, size: 0x8, addend: 0x0, symName: __ZNSt3__111char_traitsIcE3eofB8ue170006Ev, symObjAddr: 0xAFC0, symBinAddr: 0x10001B328, symSize: 0x8 }
  - { offsetInCU: 0x6D71B, offset: 0x8D31D, size: 0x8, addend: 0x0, symName: __ZNSt3__115basic_stringbufIcNS_11char_traitsIcEENS_9allocatorIcEEEC2B8ue170006Ej, symObjAddr: 0xAFC8, symBinAddr: 0x10001B330, symSize: 0x60 }
  - { offsetInCU: 0x6D754, offset: 0x8D356, size: 0x8, addend: 0x0, symName: __ZNSt3__111char_traitsIcE6lengthB8ue170006EPKc, symObjAddr: 0xB214, symBinAddr: 0x10001B57C, symSize: 0x34 }
  - { offsetInCU: 0x6D79A, offset: 0x8D39C, size: 0x8, addend: 0x0, symName: __ZNKSt3__113basic_ostreamIcNS_11char_traitsIcEEE6sentrycvbB8ue170006Ev, symObjAddr: 0xB248, symBinAddr: 0x10001B5B0, symSize: 0x1C }
  - { offsetInCU: 0x6D7C0, offset: 0x8D3C2, size: 0x8, addend: 0x0, symName: __ZNSt3__119ostreambuf_iteratorIcNS_11char_traitsIcEEEC1B8ue170006ERNS_13basic_ostreamIcS2_EE, symObjAddr: 0xB4A4, symBinAddr: 0x10001B80C, symSize: 0x34 }
  - { offsetInCU: 0x6D7F8, offset: 0x8D3FA, size: 0x8, addend: 0x0, symName: __ZNKSt3__18ios_base5flagsB8ue170006Ev, symObjAddr: 0xB4D8, symBinAddr: 0x10001B840, symSize: 0x18 }
  - { offsetInCU: 0x6D820, offset: 0x8D422, size: 0x8, addend: 0x0, symName: __ZNKSt3__19basic_iosIcNS_11char_traitsIcEEE4fillB8ue170006Ev, symObjAddr: 0xB4F0, symBinAddr: 0x10001B858, symSize: 0x64 }
  - { offsetInCU: 0x6D848, offset: 0x8D44A, size: 0x8, addend: 0x0, symName: __ZNKSt3__119ostreambuf_iteratorIcNS_11char_traitsIcEEE6failedB8ue170006Ev, symObjAddr: 0xB554, symBinAddr: 0x10001B8BC, symSize: 0x24 }
  - { offsetInCU: 0x6D86E, offset: 0x8D470, size: 0x8, addend: 0x0, symName: __ZNSt3__19basic_iosIcNS_11char_traitsIcEEE8setstateB8ue170006Ej, symObjAddr: 0xB578, symBinAddr: 0x10001B8E0, symSize: 0x2C }
  - { offsetInCU: 0x6D8A3, offset: 0x8D4A5, size: 0x8, addend: 0x0, symName: __ZNKSt3__18ios_base5widthB8ue170006Ev, symObjAddr: 0xB5A4, symBinAddr: 0x10001B90C, symSize: 0x18 }
  - { offsetInCU: 0x6D8CB, offset: 0x8D4CD, size: 0x8, addend: 0x0, symName: __ZNSt3__115basic_streambufIcNS_11char_traitsIcEEE5sputnB8ue170006EPKcl, symObjAddr: 0xB5BC, symBinAddr: 0x10001B924, symSize: 0x3C }
  - { offsetInCU: 0x6D90D, offset: 0x8D50F, size: 0x8, addend: 0x0, symName: __ZNSt3__112basic_stringIcNS_11char_traitsIcEENS_9allocatorIcEEEC1B8ue170006Emc, symObjAddr: 0xB5F8, symBinAddr: 0x10001B960, symSize: 0x3C }
  - { offsetInCU: 0x6D955, offset: 0x8D557, size: 0x8, addend: 0x0, symName: __ZNKSt3__112basic_stringIcNS_11char_traitsIcEENS_9allocatorIcEEE4dataB8ue170006Ev, symObjAddr: 0xB634, symBinAddr: 0x10001B99C, symSize: 0x28 }
  - { offsetInCU: 0x6D97B, offset: 0x8D57D, size: 0x8, addend: 0x0, symName: __ZNSt3__18ios_base5widthB8ue170006El, symObjAddr: 0xB65C, symBinAddr: 0x10001B9C4, symSize: 0x2C }
  - { offsetInCU: 0x6D9C2, offset: 0x8D5C4, size: 0x8, addend: 0x0, symName: __ZNSt3__112basic_stringIcNS_11char_traitsIcEENS_9allocatorIcEEEC2B8ue170006Emc, symObjAddr: 0xB688, symBinAddr: 0x10001B9F0, symSize: 0x4C }
  - { offsetInCU: 0x6DA0A, offset: 0x8D60C, size: 0x8, addend: 0x0, symName: __ZNSt3__117__compressed_pairINS_12basic_stringIcNS_11char_traitsIcEENS_9allocatorIcEEE5__repES5_EC1B8ue170006INS_18__default_init_tagESA_EEOT_OT0_, symObjAddr: 0xB6D4, symBinAddr: 0x10001BA3C, symSize: 0x3C }
  - { offsetInCU: 0x6DA62, offset: 0x8D664, size: 0x8, addend: 0x0, symName: __ZNSt3__117__compressed_pairINS_12basic_stringIcNS_11char_traitsIcEENS_9allocatorIcEEE5__repES5_EC2B8ue170006INS_18__default_init_tagESA_EEOT_OT0_, symObjAddr: 0xB710, symBinAddr: 0x10001BA78, symSize: 0x3C }
  - { offsetInCU: 0x6DABA, offset: 0x8D6BC, size: 0x8, addend: 0x0, symName: __ZNSt3__122__compressed_pair_elemINS_12basic_stringIcNS_11char_traitsIcEENS_9allocatorIcEEE5__repELi0ELb0EEC2B8ue170006ENS_18__default_init_tagE, symObjAddr: 0xB74C, symBinAddr: 0x10001BAB4, symSize: 0x14 }
  - { offsetInCU: 0x6DAEF, offset: 0x8D6F1, size: 0x8, addend: 0x0, symName: __ZNSt3__122__compressed_pair_elemINS_9allocatorIcEELi1ELb1EEC2B8ue170006ENS_18__default_init_tagE, symObjAddr: 0xB760, symBinAddr: 0x10001BAC8, symSize: 0x2C }
  - { offsetInCU: 0x6DB24, offset: 0x8D726, size: 0x8, addend: 0x0, symName: __ZNSt3__19allocatorIcEC2B8ue170006Ev, symObjAddr: 0xB78C, symBinAddr: 0x10001BAF4, symSize: 0x2C }
  - { offsetInCU: 0x6DB4E, offset: 0x8D750, size: 0x8, addend: 0x0, symName: __ZNSt3__116__non_trivial_ifILb1ENS_9allocatorIcEEEC2B8ue170006Ev, symObjAddr: 0xB7B8, symBinAddr: 0x10001BB20, symSize: 0x14 }
  - { offsetInCU: 0x6DB78, offset: 0x8D77A, size: 0x8, addend: 0x0, symName: __ZNKSt3__112basic_stringIcNS_11char_traitsIcEENS_9allocatorIcEEE13__get_pointerB8ue170006Ev, symObjAddr: 0xB7E0, symBinAddr: 0x10001BB48, symSize: 0x54 }
  - { offsetInCU: 0x6DB9E, offset: 0x8D7A0, size: 0x8, addend: 0x0, symName: __ZNKSt3__112basic_stringIcNS_11char_traitsIcEENS_9allocatorIcEEE9__is_longB8ue170006Ev, symObjAddr: 0xB834, symBinAddr: 0x10001BB9C, symSize: 0x38 }
  - { offsetInCU: 0x6DBC4, offset: 0x8D7C6, size: 0x8, addend: 0x0, symName: __ZNKSt3__112basic_stringIcNS_11char_traitsIcEENS_9allocatorIcEEE18__get_long_pointerB8ue170006Ev, symObjAddr: 0xB86C, symBinAddr: 0x10001BBD4, symSize: 0x28 }
  - { offsetInCU: 0x6DBEA, offset: 0x8D7EC, size: 0x8, addend: 0x0, symName: __ZNKSt3__112basic_stringIcNS_11char_traitsIcEENS_9allocatorIcEEE19__get_short_pointerB8ue170006Ev, symObjAddr: 0xB894, symBinAddr: 0x10001BBFC, symSize: 0x28 }
  - { offsetInCU: 0x6DC10, offset: 0x8D812, size: 0x8, addend: 0x0, symName: __ZNKSt3__117__compressed_pairINS_12basic_stringIcNS_11char_traitsIcEENS_9allocatorIcEEE5__repES5_E5firstB8ue170006Ev, symObjAddr: 0xB8BC, symBinAddr: 0x10001BC24, symSize: 0x24 }
  - { offsetInCU: 0x6DC36, offset: 0x8D838, size: 0x8, addend: 0x0, symName: __ZNKSt3__122__compressed_pair_elemINS_12basic_stringIcNS_11char_traitsIcEENS_9allocatorIcEEE5__repELi0ELb0EE5__getB8ue170006Ev, symObjAddr: 0xB8E0, symBinAddr: 0x10001BC48, symSize: 0x14 }
  - { offsetInCU: 0x6DC5C, offset: 0x8D85E, size: 0x8, addend: 0x0, symName: __ZNSt3__114pointer_traitsIPKcE10pointer_toB8ue170006ERS1_, symObjAddr: 0xB8F4, symBinAddr: 0x10001BC5C, symSize: 0x14 }
  - { offsetInCU: 0x6DC7F, offset: 0x8D881, size: 0x8, addend: 0x0, symName: __ZNSt3__119ostreambuf_iteratorIcNS_11char_traitsIcEEEC2B8ue170006ERNS_13basic_ostreamIcS2_EE, symObjAddr: 0xB908, symBinAddr: 0x10001BC70, symSize: 0x54 }
  - { offsetInCU: 0x6DCB7, offset: 0x8D8B9, size: 0x8, addend: 0x0, symName: __ZNKSt3__19basic_iosIcNS_11char_traitsIcEEE5rdbufB8ue170006Ev, symObjAddr: 0xB95C, symBinAddr: 0x10001BCC4, symSize: 0x24 }
  - { offsetInCU: 0x6DCDF, offset: 0x8D8E1, size: 0x8, addend: 0x0, symName: __ZNKSt3__18ios_base5rdbufB8ue170006Ev, symObjAddr: 0xB980, symBinAddr: 0x10001BCE8, symSize: 0x18 }
  - { offsetInCU: 0x6DD05, offset: 0x8D907, size: 0x8, addend: 0x0, symName: __ZNSt3__111char_traitsIcE11eq_int_typeB8ue170006Eii, symObjAddr: 0xB998, symBinAddr: 0x10001BD00, symSize: 0x28 }
  - { offsetInCU: 0x6DD38, offset: 0x8D93A, size: 0x8, addend: 0x0, symName: __ZNKSt3__19basic_iosIcNS_11char_traitsIcEEE5widenB8ue170006Ec, symObjAddr: 0xB9C0, symBinAddr: 0x10001BD28, symSize: 0x84 }
  - { offsetInCU: 0x6DDA8, offset: 0x8D9AA, size: 0x8, addend: 0x0, symName: __ZNKSt3__15ctypeIcE5widenB8ue170006Ec, symObjAddr: 0xBA70, symBinAddr: 0x10001BDD8, symSize: 0x38 }
  - { offsetInCU: 0x6DDDD, offset: 0x8D9DF, size: 0x8, addend: 0x0, symName: __ZNSt3__18ios_base8setstateB8ue170006Ej, symObjAddr: 0xBAA8, symBinAddr: 0x10001BE10, symSize: 0x34 }
  - { offsetInCU: 0x6DE14, offset: 0x8DA16, size: 0x8, addend: 0x0, symName: '__ZNSt3__18functionIFvvEEC2IZ21test_serial_executionvE3$_1vEET_', symObjAddr: 0xBB00, symBinAddr: 0x10001BE68, symSize: 0x34 }
  - { offsetInCU: 0x6DE5A, offset: 0x8DA5C, size: 0x8, addend: 0x0, symName: '__ZNSt3__110__function12__value_funcIFvvEEC1B8ue170006IZ21test_serial_executionvE3$_1vEEOT_', symObjAddr: 0xBB34, symBinAddr: 0x10001BE9C, symSize: 0x50 }
  - { offsetInCU: 0x6DE9D, offset: 0x8DA9F, size: 0x8, addend: 0x0, symName: '__ZNSt3__19allocatorIZ21test_serial_executionvE3$_1EC1B8ue170006Ev', symObjAddr: 0xBB84, symBinAddr: 0x10001BEEC, symSize: 0x2C }
  - { offsetInCU: 0x6DEC7, offset: 0x8DAC9, size: 0x8, addend: 0x0, symName: '__ZNSt3__110__function12__value_funcIFvvEEC1B8ue170006IZ21test_serial_executionvE3$_1NS_9allocatorIS5_EEEEOT_RKT0_', symObjAddr: 0xBBB0, symBinAddr: 0x10001BF18, symSize: 0x3C }
  - { offsetInCU: 0x6DF21, offset: 0x8DB23, size: 0x8, addend: 0x0, symName: '__ZNSt3__19allocatorIZ21test_serial_executionvE3$_1EC2B8ue170006Ev', symObjAddr: 0xBBEC, symBinAddr: 0x10001BF54, symSize: 0x2C }
  - { offsetInCU: 0x6DF4B, offset: 0x8DB4D, size: 0x8, addend: 0x0, symName: '__ZNSt3__116__non_trivial_ifILb1ENS_9allocatorIZ21test_serial_executionvE3$_1EEEC2B8ue170006Ev', symObjAddr: 0xBC18, symBinAddr: 0x10001BF80, symSize: 0x14 }
  - { offsetInCU: 0x6DF75, offset: 0x8DB77, size: 0x8, addend: 0x0, symName: '__ZNSt3__110__function12__value_funcIFvvEEC2B8ue170006IZ21test_serial_executionvE3$_1NS_9allocatorIS5_EEEEOT_RKT0_', symObjAddr: 0xBC2C, symBinAddr: 0x10001BF94, symSize: 0xF4 }
  - { offsetInCU: 0x6E032, offset: 0x8DC34, size: 0x8, addend: 0x0, symName: '__ZNSt3__19allocatorINS_10__function6__funcIZ21test_serial_executionvE3$_1NS0_IS3_EEFvvEEEEC1B8ue170006IS3_EERKNS0_IT_EE', symObjAddr: 0xBD38, symBinAddr: 0x10001C0A0, symSize: 0x34 }
  - { offsetInCU: 0x6E070, offset: 0x8DC72, size: 0x8, addend: 0x0, symName: '__ZNSt3__19allocatorINS_10__function6__funcIZ21test_serial_executionvE3$_1NS0_IS3_EEFvvEEEE8allocateB8ue170006Em', symObjAddr: 0xBD6C, symBinAddr: 0x10001C0D4, symSize: 0x58 }
  - { offsetInCU: 0x6E0B6, offset: 0x8DCB8, size: 0x8, addend: 0x0, symName: '__ZNSt3__122__allocator_destructorINS_9allocatorINS_10__function6__funcIZ21test_serial_executionvE3$_1NS1_IS4_EEFvvEEEEEEC1B8ue170006ERS8_m', symObjAddr: 0xBDC4, symBinAddr: 0x10001C12C, symSize: 0x3C }
  - { offsetInCU: 0x6E19D, offset: 0x8DD9F, size: 0x8, addend: 0x0, symName: '__ZNSt3__110unique_ptrINS_10__function6__baseIFvvEEENS_22__allocator_destructorINS_9allocatorINS1_6__funcIZ21test_serial_executionvE3$_1NS6_IS8_EES3_EEEEEEEC1B8ue170006ILb1EvEEPSA_NS_16__dependent_typeINS_27__unique_ptr_deleter_sfinaeISC_EEXT_EE20__good_rval_ref_typeE', symObjAddr: 0xBE00, symBinAddr: 0x10001C168, symSize: 0x3C }
  - { offsetInCU: 0x6E1EE, offset: 0x8DDF0, size: 0x8, addend: 0x0, symName: '__ZNKSt3__110unique_ptrINS_10__function6__baseIFvvEEENS_22__allocator_destructorINS_9allocatorINS1_6__funcIZ21test_serial_executionvE3$_1NS6_IS8_EES3_EEEEEEE3getB8ue170006Ev', symObjAddr: 0xBE3C, symBinAddr: 0x10001C1A4, symSize: 0x28 }
  - { offsetInCU: 0x6E214, offset: 0x8DE16, size: 0x8, addend: 0x0, symName: '__ZNSt3__110__function6__funcIZ21test_serial_executionvE3$_1NS_9allocatorIS2_EEFvvEEC1B8ue170006EOS2_OS4_', symObjAddr: 0xBE64, symBinAddr: 0x10001C1CC, symSize: 0x3C }
  - { offsetInCU: 0x6E25C, offset: 0x8DE5E, size: 0x8, addend: 0x0, symName: '__ZNSt3__110unique_ptrINS_10__function6__baseIFvvEEENS_22__allocator_destructorINS_9allocatorINS1_6__funcIZ21test_serial_executionvE3$_1NS6_IS8_EES3_EEEEEEE7releaseB8ue170006Ev', symObjAddr: 0xBEA0, symBinAddr: 0x10001C208, symSize: 0x44 }
  - { offsetInCU: 0x6E292, offset: 0x8DE94, size: 0x8, addend: 0x0, symName: '__ZNSt3__110unique_ptrINS_10__function6__baseIFvvEEENS_22__allocator_destructorINS_9allocatorINS1_6__funcIZ21test_serial_executionvE3$_1NS6_IS8_EES3_EEEEEEED1B8ue170006Ev', symObjAddr: 0xBEE4, symBinAddr: 0x10001C24C, symSize: 0x2C }
  - { offsetInCU: 0x6E2BC, offset: 0x8DEBE, size: 0x8, addend: 0x0, symName: '__ZNSt3__19allocatorINS_10__function6__funcIZ21test_serial_executionvE3$_1NS0_IS3_EEFvvEEEEC2B8ue170006IS3_EERKNS0_IT_EE', symObjAddr: 0xBF10, symBinAddr: 0x10001C278, symSize: 0x30 }
  - { offsetInCU: 0x6E2FA, offset: 0x8DEFC, size: 0x8, addend: 0x0, symName: '__ZNSt3__116__non_trivial_ifILb1ENS_9allocatorINS_10__function6__funcIZ21test_serial_executionvE3$_1NS1_IS4_EEFvvEEEEEEC2B8ue170006Ev', symObjAddr: 0xBF40, symBinAddr: 0x10001C2A8, symSize: 0x14 }
  - { offsetInCU: 0x6E32F, offset: 0x8DF31, size: 0x8, addend: 0x0, symName: '__ZNSt3__116allocator_traitsINS_9allocatorINS_10__function6__funcIZ21test_serial_executionvE3$_1NS1_IS4_EEFvvEEEEEE8max_sizeB8ue170006IS8_vEEmRKS8_', symObjAddr: 0xBF54, symBinAddr: 0x10001C2BC, symSize: 0x24 }
  - { offsetInCU: 0x6E35D, offset: 0x8DF5F, size: 0x8, addend: 0x0, symName: '__ZNKSt3__19allocatorINS_10__function6__funcIZ21test_serial_executionvE3$_1NS0_IS3_EEFvvEEEE8max_sizeB8ue170006Ev', symObjAddr: 0xBF78, symBinAddr: 0x10001C2E0, symSize: 0x14 }
  - { offsetInCU: 0x6E383, offset: 0x8DF85, size: 0x8, addend: 0x0, symName: '__ZNSt3__122__allocator_destructorINS_9allocatorINS_10__function6__funcIZ21test_serial_executionvE3$_1NS1_IS4_EEFvvEEEEEEC2B8ue170006ERS8_m', symObjAddr: 0xBF8C, symBinAddr: 0x10001C2F4, symSize: 0x2C }
  - { offsetInCU: 0x6E3C9, offset: 0x8DFCB, size: 0x8, addend: 0x0, symName: '__ZNSt3__110unique_ptrINS_10__function6__baseIFvvEEENS_22__allocator_destructorINS_9allocatorINS1_6__funcIZ21test_serial_executionvE3$_1NS6_IS8_EES3_EEEEEEEC2B8ue170006ILb1EvEEPSA_NS_16__dependent_typeINS_27__unique_ptr_deleter_sfinaeISC_EEXT_EE20__good_rval_ref_typeE', symObjAddr: 0xBFB8, symBinAddr: 0x10001C320, symSize: 0x48 }
  - { offsetInCU: 0x6E41A, offset: 0x8E01C, size: 0x8, addend: 0x0, symName: '__ZNSt3__117__compressed_pairIPNS_10__function6__funcIZ21test_serial_executionvE3$_1NS_9allocatorIS3_EEFvvEEENS_22__allocator_destructorINS4_IS7_EEEEEC1B8ue170006IRS8_SB_EEOT_OT0_', symObjAddr: 0xC000, symBinAddr: 0x10001C368, symSize: 0x3C }
  - { offsetInCU: 0x6E472, offset: 0x8E074, size: 0x8, addend: 0x0, symName: '__ZNSt3__117__compressed_pairIPNS_10__function6__funcIZ21test_serial_executionvE3$_1NS_9allocatorIS3_EEFvvEEENS_22__allocator_destructorINS4_IS7_EEEEEC2B8ue170006IRS8_SB_EEOT_OT0_', symObjAddr: 0xC03C, symBinAddr: 0x10001C3A4, symSize: 0x48 }
  - { offsetInCU: 0x6E4CA, offset: 0x8E0CC, size: 0x8, addend: 0x0, symName: '__ZNSt3__122__compressed_pair_elemIPNS_10__function6__funcIZ21test_serial_executionvE3$_1NS_9allocatorIS3_EEFvvEEELi0ELb0EEC2B8ue170006IRS8_vEEOT_', symObjAddr: 0xC084, symBinAddr: 0x10001C3EC, symSize: 0x24 }
  - { offsetInCU: 0x6E50C, offset: 0x8E10E, size: 0x8, addend: 0x0, symName: '__ZNSt3__122__compressed_pair_elemINS_22__allocator_destructorINS_9allocatorINS_10__function6__funcIZ21test_serial_executionvE3$_1NS2_IS5_EEFvvEEEEEEELi1ELb0EEC2B8ue170006ISA_vEEOT_', symObjAddr: 0xC0A8, symBinAddr: 0x10001C410, symSize: 0x24 }
  - { offsetInCU: 0x6E54E, offset: 0x8E150, size: 0x8, addend: 0x0, symName: '__ZNKSt3__117__compressed_pairIPNS_10__function6__funcIZ21test_serial_executionvE3$_1NS_9allocatorIS3_EEFvvEEENS_22__allocator_destructorINS4_IS7_EEEEE5firstB8ue170006Ev', symObjAddr: 0xC0CC, symBinAddr: 0x10001C434, symSize: 0x24 }
  - { offsetInCU: 0x6E574, offset: 0x8E176, size: 0x8, addend: 0x0, symName: '__ZNKSt3__122__compressed_pair_elemIPNS_10__function6__funcIZ21test_serial_executionvE3$_1NS_9allocatorIS3_EEFvvEEELi0ELb0EE5__getB8ue170006Ev', symObjAddr: 0xC0F0, symBinAddr: 0x10001C458, symSize: 0x14 }
  - { offsetInCU: 0x6E59A, offset: 0x8E19C, size: 0x8, addend: 0x0, symName: '__ZNSt3__110__function6__funcIZ21test_serial_executionvE3$_1NS_9allocatorIS2_EEFvvEEC2B8ue170006EOS2_OS4_', symObjAddr: 0xC104, symBinAddr: 0x10001C46C, symSize: 0x88 }
  - { offsetInCU: 0x6E5E2, offset: 0x8E1E4, size: 0x8, addend: 0x0, symName: '__ZNSt3__110__function12__alloc_funcIZ21test_serial_executionvE3$_1NS_9allocatorIS2_EEFvvEEC1B8ue170006EOS2_OS4_', symObjAddr: 0xC18C, symBinAddr: 0x10001C4F4, symSize: 0x3C }
  - { offsetInCU: 0x6E628, offset: 0x8E22A, size: 0x8, addend: 0x0, symName: '__ZNSt3__110__function6__funcIZ21test_serial_executionvE3$_1NS_9allocatorIS2_EEFvvEED1Ev', symObjAddr: 0xC1C8, symBinAddr: 0x10001C530, symSize: 0x2C }
  - { offsetInCU: 0x6E655, offset: 0x8E257, size: 0x8, addend: 0x0, symName: '__ZNSt3__110__function6__funcIZ21test_serial_executionvE3$_1NS_9allocatorIS2_EEFvvEED0Ev', symObjAddr: 0xC1F4, symBinAddr: 0x10001C55C, symSize: 0x30 }
  - { offsetInCU: 0x6E682, offset: 0x8E284, size: 0x8, addend: 0x0, symName: '__ZNKSt3__110__function6__funcIZ21test_serial_executionvE3$_1NS_9allocatorIS2_EEFvvEE7__cloneEv', symObjAddr: 0xC224, symBinAddr: 0x10001C58C, symSize: 0xFC }
  - { offsetInCU: 0x6E6D6, offset: 0x8E2D8, size: 0x8, addend: 0x0, symName: '__ZNKSt3__110__function6__funcIZ21test_serial_executionvE3$_1NS_9allocatorIS2_EEFvvEE7__cloneEPNS0_6__baseIS5_EE', symObjAddr: 0xC320, symBinAddr: 0x10001C688, symSize: 0x58 }
  - { offsetInCU: 0x6E70D, offset: 0x8E30F, size: 0x8, addend: 0x0, symName: '__ZNSt3__110__function6__funcIZ21test_serial_executionvE3$_1NS_9allocatorIS2_EEFvvEE7destroyEv', symObjAddr: 0xC378, symBinAddr: 0x10001C6E0, symSize: 0x28 }
  - { offsetInCU: 0x6E735, offset: 0x8E337, size: 0x8, addend: 0x0, symName: '__ZNSt3__110__function6__funcIZ21test_serial_executionvE3$_1NS_9allocatorIS2_EEFvvEE18destroy_deallocateEv', symObjAddr: 0xC3A0, symBinAddr: 0x10001C708, symSize: 0x58 }
  - { offsetInCU: 0x6E779, offset: 0x8E37B, size: 0x8, addend: 0x0, symName: '__ZNSt3__110__function6__funcIZ21test_serial_executionvE3$_1NS_9allocatorIS2_EEFvvEEclEv', symObjAddr: 0xC3F8, symBinAddr: 0x10001C760, symSize: 0x28 }
  - { offsetInCU: 0x6E7A1, offset: 0x8E3A3, size: 0x8, addend: 0x0, symName: '__ZNKSt3__110__function6__funcIZ21test_serial_executionvE3$_1NS_9allocatorIS2_EEFvvEE6targetERKSt9type_info', symObjAddr: 0xC420, symBinAddr: 0x10001C788, symSize: 0x60 }
  - { offsetInCU: 0x6E7D8, offset: 0x8E3DA, size: 0x8, addend: 0x0, symName: '__ZNKSt3__110__function6__funcIZ21test_serial_executionvE3$_1NS_9allocatorIS2_EEFvvEE11target_typeEv', symObjAddr: 0xC480, symBinAddr: 0x10001C7E8, symSize: 0x18 }
  - { offsetInCU: 0x6E800, offset: 0x8E402, size: 0x8, addend: 0x0, symName: '__ZNSt3__110__function12__alloc_funcIZ21test_serial_executionvE3$_1NS_9allocatorIS2_EEFvvEEC2B8ue170006EOS2_OS4_', symObjAddr: 0xC498, symBinAddr: 0x10001C800, symSize: 0x5C }
  - { offsetInCU: 0x6E846, offset: 0x8E448, size: 0x8, addend: 0x0, symName: '__ZNSt3__117__compressed_pairIZ21test_serial_executionvE3$_1NS_9allocatorIS1_EEEC1B8ue170006IJOS1_EJOS3_EEENS_21piecewise_construct_tENS_5tupleIJDpT_EEENS9_IJDpT0_EEE', symObjAddr: 0xC54C, symBinAddr: 0x10001C8B4, symSize: 0x3C }
  - { offsetInCU: 0x6E8B0, offset: 0x8E4B2, size: 0x8, addend: 0x0, symName: '__ZNSt3__15tupleIJOZ21test_serial_executionvE3$_1EEC1B8ue170006IJS1_ELi0EEEDpOT_', symObjAddr: 0xC588, symBinAddr: 0x10001C8F0, symSize: 0x34 }
  - { offsetInCU: 0x6E8FA, offset: 0x8E4FC, size: 0x8, addend: 0x0, symName: '__ZNSt3__15tupleIJOZ21test_serial_executionvE3$_1EEC2B8ue170006IJS1_ELi0EEEDpOT_', symObjAddr: 0xC5BC, symBinAddr: 0x10001C924, symSize: 0x34 }
  - { offsetInCU: 0x6E944, offset: 0x8E546, size: 0x8, addend: 0x0, symName: '__ZNSt3__112__tuple_implINS_15__tuple_indicesIJLm0EEEEJOZ21test_serial_executionvE3$_1EEC1B8ue170006IJLm0EEJS4_EJEJEJS3_EEENS1_IJXspT_EEEENS_13__tuple_typesIJDpT0_EEENS1_IJXspT1_EEEENS8_IJDpT2_EEEDpOT3_', symObjAddr: 0xC5F0, symBinAddr: 0x10001C958, symSize: 0x34 }
  - { offsetInCU: 0x6E9D9, offset: 0x8E5DB, size: 0x8, addend: 0x0, symName: '__ZNSt3__112__tuple_implINS_15__tuple_indicesIJLm0EEEEJOZ21test_serial_executionvE3$_1EEC2B8ue170006IJLm0EEJS4_EJEJEJS3_EEENS1_IJXspT_EEEENS_13__tuple_typesIJDpT0_EEENS1_IJXspT1_EEEENS8_IJDpT2_EEEDpOT3_', symObjAddr: 0xC624, symBinAddr: 0x10001C98C, symSize: 0x34 }
  - { offsetInCU: 0x6EA6E, offset: 0x8E670, size: 0x8, addend: 0x0, symName: '__ZNSt3__112__tuple_leafILm0EOZ21test_serial_executionvE3$_1Lb0EEC2B8ue170006IS1_vEEOT_', symObjAddr: 0xC658, symBinAddr: 0x10001C9C0, symSize: 0x20 }
  - { offsetInCU: 0x6EAB1, offset: 0x8E6B3, size: 0x8, addend: 0x0, symName: '__ZNSt3__15tupleIJONS_9allocatorIZ21test_serial_executionvE3$_1EEEEC1B8ue170006IJS3_ELi0EEEDpOT_', symObjAddr: 0xC678, symBinAddr: 0x10001C9E0, symSize: 0x34 }
  - { offsetInCU: 0x6EAFB, offset: 0x8E6FD, size: 0x8, addend: 0x0, symName: '__ZNSt3__15tupleIJONS_9allocatorIZ21test_serial_executionvE3$_1EEEEC2B8ue170006IJS3_ELi0EEEDpOT_', symObjAddr: 0xC6AC, symBinAddr: 0x10001CA14, symSize: 0x34 }
  - { offsetInCU: 0x6EB45, offset: 0x8E747, size: 0x8, addend: 0x0, symName: '__ZNSt3__112__tuple_implINS_15__tuple_indicesIJLm0EEEEJONS_9allocatorIZ21test_serial_executionvE3$_1EEEEC1B8ue170006IJLm0EEJS6_EJEJEJS5_EEENS1_IJXspT_EEEENS_13__tuple_typesIJDpT0_EEENS1_IJXspT1_EEEENSA_IJDpT2_EEEDpOT3_', symObjAddr: 0xC6E0, symBinAddr: 0x10001CA48, symSize: 0x34 }
  - { offsetInCU: 0x6EBDA, offset: 0x8E7DC, size: 0x8, addend: 0x0, symName: '__ZNSt3__112__tuple_implINS_15__tuple_indicesIJLm0EEEEJONS_9allocatorIZ21test_serial_executionvE3$_1EEEEC2B8ue170006IJLm0EEJS6_EJEJEJS5_EEENS1_IJXspT_EEEENS_13__tuple_typesIJDpT0_EEENS1_IJXspT1_EEEENSA_IJDpT2_EEEDpOT3_', symObjAddr: 0xC714, symBinAddr: 0x10001CA7C, symSize: 0x34 }
  - { offsetInCU: 0x6EC6F, offset: 0x8E871, size: 0x8, addend: 0x0, symName: '__ZNSt3__112__tuple_leafILm0EONS_9allocatorIZ21test_serial_executionvE3$_1EELb0EEC2B8ue170006IS3_vEEOT_', symObjAddr: 0xC748, symBinAddr: 0x10001CAB0, symSize: 0x20 }
  - { offsetInCU: 0x6ECB2, offset: 0x8E8B4, size: 0x8, addend: 0x0, symName: '__ZNSt3__117__compressed_pairIZ21test_serial_executionvE3$_1NS_9allocatorIS1_EEEC2B8ue170006IJOS1_EJOS3_EEENS_21piecewise_construct_tENS_5tupleIJDpT_EEENS9_IJDpT0_EEE', symObjAddr: 0xC768, symBinAddr: 0x10001CAD0, symSize: 0x54 }
  - { offsetInCU: 0x6ED1C, offset: 0x8E91E, size: 0x8, addend: 0x0, symName: '__ZNSt3__122__compressed_pair_elemIZ21test_serial_executionvE3$_1Li0ELb0EEC2B8ue170006IJOS1_EJLm0EEEENS_21piecewise_construct_tENS_5tupleIJDpT_EEENS_15__tuple_indicesIJXspT0_EEEE', symObjAddr: 0xC7BC, symBinAddr: 0x10001CB24, symSize: 0x4C }
  - { offsetInCU: 0x6ED81, offset: 0x8E983, size: 0x8, addend: 0x0, symName: '__ZNSt3__122__compressed_pair_elemINS_9allocatorIZ21test_serial_executionvE3$_1EELi1ELb1EEC2B8ue170006IJOS3_EJLm0EEEENS_21piecewise_construct_tENS_5tupleIJDpT_EEENS_15__tuple_indicesIJXspT0_EEEE', symObjAddr: 0xC808, symBinAddr: 0x10001CB70, symSize: 0x38 }
  - { offsetInCU: 0x6EDE6, offset: 0x8E9E8, size: 0x8, addend: 0x0, symName: '__ZNSt3__112__tuple_leafILm0EOZ21test_serial_executionvE3$_1Lb0EE3getB8ue170006Ev', symObjAddr: 0xC864, symBinAddr: 0x10001CBCC, symSize: 0x18 }
  - { offsetInCU: 0x6EE0C, offset: 0x8EA0E, size: 0x8, addend: 0x0, symName: '__ZNSt3__112__tuple_leafILm0EONS_9allocatorIZ21test_serial_executionvE3$_1EELb0EE3getB8ue170006Ev', symObjAddr: 0xC8A0, symBinAddr: 0x10001CC08, symSize: 0x18 }
  - { offsetInCU: 0x6EE32, offset: 0x8EA34, size: 0x8, addend: 0x0, symName: '__ZNSt3__110__function6__funcIZ21test_serial_executionvE3$_1NS_9allocatorIS2_EEFvvEED2Ev', symObjAddr: 0xC8B8, symBinAddr: 0x10001CC20, symSize: 0x2C }
  - { offsetInCU: 0x6EE5F, offset: 0x8EA61, size: 0x8, addend: 0x0, symName: '__ZNKSt3__110__function12__alloc_funcIZ21test_serial_executionvE3$_1NS_9allocatorIS2_EEFvvEE15__get_allocatorB8ue170006Ev', symObjAddr: 0xC8E4, symBinAddr: 0x10001CC4C, symSize: 0x24 }
  - { offsetInCU: 0x6EEB3, offset: 0x8EAB5, size: 0x8, addend: 0x0, symName: '__ZNSt3__110unique_ptrINS_10__function6__funcIZ21test_serial_executionvE3$_1NS_9allocatorIS3_EEFvvEEENS_22__allocator_destructorINS4_IS7_EEEEEC1B8ue170006ILb1EvEEPS7_NS_16__dependent_typeINS_27__unique_ptr_deleter_sfinaeISA_EEXT_EE20__good_rval_ref_typeE', symObjAddr: 0xC908, symBinAddr: 0x10001CC70, symSize: 0x3C }
  - { offsetInCU: 0x6EF04, offset: 0x8EB06, size: 0x8, addend: 0x0, symName: '__ZNKSt3__110unique_ptrINS_10__function6__funcIZ21test_serial_executionvE3$_1NS_9allocatorIS3_EEFvvEEENS_22__allocator_destructorINS4_IS7_EEEEE3getB8ue170006Ev', symObjAddr: 0xC944, symBinAddr: 0x10001CCAC, symSize: 0x28 }
  - { offsetInCU: 0x6EF2A, offset: 0x8EB2C, size: 0x8, addend: 0x0, symName: '__ZNKSt3__110__function12__alloc_funcIZ21test_serial_executionvE3$_1NS_9allocatorIS2_EEFvvEE8__targetB8ue170006Ev', symObjAddr: 0xC96C, symBinAddr: 0x10001CCD4, symSize: 0x24 }
  - { offsetInCU: 0x6EF56, offset: 0x8EB58, size: 0x8, addend: 0x0, symName: '__ZNSt3__19allocatorIZ21test_serial_executionvE3$_1EC1B8ue170006INS_10__function6__funcIS1_S2_FvvEEEEERKNS0_IT_EE', symObjAddr: 0xC990, symBinAddr: 0x10001CCF8, symSize: 0x34 }
  - { offsetInCU: 0x6EF94, offset: 0x8EB96, size: 0x8, addend: 0x0, symName: '__ZNSt3__110__function6__funcIZ21test_serial_executionvE3$_1NS_9allocatorIS2_EEFvvEEC1B8ue170006ERKS2_OS4_', symObjAddr: 0xC9C4, symBinAddr: 0x10001CD2C, symSize: 0x3C }
  - { offsetInCU: 0x6EFDC, offset: 0x8EBDE, size: 0x8, addend: 0x0, symName: '__ZNSt3__110unique_ptrINS_10__function6__funcIZ21test_serial_executionvE3$_1NS_9allocatorIS3_EEFvvEEENS_22__allocator_destructorINS4_IS7_EEEEE7releaseB8ue170006Ev', symObjAddr: 0xCA00, symBinAddr: 0x10001CD68, symSize: 0x44 }
  - { offsetInCU: 0x6F012, offset: 0x8EC14, size: 0x8, addend: 0x0, symName: '__ZNSt3__110unique_ptrINS_10__function6__funcIZ21test_serial_executionvE3$_1NS_9allocatorIS3_EEFvvEEENS_22__allocator_destructorINS4_IS7_EEEEED1B8ue170006Ev', symObjAddr: 0xCA44, symBinAddr: 0x10001CDAC, symSize: 0x2C }
  - { offsetInCU: 0x6F03C, offset: 0x8EC3E, size: 0x8, addend: 0x0, symName: '__ZNKSt3__117__compressed_pairIZ21test_serial_executionvE3$_1NS_9allocatorIS1_EEE6secondB8ue170006Ev', symObjAddr: 0xCA70, symBinAddr: 0x10001CDD8, symSize: 0x24 }
  - { offsetInCU: 0x6F062, offset: 0x8EC64, size: 0x8, addend: 0x0, symName: '__ZNKSt3__122__compressed_pair_elemINS_9allocatorIZ21test_serial_executionvE3$_1EELi1ELb1EE5__getB8ue170006Ev', symObjAddr: 0xCA94, symBinAddr: 0x10001CDFC, symSize: 0x14 }
  - { offsetInCU: 0x6F088, offset: 0x8EC8A, size: 0x8, addend: 0x0, symName: '__ZNSt3__110unique_ptrINS_10__function6__funcIZ21test_serial_executionvE3$_1NS_9allocatorIS3_EEFvvEEENS_22__allocator_destructorINS4_IS7_EEEEEC2B8ue170006ILb1EvEEPS7_NS_16__dependent_typeINS_27__unique_ptr_deleter_sfinaeISA_EEXT_EE20__good_rval_ref_typeE', symObjAddr: 0xCAA8, symBinAddr: 0x10001CE10, symSize: 0x48 }
  - { offsetInCU: 0x6F0D9, offset: 0x8ECDB, size: 0x8, addend: 0x0, symName: '__ZNKSt3__117__compressed_pairIZ21test_serial_executionvE3$_1NS_9allocatorIS1_EEE5firstB8ue170006Ev', symObjAddr: 0xCAF0, symBinAddr: 0x10001CE58, symSize: 0x24 }
  - { offsetInCU: 0x6F0FF, offset: 0x8ED01, size: 0x8, addend: 0x0, symName: '__ZNKSt3__122__compressed_pair_elemIZ21test_serial_executionvE3$_1Li0ELb0EE5__getB8ue170006Ev', symObjAddr: 0xCB14, symBinAddr: 0x10001CE7C, symSize: 0x14 }
  - { offsetInCU: 0x6F125, offset: 0x8ED27, size: 0x8, addend: 0x0, symName: '__ZNSt3__19allocatorIZ21test_serial_executionvE3$_1EC2B8ue170006INS_10__function6__funcIS1_S2_FvvEEEEERKNS0_IT_EE', symObjAddr: 0xCB28, symBinAddr: 0x10001CE90, symSize: 0x30 }
  - { offsetInCU: 0x6F163, offset: 0x8ED65, size: 0x8, addend: 0x0, symName: '__ZNSt3__110__function6__funcIZ21test_serial_executionvE3$_1NS_9allocatorIS2_EEFvvEEC2B8ue170006ERKS2_OS4_', symObjAddr: 0xCB58, symBinAddr: 0x10001CEC0, symSize: 0x88 }
  - { offsetInCU: 0x6F1AB, offset: 0x8EDAD, size: 0x8, addend: 0x0, symName: '__ZNSt3__110__function12__alloc_funcIZ21test_serial_executionvE3$_1NS_9allocatorIS2_EEFvvEEC1B8ue170006ERKS2_OS4_', symObjAddr: 0xCBE0, symBinAddr: 0x10001CF48, symSize: 0x3C }
  - { offsetInCU: 0x6F1F1, offset: 0x8EDF3, size: 0x8, addend: 0x0, symName: '__ZNSt3__110__function12__alloc_funcIZ21test_serial_executionvE3$_1NS_9allocatorIS2_EEFvvEEC2B8ue170006ERKS2_OS4_', symObjAddr: 0xCC1C, symBinAddr: 0x10001CF84, symSize: 0x5C }
  - { offsetInCU: 0x6F237, offset: 0x8EE39, size: 0x8, addend: 0x0, symName: '__ZNSt3__117__compressed_pairIZ21test_serial_executionvE3$_1NS_9allocatorIS1_EEEC1B8ue170006IJRKS1_EJOS3_EEENS_21piecewise_construct_tENS_5tupleIJDpT_EEENSA_IJDpT0_EEE', symObjAddr: 0xCCA4, symBinAddr: 0x10001D00C, symSize: 0x3C }
  - { offsetInCU: 0x6F2A1, offset: 0x8EEA3, size: 0x8, addend: 0x0, symName: '__ZNSt3__15tupleIJRKZ21test_serial_executionvE3$_1EEC1B8ue170006INS_4_AndELi0EEES3_', symObjAddr: 0xCCE0, symBinAddr: 0x10001D048, symSize: 0x34 }
  - { offsetInCU: 0x6F2EA, offset: 0x8EEEC, size: 0x8, addend: 0x0, symName: '__ZNSt3__15tupleIJRKZ21test_serial_executionvE3$_1EEC2B8ue170006INS_4_AndELi0EEES3_', symObjAddr: 0xCD14, symBinAddr: 0x10001D07C, symSize: 0x34 }
  - { offsetInCU: 0x6F333, offset: 0x8EF35, size: 0x8, addend: 0x0, symName: '__ZNSt3__112__tuple_implINS_15__tuple_indicesIJLm0EEEEJRKZ21test_serial_executionvE3$_1EEC1B8ue170006IJLm0EEJS5_EJEJEJS5_EEENS1_IJXspT_EEEENS_13__tuple_typesIJDpT0_EEENS1_IJXspT1_EEEENS9_IJDpT2_EEEDpOT3_', symObjAddr: 0xCD48, symBinAddr: 0x10001D0B0, symSize: 0x34 }
  - { offsetInCU: 0x6F3C8, offset: 0x8EFCA, size: 0x8, addend: 0x0, symName: '__ZNSt3__112__tuple_implINS_15__tuple_indicesIJLm0EEEEJRKZ21test_serial_executionvE3$_1EEC2B8ue170006IJLm0EEJS5_EJEJEJS5_EEENS1_IJXspT_EEEENS_13__tuple_typesIJDpT0_EEENS1_IJXspT1_EEEENS9_IJDpT2_EEEDpOT3_', symObjAddr: 0xCD7C, symBinAddr: 0x10001D0E4, symSize: 0x34 }
  - { offsetInCU: 0x6F45D, offset: 0x8F05F, size: 0x8, addend: 0x0, symName: '__ZNSt3__112__tuple_leafILm0ERKZ21test_serial_executionvE3$_1Lb0EEC2B8ue170006IS3_vEEOT_', symObjAddr: 0xCDB0, symBinAddr: 0x10001D118, symSize: 0x20 }
  - { offsetInCU: 0x6F4A0, offset: 0x8F0A2, size: 0x8, addend: 0x0, symName: '__ZNSt3__117__compressed_pairIZ21test_serial_executionvE3$_1NS_9allocatorIS1_EEEC2B8ue170006IJRKS1_EJOS3_EEENS_21piecewise_construct_tENS_5tupleIJDpT_EEENSA_IJDpT0_EEE', symObjAddr: 0xCDD0, symBinAddr: 0x10001D138, symSize: 0x54 }
  - { offsetInCU: 0x6F50A, offset: 0x8F10C, size: 0x8, addend: 0x0, symName: '__ZNSt3__122__compressed_pair_elemIZ21test_serial_executionvE3$_1Li0ELb0EEC2B8ue170006IJRKS1_EJLm0EEEENS_21piecewise_construct_tENS_5tupleIJDpT_EEENS_15__tuple_indicesIJXspT0_EEEE', symObjAddr: 0xCE24, symBinAddr: 0x10001D18C, symSize: 0x4C }
  - { offsetInCU: 0x6F56F, offset: 0x8F171, size: 0x8, addend: 0x0, symName: '__ZNSt3__112__tuple_leafILm0ERKZ21test_serial_executionvE3$_1Lb0EE3getB8ue170006Ev', symObjAddr: 0xCE94, symBinAddr: 0x10001D1FC, symSize: 0x18 }
  - { offsetInCU: 0x6F595, offset: 0x8F197, size: 0x8, addend: 0x0, symName: '__ZNSt3__117__compressed_pairIPNS_10__function6__funcIZ21test_serial_executionvE3$_1NS_9allocatorIS3_EEFvvEEENS_22__allocator_destructorINS4_IS7_EEEEE5firstB8ue170006Ev', symObjAddr: 0xCEAC, symBinAddr: 0x10001D214, symSize: 0x24 }
  - { offsetInCU: 0x6F5BB, offset: 0x8F1BD, size: 0x8, addend: 0x0, symName: '__ZNSt3__122__compressed_pair_elemIPNS_10__function6__funcIZ21test_serial_executionvE3$_1NS_9allocatorIS3_EEFvvEEELi0ELb0EE5__getB8ue170006Ev', symObjAddr: 0xCED0, symBinAddr: 0x10001D238, symSize: 0x14 }
  - { offsetInCU: 0x6F5E1, offset: 0x8F1E3, size: 0x8, addend: 0x0, symName: '__ZNSt3__110unique_ptrINS_10__function6__funcIZ21test_serial_executionvE3$_1NS_9allocatorIS3_EEFvvEEENS_22__allocator_destructorINS4_IS7_EEEEED2B8ue170006Ev', symObjAddr: 0xCEE4, symBinAddr: 0x10001D24C, symSize: 0x30 }
  - { offsetInCU: 0x6F60B, offset: 0x8F20D, size: 0x8, addend: 0x0, symName: '__ZNSt3__110unique_ptrINS_10__function6__funcIZ21test_serial_executionvE3$_1NS_9allocatorIS3_EEFvvEEENS_22__allocator_destructorINS4_IS7_EEEEE5resetB8ue170006EPS7_', symObjAddr: 0xCF14, symBinAddr: 0x10001D27C, symSize: 0x78 }
  - { offsetInCU: 0x6F650, offset: 0x8F252, size: 0x8, addend: 0x0, symName: '__ZNSt3__117__compressed_pairIPNS_10__function6__funcIZ21test_serial_executionvE3$_1NS_9allocatorIS3_EEFvvEEENS_22__allocator_destructorINS4_IS7_EEEEE6secondB8ue170006Ev', symObjAddr: 0xCF8C, symBinAddr: 0x10001D2F4, symSize: 0x28 }
  - { offsetInCU: 0x6F676, offset: 0x8F278, size: 0x8, addend: 0x0, symName: '__ZNSt3__122__allocator_destructorINS_9allocatorINS_10__function6__funcIZ21test_serial_executionvE3$_1NS1_IS4_EEFvvEEEEEEclB8ue170006EPS7_', symObjAddr: 0xCFB4, symBinAddr: 0x10001D31C, symSize: 0x34 }
  - { offsetInCU: 0x6F6AA, offset: 0x8F2AC, size: 0x8, addend: 0x0, symName: '__ZNSt3__122__compressed_pair_elemINS_22__allocator_destructorINS_9allocatorINS_10__function6__funcIZ21test_serial_executionvE3$_1NS2_IS5_EEFvvEEEEEEELi1ELb0EE5__getB8ue170006Ev', symObjAddr: 0xCFE8, symBinAddr: 0x10001D350, symSize: 0x14 }
  - { offsetInCU: 0x6F6D0, offset: 0x8F2D2, size: 0x8, addend: 0x0, symName: '__ZNSt3__116allocator_traitsINS_9allocatorINS_10__function6__funcIZ21test_serial_executionvE3$_1NS1_IS4_EEFvvEEEEEE10deallocateB8ue170006ERS8_PS7_m', symObjAddr: 0xCFFC, symBinAddr: 0x10001D364, symSize: 0x34 }
  - { offsetInCU: 0x6F712, offset: 0x8F314, size: 0x8, addend: 0x0, symName: '__ZNSt3__19allocatorINS_10__function6__funcIZ21test_serial_executionvE3$_1NS0_IS3_EEFvvEEEE10deallocateB8ue170006EPS6_m', symObjAddr: 0xD030, symBinAddr: 0x10001D398, symSize: 0x40 }
  - { offsetInCU: 0x6F754, offset: 0x8F356, size: 0x8, addend: 0x0, symName: '__ZNSt3__110__function6__funcIZ21test_serial_executionvE3$_1NS_9allocatorIS2_EEFvvEEC1B8ue170006ERKS2_RKS4_', symObjAddr: 0xD070, symBinAddr: 0x10001D3D8, symSize: 0x3C }
  - { offsetInCU: 0x6F79C, offset: 0x8F39E, size: 0x8, addend: 0x0, symName: '__ZNSt3__110__function6__funcIZ21test_serial_executionvE3$_1NS_9allocatorIS2_EEFvvEEC2B8ue170006ERKS2_RKS4_', symObjAddr: 0xD0AC, symBinAddr: 0x10001D414, symSize: 0x88 }
  - { offsetInCU: 0x6F7E4, offset: 0x8F3E6, size: 0x8, addend: 0x0, symName: '__ZNSt3__110__function12__alloc_funcIZ21test_serial_executionvE3$_1NS_9allocatorIS2_EEFvvEEC1B8ue170006ERKS2_RKS4_', symObjAddr: 0xD134, symBinAddr: 0x10001D49C, symSize: 0x3C }
  - { offsetInCU: 0x6F82A, offset: 0x8F42C, size: 0x8, addend: 0x0, symName: '__ZNSt3__110__function12__alloc_funcIZ21test_serial_executionvE3$_1NS_9allocatorIS2_EEFvvEEC2B8ue170006ERKS2_RKS4_', symObjAddr: 0xD170, symBinAddr: 0x10001D4D8, symSize: 0x5C }
  - { offsetInCU: 0x6F870, offset: 0x8F472, size: 0x8, addend: 0x0, symName: '__ZNSt3__117__compressed_pairIZ21test_serial_executionvE3$_1NS_9allocatorIS1_EEEC1B8ue170006IJRKS1_EJRKS3_EEENS_21piecewise_construct_tENS_5tupleIJDpT_EEENSB_IJDpT0_EEE', symObjAddr: 0xD1F8, symBinAddr: 0x10001D560, symSize: 0x3C }
  - { offsetInCU: 0x6F8DA, offset: 0x8F4DC, size: 0x8, addend: 0x0, symName: '__ZNSt3__15tupleIJRKNS_9allocatorIZ21test_serial_executionvE3$_1EEEEC1B8ue170006INS_4_AndELi0EEES5_', symObjAddr: 0xD234, symBinAddr: 0x10001D59C, symSize: 0x34 }
  - { offsetInCU: 0x6F923, offset: 0x8F525, size: 0x8, addend: 0x0, symName: '__ZNSt3__15tupleIJRKNS_9allocatorIZ21test_serial_executionvE3$_1EEEEC2B8ue170006INS_4_AndELi0EEES5_', symObjAddr: 0xD268, symBinAddr: 0x10001D5D0, symSize: 0x34 }
  - { offsetInCU: 0x6F96C, offset: 0x8F56E, size: 0x8, addend: 0x0, symName: '__ZNSt3__112__tuple_implINS_15__tuple_indicesIJLm0EEEEJRKNS_9allocatorIZ21test_serial_executionvE3$_1EEEEC1B8ue170006IJLm0EEJS7_EJEJEJS7_EEENS1_IJXspT_EEEENS_13__tuple_typesIJDpT0_EEENS1_IJXspT1_EEEENSB_IJDpT2_EEEDpOT3_', symObjAddr: 0xD29C, symBinAddr: 0x10001D604, symSize: 0x34 }
  - { offsetInCU: 0x6FA01, offset: 0x8F603, size: 0x8, addend: 0x0, symName: '__ZNSt3__112__tuple_implINS_15__tuple_indicesIJLm0EEEEJRKNS_9allocatorIZ21test_serial_executionvE3$_1EEEEC2B8ue170006IJLm0EEJS7_EJEJEJS7_EEENS1_IJXspT_EEEENS_13__tuple_typesIJDpT0_EEENS1_IJXspT1_EEEENSB_IJDpT2_EEEDpOT3_', symObjAddr: 0xD2D0, symBinAddr: 0x10001D638, symSize: 0x34 }
  - { offsetInCU: 0x6FA96, offset: 0x8F698, size: 0x8, addend: 0x0, symName: '__ZNSt3__112__tuple_leafILm0ERKNS_9allocatorIZ21test_serial_executionvE3$_1EELb0EEC2B8ue170006IS5_vEEOT_', symObjAddr: 0xD304, symBinAddr: 0x10001D66C, symSize: 0x20 }
  - { offsetInCU: 0x6FAD9, offset: 0x8F6DB, size: 0x8, addend: 0x0, symName: '__ZNSt3__117__compressed_pairIZ21test_serial_executionvE3$_1NS_9allocatorIS1_EEEC2B8ue170006IJRKS1_EJRKS3_EEENS_21piecewise_construct_tENS_5tupleIJDpT_EEENSB_IJDpT0_EEE', symObjAddr: 0xD324, symBinAddr: 0x10001D68C, symSize: 0x54 }
  - { offsetInCU: 0x6FB43, offset: 0x8F745, size: 0x8, addend: 0x0, symName: '__ZNSt3__122__compressed_pair_elemINS_9allocatorIZ21test_serial_executionvE3$_1EELi1ELb1EEC2B8ue170006IJRKS3_EJLm0EEEENS_21piecewise_construct_tENS_5tupleIJDpT_EEENS_15__tuple_indicesIJXspT0_EEEE', symObjAddr: 0xD378, symBinAddr: 0x10001D6E0, symSize: 0x38 }
  - { offsetInCU: 0x6FBA8, offset: 0x8F7AA, size: 0x8, addend: 0x0, symName: '__ZNSt3__112__tuple_leafILm0ERKNS_9allocatorIZ21test_serial_executionvE3$_1EELb0EE3getB8ue170006Ev', symObjAddr: 0xD3D4, symBinAddr: 0x10001D73C, symSize: 0x18 }
  - { offsetInCU: 0x6FBCE, offset: 0x8F7D0, size: 0x8, addend: 0x0, symName: '__ZNSt3__110__function12__alloc_funcIZ21test_serial_executionvE3$_1NS_9allocatorIS2_EEFvvEE7destroyB8ue170006Ev', symObjAddr: 0xD3EC, symBinAddr: 0x10001D754, symSize: 0x10 }
  - { offsetInCU: 0x6FBF4, offset: 0x8F7F6, size: 0x8, addend: 0x0, symName: '__ZNSt3__110__function12__alloc_funcIZ21test_serial_executionvE3$_1NS_9allocatorIS2_EEFvvEEclB8ue170006Ev', symObjAddr: 0xD3FC, symBinAddr: 0x10001D764, symSize: 0x28 }
  - { offsetInCU: 0x6FC1A, offset: 0x8F81C, size: 0x8, addend: 0x0, symName: '__ZNSt3__128__invoke_void_return_wrapperIvLb1EE6__callB8ue170006IJRZ21test_serial_executionvE3$_1EEEvDpOT_', symObjAddr: 0xD424, symBinAddr: 0x10001D78C, symSize: 0x24 }
  - { offsetInCU: 0x6FC49, offset: 0x8F84B, size: 0x8, addend: 0x0, symName: '__ZNSt3__117__compressed_pairIZ21test_serial_executionvE3$_1NS_9allocatorIS1_EEE5firstB8ue170006Ev', symObjAddr: 0xD448, symBinAddr: 0x10001D7B0, symSize: 0x24 }
  - { offsetInCU: 0x6FC6F, offset: 0x8F871, size: 0x8, addend: 0x0, symName: '__ZZ21test_serial_executionvENK3$_1clEv', symObjAddr: 0xD490, symBinAddr: 0x10001D7F8, symSize: 0x88 }
  - { offsetInCU: 0x6FCA7, offset: 0x8F8A9, size: 0x8, addend: 0x0, symName: '__ZNSt3__122__compressed_pair_elemIZ21test_serial_executionvE3$_1Li0ELb0EE5__getB8ue170006Ev', symObjAddr: 0xD518, symBinAddr: 0x10001D880, symSize: 0x14 }
  - { offsetInCU: 0x6FCCD, offset: 0x8F8CF, size: 0x8, addend: 0x0, symName: '__ZNSt3__110unique_ptrINS_10__function6__baseIFvvEEENS_22__allocator_destructorINS_9allocatorINS1_6__funcIZ21test_serial_executionvE3$_1NS6_IS8_EES3_EEEEEEED2B8ue170006Ev', symObjAddr: 0xD52C, symBinAddr: 0x10001D894, symSize: 0x30 }
  - { offsetInCU: 0x6FCF7, offset: 0x8F8F9, size: 0x8, addend: 0x0, symName: '__ZNSt3__110unique_ptrINS_10__function6__baseIFvvEEENS_22__allocator_destructorINS_9allocatorINS1_6__funcIZ21test_serial_executionvE3$_1NS6_IS8_EES3_EEEEEEE5resetB8ue170006EPSA_', symObjAddr: 0xD55C, symBinAddr: 0x10001D8C4, symSize: 0x78 }
  - { offsetInCU: 0x6FD3C, offset: 0x8F93E, size: 0x8, addend: 0x0, symName: __ZNKSt3__112basic_stringIcNS_11char_traitsIcEENS_9allocatorIcEEE4sizeB8ue170006Ev, symObjAddr: 0xD5D4, symBinAddr: 0x10001D93C, symSize: 0x54 }
  - { offsetInCU: 0x6FD62, offset: 0x8F964, size: 0x8, addend: 0x0, symName: __ZNKSt3__112basic_stringIcNS_11char_traitsIcEENS_9allocatorIcEEE15__get_long_sizeB8ue170006Ev, symObjAddr: 0xD628, symBinAddr: 0x10001D990, symSize: 0x28 }
  - { offsetInCU: 0x6FD88, offset: 0x8F98A, size: 0x8, addend: 0x0, symName: __ZNKSt3__112basic_stringIcNS_11char_traitsIcEENS_9allocatorIcEEE16__get_short_sizeB8ue170006Ev, symObjAddr: 0xD650, symBinAddr: 0x10001D9B8, symSize: 0x34 }
  - { offsetInCU: 0x6FDAE, offset: 0x8F9B0, size: 0x8, addend: 0x0, symName: __ZNSt3__16vectorIiNS_9allocatorIiEEEC2B8ue170006Ev, symObjAddr: 0xD684, symBinAddr: 0x10001D9EC, symSize: 0x4C }
  - { offsetInCU: 0x6FDD8, offset: 0x8F9DA, size: 0x8, addend: 0x0, symName: '__ZNSt3__18functionIFvvEEC2IZ23test_fifo_single_threadvE3$_2vEET_', symObjAddr: 0xD6D0, symBinAddr: 0x10001DA38, symSize: 0x34 }
  - { offsetInCU: 0x6FE1E, offset: 0x8FA20, size: 0x8, addend: 0x0, symName: '__ZNSt3__110__function12__value_funcIFvvEEC1B8ue170006IZ23test_fifo_single_threadvE3$_2vEEOT_', symObjAddr: 0xD704, symBinAddr: 0x10001DA6C, symSize: 0x50 }
  - { offsetInCU: 0x6FE61, offset: 0x8FA63, size: 0x8, addend: 0x0, symName: '__ZNSt3__19allocatorIZ23test_fifo_single_threadvE3$_2EC1B8ue170006Ev', symObjAddr: 0xD754, symBinAddr: 0x10001DABC, symSize: 0x2C }
  - { offsetInCU: 0x6FE8B, offset: 0x8FA8D, size: 0x8, addend: 0x0, symName: '__ZNSt3__110__function12__value_funcIFvvEEC1B8ue170006IZ23test_fifo_single_threadvE3$_2NS_9allocatorIS5_EEEEOT_RKT0_', symObjAddr: 0xD780, symBinAddr: 0x10001DAE8, symSize: 0x3C }
  - { offsetInCU: 0x6FEE5, offset: 0x8FAE7, size: 0x8, addend: 0x0, symName: '__ZNSt3__19allocatorIZ23test_fifo_single_threadvE3$_2EC2B8ue170006Ev', symObjAddr: 0xD7BC, symBinAddr: 0x10001DB24, symSize: 0x2C }
  - { offsetInCU: 0x6FF0F, offset: 0x8FB11, size: 0x8, addend: 0x0, symName: '__ZNSt3__116__non_trivial_ifILb1ENS_9allocatorIZ23test_fifo_single_threadvE3$_2EEEC2B8ue170006Ev', symObjAddr: 0xD7E8, symBinAddr: 0x10001DB50, symSize: 0x14 }
  - { offsetInCU: 0x6FF39, offset: 0x8FB3B, size: 0x8, addend: 0x0, symName: '__ZNSt3__110__function12__value_funcIFvvEEC2B8ue170006IZ23test_fifo_single_threadvE3$_2NS_9allocatorIS5_EEEEOT_RKT0_', symObjAddr: 0xD7FC, symBinAddr: 0x10001DB64, symSize: 0xF4 }
  - { offsetInCU: 0x6FFF6, offset: 0x8FBF8, size: 0x8, addend: 0x0, symName: '__ZNSt3__19allocatorINS_10__function6__funcIZ23test_fifo_single_threadvE3$_2NS0_IS3_EEFvvEEEEC1B8ue170006IS3_EERKNS0_IT_EE', symObjAddr: 0xD908, symBinAddr: 0x10001DC70, symSize: 0x34 }
  - { offsetInCU: 0x70034, offset: 0x8FC36, size: 0x8, addend: 0x0, symName: '__ZNSt3__19allocatorINS_10__function6__funcIZ23test_fifo_single_threadvE3$_2NS0_IS3_EEFvvEEEE8allocateB8ue170006Em', symObjAddr: 0xD93C, symBinAddr: 0x10001DCA4, symSize: 0x58 }
  - { offsetInCU: 0x7007A, offset: 0x8FC7C, size: 0x8, addend: 0x0, symName: '__ZNSt3__122__allocator_destructorINS_9allocatorINS_10__function6__funcIZ23test_fifo_single_threadvE3$_2NS1_IS4_EEFvvEEEEEEC1B8ue170006ERS8_m', symObjAddr: 0xD994, symBinAddr: 0x10001DCFC, symSize: 0x3C }
  - { offsetInCU: 0x70161, offset: 0x8FD63, size: 0x8, addend: 0x0, symName: '__ZNSt3__110unique_ptrINS_10__function6__baseIFvvEEENS_22__allocator_destructorINS_9allocatorINS1_6__funcIZ23test_fifo_single_threadvE3$_2NS6_IS8_EES3_EEEEEEEC1B8ue170006ILb1EvEEPSA_NS_16__dependent_typeINS_27__unique_ptr_deleter_sfinaeISC_EEXT_EE20__good_rval_ref_typeE', symObjAddr: 0xD9D0, symBinAddr: 0x10001DD38, symSize: 0x3C }
  - { offsetInCU: 0x701B2, offset: 0x8FDB4, size: 0x8, addend: 0x0, symName: '__ZNKSt3__110unique_ptrINS_10__function6__baseIFvvEEENS_22__allocator_destructorINS_9allocatorINS1_6__funcIZ23test_fifo_single_threadvE3$_2NS6_IS8_EES3_EEEEEEE3getB8ue170006Ev', symObjAddr: 0xDA0C, symBinAddr: 0x10001DD74, symSize: 0x28 }
  - { offsetInCU: 0x701D8, offset: 0x8FDDA, size: 0x8, addend: 0x0, symName: '__ZNSt3__110__function6__funcIZ23test_fifo_single_threadvE3$_2NS_9allocatorIS2_EEFvvEEC1B8ue170006EOS2_OS4_', symObjAddr: 0xDA34, symBinAddr: 0x10001DD9C, symSize: 0x3C }
  - { offsetInCU: 0x70220, offset: 0x8FE22, size: 0x8, addend: 0x0, symName: '__ZNSt3__110unique_ptrINS_10__function6__baseIFvvEEENS_22__allocator_destructorINS_9allocatorINS1_6__funcIZ23test_fifo_single_threadvE3$_2NS6_IS8_EES3_EEEEEEE7releaseB8ue170006Ev', symObjAddr: 0xDA70, symBinAddr: 0x10001DDD8, symSize: 0x44 }
  - { offsetInCU: 0x70256, offset: 0x8FE58, size: 0x8, addend: 0x0, symName: '__ZNSt3__110unique_ptrINS_10__function6__baseIFvvEEENS_22__allocator_destructorINS_9allocatorINS1_6__funcIZ23test_fifo_single_threadvE3$_2NS6_IS8_EES3_EEEEEEED1B8ue170006Ev', symObjAddr: 0xDAB4, symBinAddr: 0x10001DE1C, symSize: 0x2C }
  - { offsetInCU: 0x70280, offset: 0x8FE82, size: 0x8, addend: 0x0, symName: '__ZNSt3__19allocatorINS_10__function6__funcIZ23test_fifo_single_threadvE3$_2NS0_IS3_EEFvvEEEEC2B8ue170006IS3_EERKNS0_IT_EE', symObjAddr: 0xDAE0, symBinAddr: 0x10001DE48, symSize: 0x30 }
  - { offsetInCU: 0x702BE, offset: 0x8FEC0, size: 0x8, addend: 0x0, symName: '__ZNSt3__116__non_trivial_ifILb1ENS_9allocatorINS_10__function6__funcIZ23test_fifo_single_threadvE3$_2NS1_IS4_EEFvvEEEEEEC2B8ue170006Ev', symObjAddr: 0xDB10, symBinAddr: 0x10001DE78, symSize: 0x14 }
  - { offsetInCU: 0x702F3, offset: 0x8FEF5, size: 0x8, addend: 0x0, symName: '__ZNSt3__116allocator_traitsINS_9allocatorINS_10__function6__funcIZ23test_fifo_single_threadvE3$_2NS1_IS4_EEFvvEEEEEE8max_sizeB8ue170006IS8_vEEmRKS8_', symObjAddr: 0xDB24, symBinAddr: 0x10001DE8C, symSize: 0x24 }
  - { offsetInCU: 0x70321, offset: 0x8FF23, size: 0x8, addend: 0x0, symName: '__ZNKSt3__19allocatorINS_10__function6__funcIZ23test_fifo_single_threadvE3$_2NS0_IS3_EEFvvEEEE8max_sizeB8ue170006Ev', symObjAddr: 0xDB48, symBinAddr: 0x10001DEB0, symSize: 0x14 }
  - { offsetInCU: 0x70347, offset: 0x8FF49, size: 0x8, addend: 0x0, symName: '__ZNSt3__122__allocator_destructorINS_9allocatorINS_10__function6__funcIZ23test_fifo_single_threadvE3$_2NS1_IS4_EEFvvEEEEEEC2B8ue170006ERS8_m', symObjAddr: 0xDB5C, symBinAddr: 0x10001DEC4, symSize: 0x2C }
  - { offsetInCU: 0x7038D, offset: 0x8FF8F, size: 0x8, addend: 0x0, symName: '__ZNSt3__110unique_ptrINS_10__function6__baseIFvvEEENS_22__allocator_destructorINS_9allocatorINS1_6__funcIZ23test_fifo_single_threadvE3$_2NS6_IS8_EES3_EEEEEEEC2B8ue170006ILb1EvEEPSA_NS_16__dependent_typeINS_27__unique_ptr_deleter_sfinaeISC_EEXT_EE20__good_rval_ref_typeE', symObjAddr: 0xDB88, symBinAddr: 0x10001DEF0, symSize: 0x48 }
  - { offsetInCU: 0x703DE, offset: 0x8FFE0, size: 0x8, addend: 0x0, symName: '__ZNSt3__117__compressed_pairIPNS_10__function6__funcIZ23test_fifo_single_threadvE3$_2NS_9allocatorIS3_EEFvvEEENS_22__allocator_destructorINS4_IS7_EEEEEC1B8ue170006IRS8_SB_EEOT_OT0_', symObjAddr: 0xDBD0, symBinAddr: 0x10001DF38, symSize: 0x3C }
  - { offsetInCU: 0x70436, offset: 0x90038, size: 0x8, addend: 0x0, symName: '__ZNSt3__117__compressed_pairIPNS_10__function6__funcIZ23test_fifo_single_threadvE3$_2NS_9allocatorIS3_EEFvvEEENS_22__allocator_destructorINS4_IS7_EEEEEC2B8ue170006IRS8_SB_EEOT_OT0_', symObjAddr: 0xDC0C, symBinAddr: 0x10001DF74, symSize: 0x48 }
  - { offsetInCU: 0x7048E, offset: 0x90090, size: 0x8, addend: 0x0, symName: '__ZNSt3__122__compressed_pair_elemIPNS_10__function6__funcIZ23test_fifo_single_threadvE3$_2NS_9allocatorIS3_EEFvvEEELi0ELb0EEC2B8ue170006IRS8_vEEOT_', symObjAddr: 0xDC54, symBinAddr: 0x10001DFBC, symSize: 0x24 }
  - { offsetInCU: 0x704D0, offset: 0x900D2, size: 0x8, addend: 0x0, symName: '__ZNSt3__122__compressed_pair_elemINS_22__allocator_destructorINS_9allocatorINS_10__function6__funcIZ23test_fifo_single_threadvE3$_2NS2_IS5_EEFvvEEEEEEELi1ELb0EEC2B8ue170006ISA_vEEOT_', symObjAddr: 0xDC78, symBinAddr: 0x10001DFE0, symSize: 0x24 }
  - { offsetInCU: 0x70512, offset: 0x90114, size: 0x8, addend: 0x0, symName: '__ZNKSt3__117__compressed_pairIPNS_10__function6__funcIZ23test_fifo_single_threadvE3$_2NS_9allocatorIS3_EEFvvEEENS_22__allocator_destructorINS4_IS7_EEEEE5firstB8ue170006Ev', symObjAddr: 0xDC9C, symBinAddr: 0x10001E004, symSize: 0x24 }
  - { offsetInCU: 0x70538, offset: 0x9013A, size: 0x8, addend: 0x0, symName: '__ZNKSt3__122__compressed_pair_elemIPNS_10__function6__funcIZ23test_fifo_single_threadvE3$_2NS_9allocatorIS3_EEFvvEEELi0ELb0EE5__getB8ue170006Ev', symObjAddr: 0xDCC0, symBinAddr: 0x10001E028, symSize: 0x14 }
  - { offsetInCU: 0x7055E, offset: 0x90160, size: 0x8, addend: 0x0, symName: '__ZNSt3__110__function6__funcIZ23test_fifo_single_threadvE3$_2NS_9allocatorIS2_EEFvvEEC2B8ue170006EOS2_OS4_', symObjAddr: 0xDCD4, symBinAddr: 0x10001E03C, symSize: 0x88 }
  - { offsetInCU: 0x705A6, offset: 0x901A8, size: 0x8, addend: 0x0, symName: '__ZNSt3__110__function12__alloc_funcIZ23test_fifo_single_threadvE3$_2NS_9allocatorIS2_EEFvvEEC1B8ue170006EOS2_OS4_', symObjAddr: 0xDD5C, symBinAddr: 0x10001E0C4, symSize: 0x3C }
  - { offsetInCU: 0x705EC, offset: 0x901EE, size: 0x8, addend: 0x0, symName: '__ZNSt3__110__function6__funcIZ23test_fifo_single_threadvE3$_2NS_9allocatorIS2_EEFvvEED1Ev', symObjAddr: 0xDD98, symBinAddr: 0x10001E100, symSize: 0x2C }
  - { offsetInCU: 0x70619, offset: 0x9021B, size: 0x8, addend: 0x0, symName: '__ZNSt3__110__function6__funcIZ23test_fifo_single_threadvE3$_2NS_9allocatorIS2_EEFvvEED0Ev', symObjAddr: 0xDDC4, symBinAddr: 0x10001E12C, symSize: 0x30 }
  - { offsetInCU: 0x70646, offset: 0x90248, size: 0x8, addend: 0x0, symName: '__ZNKSt3__110__function6__funcIZ23test_fifo_single_threadvE3$_2NS_9allocatorIS2_EEFvvEE7__cloneEv', symObjAddr: 0xDDF4, symBinAddr: 0x10001E15C, symSize: 0xFC }
  - { offsetInCU: 0x7069A, offset: 0x9029C, size: 0x8, addend: 0x0, symName: '__ZNKSt3__110__function6__funcIZ23test_fifo_single_threadvE3$_2NS_9allocatorIS2_EEFvvEE7__cloneEPNS0_6__baseIS5_EE', symObjAddr: 0xDEF0, symBinAddr: 0x10001E258, symSize: 0x58 }
  - { offsetInCU: 0x706D1, offset: 0x902D3, size: 0x8, addend: 0x0, symName: '__ZNSt3__110__function6__funcIZ23test_fifo_single_threadvE3$_2NS_9allocatorIS2_EEFvvEE7destroyEv', symObjAddr: 0xDF48, symBinAddr: 0x10001E2B0, symSize: 0x28 }
  - { offsetInCU: 0x706F9, offset: 0x902FB, size: 0x8, addend: 0x0, symName: '__ZNSt3__110__function6__funcIZ23test_fifo_single_threadvE3$_2NS_9allocatorIS2_EEFvvEE18destroy_deallocateEv', symObjAddr: 0xDF70, symBinAddr: 0x10001E2D8, symSize: 0x58 }
  - { offsetInCU: 0x7073D, offset: 0x9033F, size: 0x8, addend: 0x0, symName: '__ZNSt3__110__function6__funcIZ23test_fifo_single_threadvE3$_2NS_9allocatorIS2_EEFvvEEclEv', symObjAddr: 0xDFC8, symBinAddr: 0x10001E330, symSize: 0x28 }
  - { offsetInCU: 0x70765, offset: 0x90367, size: 0x8, addend: 0x0, symName: '__ZNKSt3__110__function6__funcIZ23test_fifo_single_threadvE3$_2NS_9allocatorIS2_EEFvvEE6targetERKSt9type_info', symObjAddr: 0xDFF0, symBinAddr: 0x10001E358, symSize: 0x60 }
  - { offsetInCU: 0x7079C, offset: 0x9039E, size: 0x8, addend: 0x0, symName: '__ZNKSt3__110__function6__funcIZ23test_fifo_single_threadvE3$_2NS_9allocatorIS2_EEFvvEE11target_typeEv', symObjAddr: 0xE050, symBinAddr: 0x10001E3B8, symSize: 0x18 }
  - { offsetInCU: 0x707C4, offset: 0x903C6, size: 0x8, addend: 0x0, symName: '__ZNSt3__110__function12__alloc_funcIZ23test_fifo_single_threadvE3$_2NS_9allocatorIS2_EEFvvEEC2B8ue170006EOS2_OS4_', symObjAddr: 0xE068, symBinAddr: 0x10001E3D0, symSize: 0x5C }
  - { offsetInCU: 0x7080A, offset: 0x9040C, size: 0x8, addend: 0x0, symName: '__ZNSt3__117__compressed_pairIZ23test_fifo_single_threadvE3$_2NS_9allocatorIS1_EEEC1B8ue170006IJOS1_EJOS3_EEENS_21piecewise_construct_tENS_5tupleIJDpT_EEENS9_IJDpT0_EEE', symObjAddr: 0xE11C, symBinAddr: 0x10001E484, symSize: 0x3C }
  - { offsetInCU: 0x70874, offset: 0x90476, size: 0x8, addend: 0x0, symName: '__ZNSt3__15tupleIJOZ23test_fifo_single_threadvE3$_2EEC1B8ue170006IJS1_ELi0EEEDpOT_', symObjAddr: 0xE158, symBinAddr: 0x10001E4C0, symSize: 0x34 }
  - { offsetInCU: 0x708BE, offset: 0x904C0, size: 0x8, addend: 0x0, symName: '__ZNSt3__15tupleIJOZ23test_fifo_single_threadvE3$_2EEC2B8ue170006IJS1_ELi0EEEDpOT_', symObjAddr: 0xE18C, symBinAddr: 0x10001E4F4, symSize: 0x34 }
  - { offsetInCU: 0x70908, offset: 0x9050A, size: 0x8, addend: 0x0, symName: '__ZNSt3__112__tuple_implINS_15__tuple_indicesIJLm0EEEEJOZ23test_fifo_single_threadvE3$_2EEC1B8ue170006IJLm0EEJS4_EJEJEJS3_EEENS1_IJXspT_EEEENS_13__tuple_typesIJDpT0_EEENS1_IJXspT1_EEEENS8_IJDpT2_EEEDpOT3_', symObjAddr: 0xE1C0, symBinAddr: 0x10001E528, symSize: 0x34 }
  - { offsetInCU: 0x7099D, offset: 0x9059F, size: 0x8, addend: 0x0, symName: '__ZNSt3__112__tuple_implINS_15__tuple_indicesIJLm0EEEEJOZ23test_fifo_single_threadvE3$_2EEC2B8ue170006IJLm0EEJS4_EJEJEJS3_EEENS1_IJXspT_EEEENS_13__tuple_typesIJDpT0_EEENS1_IJXspT1_EEEENS8_IJDpT2_EEEDpOT3_', symObjAddr: 0xE1F4, symBinAddr: 0x10001E55C, symSize: 0x34 }
  - { offsetInCU: 0x70A32, offset: 0x90634, size: 0x8, addend: 0x0, symName: '__ZNSt3__112__tuple_leafILm0EOZ23test_fifo_single_threadvE3$_2Lb0EEC2B8ue170006IS1_vEEOT_', symObjAddr: 0xE228, symBinAddr: 0x10001E590, symSize: 0x20 }
  - { offsetInCU: 0x70A75, offset: 0x90677, size: 0x8, addend: 0x0, symName: '__ZNSt3__15tupleIJONS_9allocatorIZ23test_fifo_single_threadvE3$_2EEEEC1B8ue170006IJS3_ELi0EEEDpOT_', symObjAddr: 0xE248, symBinAddr: 0x10001E5B0, symSize: 0x34 }
  - { offsetInCU: 0x70ABF, offset: 0x906C1, size: 0x8, addend: 0x0, symName: '__ZNSt3__15tupleIJONS_9allocatorIZ23test_fifo_single_threadvE3$_2EEEEC2B8ue170006IJS3_ELi0EEEDpOT_', symObjAddr: 0xE27C, symBinAddr: 0x10001E5E4, symSize: 0x34 }
  - { offsetInCU: 0x70B09, offset: 0x9070B, size: 0x8, addend: 0x0, symName: '__ZNSt3__112__tuple_implINS_15__tuple_indicesIJLm0EEEEJONS_9allocatorIZ23test_fifo_single_threadvE3$_2EEEEC1B8ue170006IJLm0EEJS6_EJEJEJS5_EEENS1_IJXspT_EEEENS_13__tuple_typesIJDpT0_EEENS1_IJXspT1_EEEENSA_IJDpT2_EEEDpOT3_', symObjAddr: 0xE2B0, symBinAddr: 0x10001E618, symSize: 0x34 }
  - { offsetInCU: 0x70B9E, offset: 0x907A0, size: 0x8, addend: 0x0, symName: '__ZNSt3__112__tuple_implINS_15__tuple_indicesIJLm0EEEEJONS_9allocatorIZ23test_fifo_single_threadvE3$_2EEEEC2B8ue170006IJLm0EEJS6_EJEJEJS5_EEENS1_IJXspT_EEEENS_13__tuple_typesIJDpT0_EEENS1_IJXspT1_EEEENSA_IJDpT2_EEEDpOT3_', symObjAddr: 0xE2E4, symBinAddr: 0x10001E64C, symSize: 0x34 }
  - { offsetInCU: 0x70C33, offset: 0x90835, size: 0x8, addend: 0x0, symName: '__ZNSt3__112__tuple_leafILm0EONS_9allocatorIZ23test_fifo_single_threadvE3$_2EELb0EEC2B8ue170006IS3_vEEOT_', symObjAddr: 0xE318, symBinAddr: 0x10001E680, symSize: 0x20 }
  - { offsetInCU: 0x70C76, offset: 0x90878, size: 0x8, addend: 0x0, symName: '__ZNSt3__117__compressed_pairIZ23test_fifo_single_threadvE3$_2NS_9allocatorIS1_EEEC2B8ue170006IJOS1_EJOS3_EEENS_21piecewise_construct_tENS_5tupleIJDpT_EEENS9_IJDpT0_EEE', symObjAddr: 0xE338, symBinAddr: 0x10001E6A0, symSize: 0x54 }
  - { offsetInCU: 0x70CE0, offset: 0x908E2, size: 0x8, addend: 0x0, symName: '__ZNSt3__122__compressed_pair_elemIZ23test_fifo_single_threadvE3$_2Li0ELb0EEC2B8ue170006IJOS1_EJLm0EEEENS_21piecewise_construct_tENS_5tupleIJDpT_EEENS_15__tuple_indicesIJXspT0_EEEE', symObjAddr: 0xE38C, symBinAddr: 0x10001E6F4, symSize: 0x4C }
  - { offsetInCU: 0x70D45, offset: 0x90947, size: 0x8, addend: 0x0, symName: '__ZNSt3__122__compressed_pair_elemINS_9allocatorIZ23test_fifo_single_threadvE3$_2EELi1ELb1EEC2B8ue170006IJOS3_EJLm0EEEENS_21piecewise_construct_tENS_5tupleIJDpT_EEENS_15__tuple_indicesIJXspT0_EEEE', symObjAddr: 0xE3D8, symBinAddr: 0x10001E740, symSize: 0x38 }
  - { offsetInCU: 0x70DAA, offset: 0x909AC, size: 0x8, addend: 0x0, symName: '__ZNSt3__112__tuple_leafILm0EOZ23test_fifo_single_threadvE3$_2Lb0EE3getB8ue170006Ev', symObjAddr: 0xE434, symBinAddr: 0x10001E79C, symSize: 0x18 }
  - { offsetInCU: 0x70DD0, offset: 0x909D2, size: 0x8, addend: 0x0, symName: '__ZNSt3__112__tuple_leafILm0EONS_9allocatorIZ23test_fifo_single_threadvE3$_2EELb0EE3getB8ue170006Ev', symObjAddr: 0xE470, symBinAddr: 0x10001E7D8, symSize: 0x18 }
  - { offsetInCU: 0x70DF6, offset: 0x909F8, size: 0x8, addend: 0x0, symName: '__ZNSt3__110__function6__funcIZ23test_fifo_single_threadvE3$_2NS_9allocatorIS2_EEFvvEED2Ev', symObjAddr: 0xE488, symBinAddr: 0x10001E7F0, symSize: 0x2C }
  - { offsetInCU: 0x70E23, offset: 0x90A25, size: 0x8, addend: 0x0, symName: '__ZNKSt3__110__function12__alloc_funcIZ23test_fifo_single_threadvE3$_2NS_9allocatorIS2_EEFvvEE15__get_allocatorB8ue170006Ev', symObjAddr: 0xE4B4, symBinAddr: 0x10001E81C, symSize: 0x24 }
  - { offsetInCU: 0x70E77, offset: 0x90A79, size: 0x8, addend: 0x0, symName: '__ZNSt3__110unique_ptrINS_10__function6__funcIZ23test_fifo_single_threadvE3$_2NS_9allocatorIS3_EEFvvEEENS_22__allocator_destructorINS4_IS7_EEEEEC1B8ue170006ILb1EvEEPS7_NS_16__dependent_typeINS_27__unique_ptr_deleter_sfinaeISA_EEXT_EE20__good_rval_ref_typeE', symObjAddr: 0xE4D8, symBinAddr: 0x10001E840, symSize: 0x3C }
  - { offsetInCU: 0x70EC8, offset: 0x90ACA, size: 0x8, addend: 0x0, symName: '__ZNKSt3__110unique_ptrINS_10__function6__funcIZ23test_fifo_single_threadvE3$_2NS_9allocatorIS3_EEFvvEEENS_22__allocator_destructorINS4_IS7_EEEEE3getB8ue170006Ev', symObjAddr: 0xE514, symBinAddr: 0x10001E87C, symSize: 0x28 }
  - { offsetInCU: 0x70EEE, offset: 0x90AF0, size: 0x8, addend: 0x0, symName: '__ZNKSt3__110__function12__alloc_funcIZ23test_fifo_single_threadvE3$_2NS_9allocatorIS2_EEFvvEE8__targetB8ue170006Ev', symObjAddr: 0xE53C, symBinAddr: 0x10001E8A4, symSize: 0x24 }
  - { offsetInCU: 0x70F1A, offset: 0x90B1C, size: 0x8, addend: 0x0, symName: '__ZNSt3__19allocatorIZ23test_fifo_single_threadvE3$_2EC1B8ue170006INS_10__function6__funcIS1_S2_FvvEEEEERKNS0_IT_EE', symObjAddr: 0xE560, symBinAddr: 0x10001E8C8, symSize: 0x34 }
  - { offsetInCU: 0x70F58, offset: 0x90B5A, size: 0x8, addend: 0x0, symName: '__ZNSt3__110__function6__funcIZ23test_fifo_single_threadvE3$_2NS_9allocatorIS2_EEFvvEEC1B8ue170006ERKS2_OS4_', symObjAddr: 0xE594, symBinAddr: 0x10001E8FC, symSize: 0x3C }
  - { offsetInCU: 0x70FA0, offset: 0x90BA2, size: 0x8, addend: 0x0, symName: '__ZNSt3__110unique_ptrINS_10__function6__funcIZ23test_fifo_single_threadvE3$_2NS_9allocatorIS3_EEFvvEEENS_22__allocator_destructorINS4_IS7_EEEEE7releaseB8ue170006Ev', symObjAddr: 0xE5D0, symBinAddr: 0x10001E938, symSize: 0x44 }
  - { offsetInCU: 0x70FD6, offset: 0x90BD8, size: 0x8, addend: 0x0, symName: '__ZNSt3__110unique_ptrINS_10__function6__funcIZ23test_fifo_single_threadvE3$_2NS_9allocatorIS3_EEFvvEEENS_22__allocator_destructorINS4_IS7_EEEEED1B8ue170006Ev', symObjAddr: 0xE614, symBinAddr: 0x10001E97C, symSize: 0x2C }
  - { offsetInCU: 0x71000, offset: 0x90C02, size: 0x8, addend: 0x0, symName: '__ZNKSt3__117__compressed_pairIZ23test_fifo_single_threadvE3$_2NS_9allocatorIS1_EEE6secondB8ue170006Ev', symObjAddr: 0xE640, symBinAddr: 0x10001E9A8, symSize: 0x24 }
  - { offsetInCU: 0x71026, offset: 0x90C28, size: 0x8, addend: 0x0, symName: '__ZNKSt3__122__compressed_pair_elemINS_9allocatorIZ23test_fifo_single_threadvE3$_2EELi1ELb1EE5__getB8ue170006Ev', symObjAddr: 0xE664, symBinAddr: 0x10001E9CC, symSize: 0x14 }
  - { offsetInCU: 0x7104C, offset: 0x90C4E, size: 0x8, addend: 0x0, symName: '__ZNSt3__110unique_ptrINS_10__function6__funcIZ23test_fifo_single_threadvE3$_2NS_9allocatorIS3_EEFvvEEENS_22__allocator_destructorINS4_IS7_EEEEEC2B8ue170006ILb1EvEEPS7_NS_16__dependent_typeINS_27__unique_ptr_deleter_sfinaeISA_EEXT_EE20__good_rval_ref_typeE', symObjAddr: 0xE678, symBinAddr: 0x10001E9E0, symSize: 0x48 }
  - { offsetInCU: 0x7109D, offset: 0x90C9F, size: 0x8, addend: 0x0, symName: '__ZNKSt3__117__compressed_pairIZ23test_fifo_single_threadvE3$_2NS_9allocatorIS1_EEE5firstB8ue170006Ev', symObjAddr: 0xE6C0, symBinAddr: 0x10001EA28, symSize: 0x24 }
  - { offsetInCU: 0x710C3, offset: 0x90CC5, size: 0x8, addend: 0x0, symName: '__ZNKSt3__122__compressed_pair_elemIZ23test_fifo_single_threadvE3$_2Li0ELb0EE5__getB8ue170006Ev', symObjAddr: 0xE6E4, symBinAddr: 0x10001EA4C, symSize: 0x14 }
  - { offsetInCU: 0x710E9, offset: 0x90CEB, size: 0x8, addend: 0x0, symName: '__ZNSt3__19allocatorIZ23test_fifo_single_threadvE3$_2EC2B8ue170006INS_10__function6__funcIS1_S2_FvvEEEEERKNS0_IT_EE', symObjAddr: 0xE6F8, symBinAddr: 0x10001EA60, symSize: 0x30 }
  - { offsetInCU: 0x71127, offset: 0x90D29, size: 0x8, addend: 0x0, symName: '__ZNSt3__110__function6__funcIZ23test_fifo_single_threadvE3$_2NS_9allocatorIS2_EEFvvEEC2B8ue170006ERKS2_OS4_', symObjAddr: 0xE728, symBinAddr: 0x10001EA90, symSize: 0x88 }
  - { offsetInCU: 0x7116F, offset: 0x90D71, size: 0x8, addend: 0x0, symName: '__ZNSt3__110__function12__alloc_funcIZ23test_fifo_single_threadvE3$_2NS_9allocatorIS2_EEFvvEEC1B8ue170006ERKS2_OS4_', symObjAddr: 0xE7B0, symBinAddr: 0x10001EB18, symSize: 0x3C }
  - { offsetInCU: 0x711B5, offset: 0x90DB7, size: 0x8, addend: 0x0, symName: '__ZNSt3__110__function12__alloc_funcIZ23test_fifo_single_threadvE3$_2NS_9allocatorIS2_EEFvvEEC2B8ue170006ERKS2_OS4_', symObjAddr: 0xE7EC, symBinAddr: 0x10001EB54, symSize: 0x5C }
  - { offsetInCU: 0x711FB, offset: 0x90DFD, size: 0x8, addend: 0x0, symName: '__ZNSt3__117__compressed_pairIZ23test_fifo_single_threadvE3$_2NS_9allocatorIS1_EEEC1B8ue170006IJRKS1_EJOS3_EEENS_21piecewise_construct_tENS_5tupleIJDpT_EEENSA_IJDpT0_EEE', symObjAddr: 0xE874, symBinAddr: 0x10001EBDC, symSize: 0x3C }
  - { offsetInCU: 0x71265, offset: 0x90E67, size: 0x8, addend: 0x0, symName: '__ZNSt3__15tupleIJRKZ23test_fifo_single_threadvE3$_2EEC1B8ue170006INS_4_AndELi0EEES3_', symObjAddr: 0xE8B0, symBinAddr: 0x10001EC18, symSize: 0x34 }
  - { offsetInCU: 0x712AE, offset: 0x90EB0, size: 0x8, addend: 0x0, symName: '__ZNSt3__15tupleIJRKZ23test_fifo_single_threadvE3$_2EEC2B8ue170006INS_4_AndELi0EEES3_', symObjAddr: 0xE8E4, symBinAddr: 0x10001EC4C, symSize: 0x34 }
  - { offsetInCU: 0x712F7, offset: 0x90EF9, size: 0x8, addend: 0x0, symName: '__ZNSt3__112__tuple_implINS_15__tuple_indicesIJLm0EEEEJRKZ23test_fifo_single_threadvE3$_2EEC1B8ue170006IJLm0EEJS5_EJEJEJS5_EEENS1_IJXspT_EEEENS_13__tuple_typesIJDpT0_EEENS1_IJXspT1_EEEENS9_IJDpT2_EEEDpOT3_', symObjAddr: 0xE918, symBinAddr: 0x10001EC80, symSize: 0x34 }
  - { offsetInCU: 0x7138C, offset: 0x90F8E, size: 0x8, addend: 0x0, symName: '__ZNSt3__112__tuple_implINS_15__tuple_indicesIJLm0EEEEJRKZ23test_fifo_single_threadvE3$_2EEC2B8ue170006IJLm0EEJS5_EJEJEJS5_EEENS1_IJXspT_EEEENS_13__tuple_typesIJDpT0_EEENS1_IJXspT1_EEEENS9_IJDpT2_EEEDpOT3_', symObjAddr: 0xE94C, symBinAddr: 0x10001ECB4, symSize: 0x34 }
  - { offsetInCU: 0x71421, offset: 0x91023, size: 0x8, addend: 0x0, symName: '__ZNSt3__112__tuple_leafILm0ERKZ23test_fifo_single_threadvE3$_2Lb0EEC2B8ue170006IS3_vEEOT_', symObjAddr: 0xE980, symBinAddr: 0x10001ECE8, symSize: 0x20 }
  - { offsetInCU: 0x71464, offset: 0x91066, size: 0x8, addend: 0x0, symName: '__ZNSt3__117__compressed_pairIZ23test_fifo_single_threadvE3$_2NS_9allocatorIS1_EEEC2B8ue170006IJRKS1_EJOS3_EEENS_21piecewise_construct_tENS_5tupleIJDpT_EEENSA_IJDpT0_EEE', symObjAddr: 0xE9A0, symBinAddr: 0x10001ED08, symSize: 0x54 }
  - { offsetInCU: 0x714CE, offset: 0x910D0, size: 0x8, addend: 0x0, symName: '__ZNSt3__122__compressed_pair_elemIZ23test_fifo_single_threadvE3$_2Li0ELb0EEC2B8ue170006IJRKS1_EJLm0EEEENS_21piecewise_construct_tENS_5tupleIJDpT_EEENS_15__tuple_indicesIJXspT0_EEEE', symObjAddr: 0xE9F4, symBinAddr: 0x10001ED5C, symSize: 0x4C }
  - { offsetInCU: 0x71533, offset: 0x91135, size: 0x8, addend: 0x0, symName: '__ZNSt3__112__tuple_leafILm0ERKZ23test_fifo_single_threadvE3$_2Lb0EE3getB8ue170006Ev', symObjAddr: 0xEA64, symBinAddr: 0x10001EDCC, symSize: 0x18 }
  - { offsetInCU: 0x71559, offset: 0x9115B, size: 0x8, addend: 0x0, symName: '__ZNSt3__117__compressed_pairIPNS_10__function6__funcIZ23test_fifo_single_threadvE3$_2NS_9allocatorIS3_EEFvvEEENS_22__allocator_destructorINS4_IS7_EEEEE5firstB8ue170006Ev', symObjAddr: 0xEA7C, symBinAddr: 0x10001EDE4, symSize: 0x24 }
  - { offsetInCU: 0x7157F, offset: 0x91181, size: 0x8, addend: 0x0, symName: '__ZNSt3__122__compressed_pair_elemIPNS_10__function6__funcIZ23test_fifo_single_threadvE3$_2NS_9allocatorIS3_EEFvvEEELi0ELb0EE5__getB8ue170006Ev', symObjAddr: 0xEAA0, symBinAddr: 0x10001EE08, symSize: 0x14 }
  - { offsetInCU: 0x715A5, offset: 0x911A7, size: 0x8, addend: 0x0, symName: '__ZNSt3__110unique_ptrINS_10__function6__funcIZ23test_fifo_single_threadvE3$_2NS_9allocatorIS3_EEFvvEEENS_22__allocator_destructorINS4_IS7_EEEEED2B8ue170006Ev', symObjAddr: 0xEAB4, symBinAddr: 0x10001EE1C, symSize: 0x30 }
  - { offsetInCU: 0x715CF, offset: 0x911D1, size: 0x8, addend: 0x0, symName: '__ZNSt3__110unique_ptrINS_10__function6__funcIZ23test_fifo_single_threadvE3$_2NS_9allocatorIS3_EEFvvEEENS_22__allocator_destructorINS4_IS7_EEEEE5resetB8ue170006EPS7_', symObjAddr: 0xEAE4, symBinAddr: 0x10001EE4C, symSize: 0x78 }
  - { offsetInCU: 0x71614, offset: 0x91216, size: 0x8, addend: 0x0, symName: '__ZNSt3__117__compressed_pairIPNS_10__function6__funcIZ23test_fifo_single_threadvE3$_2NS_9allocatorIS3_EEFvvEEENS_22__allocator_destructorINS4_IS7_EEEEE6secondB8ue170006Ev', symObjAddr: 0xEB5C, symBinAddr: 0x10001EEC4, symSize: 0x28 }
  - { offsetInCU: 0x7163A, offset: 0x9123C, size: 0x8, addend: 0x0, symName: '__ZNSt3__122__allocator_destructorINS_9allocatorINS_10__function6__funcIZ23test_fifo_single_threadvE3$_2NS1_IS4_EEFvvEEEEEEclB8ue170006EPS7_', symObjAddr: 0xEB84, symBinAddr: 0x10001EEEC, symSize: 0x34 }
  - { offsetInCU: 0x7166E, offset: 0x91270, size: 0x8, addend: 0x0, symName: '__ZNSt3__122__compressed_pair_elemINS_22__allocator_destructorINS_9allocatorINS_10__function6__funcIZ23test_fifo_single_threadvE3$_2NS2_IS5_EEFvvEEEEEEELi1ELb0EE5__getB8ue170006Ev', symObjAddr: 0xEBB8, symBinAddr: 0x10001EF20, symSize: 0x14 }
  - { offsetInCU: 0x71694, offset: 0x91296, size: 0x8, addend: 0x0, symName: '__ZNSt3__116allocator_traitsINS_9allocatorINS_10__function6__funcIZ23test_fifo_single_threadvE3$_2NS1_IS4_EEFvvEEEEEE10deallocateB8ue170006ERS8_PS7_m', symObjAddr: 0xEBCC, symBinAddr: 0x10001EF34, symSize: 0x34 }
  - { offsetInCU: 0x716D6, offset: 0x912D8, size: 0x8, addend: 0x0, symName: '__ZNSt3__19allocatorINS_10__function6__funcIZ23test_fifo_single_threadvE3$_2NS0_IS3_EEFvvEEEE10deallocateB8ue170006EPS6_m', symObjAddr: 0xEC00, symBinAddr: 0x10001EF68, symSize: 0x40 }
  - { offsetInCU: 0x71718, offset: 0x9131A, size: 0x8, addend: 0x0, symName: '__ZNSt3__110__function6__funcIZ23test_fifo_single_threadvE3$_2NS_9allocatorIS2_EEFvvEEC1B8ue170006ERKS2_RKS4_', symObjAddr: 0xEC40, symBinAddr: 0x10001EFA8, symSize: 0x3C }
  - { offsetInCU: 0x71760, offset: 0x91362, size: 0x8, addend: 0x0, symName: '__ZNSt3__110__function6__funcIZ23test_fifo_single_threadvE3$_2NS_9allocatorIS2_EEFvvEEC2B8ue170006ERKS2_RKS4_', symObjAddr: 0xEC7C, symBinAddr: 0x10001EFE4, symSize: 0x88 }
  - { offsetInCU: 0x717A8, offset: 0x913AA, size: 0x8, addend: 0x0, symName: '__ZNSt3__110__function12__alloc_funcIZ23test_fifo_single_threadvE3$_2NS_9allocatorIS2_EEFvvEEC1B8ue170006ERKS2_RKS4_', symObjAddr: 0xED04, symBinAddr: 0x10001F06C, symSize: 0x3C }
  - { offsetInCU: 0x717EE, offset: 0x913F0, size: 0x8, addend: 0x0, symName: '__ZNSt3__110__function12__alloc_funcIZ23test_fifo_single_threadvE3$_2NS_9allocatorIS2_EEFvvEEC2B8ue170006ERKS2_RKS4_', symObjAddr: 0xED40, symBinAddr: 0x10001F0A8, symSize: 0x5C }
  - { offsetInCU: 0x71834, offset: 0x91436, size: 0x8, addend: 0x0, symName: '__ZNSt3__117__compressed_pairIZ23test_fifo_single_threadvE3$_2NS_9allocatorIS1_EEEC1B8ue170006IJRKS1_EJRKS3_EEENS_21piecewise_construct_tENS_5tupleIJDpT_EEENSB_IJDpT0_EEE', symObjAddr: 0xEDC8, symBinAddr: 0x10001F130, symSize: 0x3C }
  - { offsetInCU: 0x7189E, offset: 0x914A0, size: 0x8, addend: 0x0, symName: '__ZNSt3__15tupleIJRKNS_9allocatorIZ23test_fifo_single_threadvE3$_2EEEEC1B8ue170006INS_4_AndELi0EEES5_', symObjAddr: 0xEE04, symBinAddr: 0x10001F16C, symSize: 0x34 }
  - { offsetInCU: 0x718E7, offset: 0x914E9, size: 0x8, addend: 0x0, symName: '__ZNSt3__15tupleIJRKNS_9allocatorIZ23test_fifo_single_threadvE3$_2EEEEC2B8ue170006INS_4_AndELi0EEES5_', symObjAddr: 0xEE38, symBinAddr: 0x10001F1A0, symSize: 0x34 }
  - { offsetInCU: 0x71930, offset: 0x91532, size: 0x8, addend: 0x0, symName: '__ZNSt3__112__tuple_implINS_15__tuple_indicesIJLm0EEEEJRKNS_9allocatorIZ23test_fifo_single_threadvE3$_2EEEEC1B8ue170006IJLm0EEJS7_EJEJEJS7_EEENS1_IJXspT_EEEENS_13__tuple_typesIJDpT0_EEENS1_IJXspT1_EEEENSB_IJDpT2_EEEDpOT3_', symObjAddr: 0xEE6C, symBinAddr: 0x10001F1D4, symSize: 0x34 }
  - { offsetInCU: 0x719C5, offset: 0x915C7, size: 0x8, addend: 0x0, symName: '__ZNSt3__112__tuple_implINS_15__tuple_indicesIJLm0EEEEJRKNS_9allocatorIZ23test_fifo_single_threadvE3$_2EEEEC2B8ue170006IJLm0EEJS7_EJEJEJS7_EEENS1_IJXspT_EEEENS_13__tuple_typesIJDpT0_EEENS1_IJXspT1_EEEENSB_IJDpT2_EEEDpOT3_', symObjAddr: 0xEEA0, symBinAddr: 0x10001F208, symSize: 0x34 }
  - { offsetInCU: 0x71A5A, offset: 0x9165C, size: 0x8, addend: 0x0, symName: '__ZNSt3__112__tuple_leafILm0ERKNS_9allocatorIZ23test_fifo_single_threadvE3$_2EELb0EEC2B8ue170006IS5_vEEOT_', symObjAddr: 0xEED4, symBinAddr: 0x10001F23C, symSize: 0x20 }
  - { offsetInCU: 0x71A9D, offset: 0x9169F, size: 0x8, addend: 0x0, symName: '__ZNSt3__117__compressed_pairIZ23test_fifo_single_threadvE3$_2NS_9allocatorIS1_EEEC2B8ue170006IJRKS1_EJRKS3_EEENS_21piecewise_construct_tENS_5tupleIJDpT_EEENSB_IJDpT0_EEE', symObjAddr: 0xEEF4, symBinAddr: 0x10001F25C, symSize: 0x54 }
  - { offsetInCU: 0x71B07, offset: 0x91709, size: 0x8, addend: 0x0, symName: '__ZNSt3__122__compressed_pair_elemINS_9allocatorIZ23test_fifo_single_threadvE3$_2EELi1ELb1EEC2B8ue170006IJRKS3_EJLm0EEEENS_21piecewise_construct_tENS_5tupleIJDpT_EEENS_15__tuple_indicesIJXspT0_EEEE', symObjAddr: 0xEF48, symBinAddr: 0x10001F2B0, symSize: 0x38 }
  - { offsetInCU: 0x71B6C, offset: 0x9176E, size: 0x8, addend: 0x0, symName: '__ZNSt3__112__tuple_leafILm0ERKNS_9allocatorIZ23test_fifo_single_threadvE3$_2EELb0EE3getB8ue170006Ev', symObjAddr: 0xEFA4, symBinAddr: 0x10001F30C, symSize: 0x18 }
  - { offsetInCU: 0x71B92, offset: 0x91794, size: 0x8, addend: 0x0, symName: '__ZNSt3__110__function12__alloc_funcIZ23test_fifo_single_threadvE3$_2NS_9allocatorIS2_EEFvvEE7destroyB8ue170006Ev', symObjAddr: 0xEFBC, symBinAddr: 0x10001F324, symSize: 0x10 }
  - { offsetInCU: 0x71BB8, offset: 0x917BA, size: 0x8, addend: 0x0, symName: '__ZNSt3__110__function12__alloc_funcIZ23test_fifo_single_threadvE3$_2NS_9allocatorIS2_EEFvvEEclB8ue170006Ev', symObjAddr: 0xEFCC, symBinAddr: 0x10001F334, symSize: 0x28 }
  - { offsetInCU: 0x71BDE, offset: 0x917E0, size: 0x8, addend: 0x0, symName: '__ZNSt3__128__invoke_void_return_wrapperIvLb1EE6__callB8ue170006IJRZ23test_fifo_single_threadvE3$_2EEEvDpOT_', symObjAddr: 0xEFF4, symBinAddr: 0x10001F35C, symSize: 0x24 }
  - { offsetInCU: 0x71C0D, offset: 0x9180F, size: 0x8, addend: 0x0, symName: '__ZNSt3__117__compressed_pairIZ23test_fifo_single_threadvE3$_2NS_9allocatorIS1_EEE5firstB8ue170006Ev', symObjAddr: 0xF018, symBinAddr: 0x10001F380, symSize: 0x24 }
  - { offsetInCU: 0x71C33, offset: 0x91835, size: 0x8, addend: 0x0, symName: '__ZZ23test_fifo_single_threadvENK3$_2clEv', symObjAddr: 0xF060, symBinAddr: 0x10001F3C8, symSize: 0x68 }
  - { offsetInCU: 0x71C6B, offset: 0x9186D, size: 0x8, addend: 0x0, symName: __ZNSt3__16vectorIiNS_9allocatorIiEEE9push_backB8ue170006ERKi, symObjAddr: 0xF0C8, symBinAddr: 0x10001F430, symSize: 0x6C }
  - { offsetInCU: 0x71CA2, offset: 0x918A4, size: 0x8, addend: 0x0, symName: __ZNSt3__16vectorIiNS_9allocatorIiEEE22__construct_one_at_endB8ue170006IJRKiEEEvDpOT_, symObjAddr: 0xF134, symBinAddr: 0x10001F49C, symSize: 0x90 }
  - { offsetInCU: 0x71CF2, offset: 0x918F4, size: 0x8, addend: 0x0, symName: __ZNSt3__16vectorIiNS_9allocatorIiEEE21__push_back_slow_pathIRKiEEvOT_, symObjAddr: 0xF1C4, symBinAddr: 0x10001F52C, symSize: 0xD8 }
  - { offsetInCU: 0x71D52, offset: 0x91954, size: 0x8, addend: 0x0, symName: __ZNKSt3__16vectorIiNS_9allocatorIiEEE11__recommendB8ue170006Em, symObjAddr: 0xF29C, symBinAddr: 0x10001F604, symSize: 0xB4 }
  - { offsetInCU: 0x71DA9, offset: 0x919AB, size: 0x8, addend: 0x0, symName: __ZNSt3__114__split_bufferIiRNS_9allocatorIiEEEC1EmmS3_, symObjAddr: 0xF350, symBinAddr: 0x10001F6B8, symSize: 0x44 }
  - { offsetInCU: 0x71DFF, offset: 0x91A01, size: 0x8, addend: 0x0, symName: __ZNSt3__114__split_bufferIiRNS_9allocatorIiEEED1Ev, symObjAddr: 0xF4A4, symBinAddr: 0x10001F80C, symSize: 0x2C }
  - { offsetInCU: 0x71E2B, offset: 0x91A2D, size: 0x8, addend: 0x0, symName: __ZNSt3__114__split_bufferIiRNS_9allocatorIiEEEC2EmmS3_, symObjAddr: 0xF550, symBinAddr: 0x10001F838, symSize: 0xD4 }
  - { offsetInCU: 0x71EA0, offset: 0x91AA2, size: 0x8, addend: 0x0, symName: __ZNSt3__117__compressed_pairIPiRNS_9allocatorIiEEEC1B8ue170006IDnS4_EEOT_OT0_, symObjAddr: 0xF624, symBinAddr: 0x10001F90C, symSize: 0x3C }
  - { offsetInCU: 0x71EF8, offset: 0x91AFA, size: 0x8, addend: 0x0, symName: __ZNSt3__114__split_bufferIiRNS_9allocatorIiEEE7__allocB8ue170006Ev, symObjAddr: 0xF660, symBinAddr: 0x10001F948, symSize: 0x28 }
  - { offsetInCU: 0x71F1E, offset: 0x91B20, size: 0x8, addend: 0x0, symName: __ZNSt3__114__split_bufferIiRNS_9allocatorIiEEE9__end_capB8ue170006Ev, symObjAddr: 0xF688, symBinAddr: 0x10001F970, symSize: 0x28 }
  - { offsetInCU: 0x71F44, offset: 0x91B46, size: 0x8, addend: 0x0, symName: __ZNSt3__117__compressed_pairIPiRNS_9allocatorIiEEEC2B8ue170006IDnS4_EEOT_OT0_, symObjAddr: 0xF6B0, symBinAddr: 0x10001F998, symSize: 0x48 }
  - { offsetInCU: 0x71F9C, offset: 0x91B9E, size: 0x8, addend: 0x0, symName: __ZNSt3__122__compressed_pair_elemIRNS_9allocatorIiEELi1ELb0EEC2B8ue170006IS3_vEEOT_, symObjAddr: 0xF6F8, symBinAddr: 0x10001F9E0, symSize: 0x20 }
  - { offsetInCU: 0x71FDE, offset: 0x91BE0, size: 0x8, addend: 0x0, symName: __ZNSt3__117__compressed_pairIPiRNS_9allocatorIiEEE6secondB8ue170006Ev, symObjAddr: 0xF718, symBinAddr: 0x10001FA00, symSize: 0x28 }
  - { offsetInCU: 0x72004, offset: 0x91C06, size: 0x8, addend: 0x0, symName: __ZNSt3__122__compressed_pair_elemIRNS_9allocatorIiEELi1ELb0EE5__getB8ue170006Ev, symObjAddr: 0xF740, symBinAddr: 0x10001FA28, symSize: 0x18 }
  - { offsetInCU: 0x7202A, offset: 0x91C2C, size: 0x8, addend: 0x0, symName: __ZNSt3__117__compressed_pairIPiRNS_9allocatorIiEEE5firstB8ue170006Ev, symObjAddr: 0xF758, symBinAddr: 0x10001FA40, symSize: 0x24 }
  - { offsetInCU: 0x72050, offset: 0x91C52, size: 0x8, addend: 0x0, symName: __ZNSt3__116reverse_iteratorIPiEC1B8ue170006ES1_, symObjAddr: 0xF7F4, symBinAddr: 0x10001FADC, symSize: 0x34 }
  - { offsetInCU: 0x72088, offset: 0x91C8A, size: 0x8, addend: 0x0, symName: __ZNKSt3__116reverse_iteratorIPiE4baseB8ue170006Ev, symObjAddr: 0xF828, symBinAddr: 0x10001FB10, symSize: 0x18 }
  - { offsetInCU: 0x720D6, offset: 0x91CD8, size: 0x8, addend: 0x0, symName: __ZNKSt3__111__move_loopINS_17_ClassicAlgPolicyEEclB8ue170006INS_16reverse_iteratorIPiEES6_S6_EENS_4pairIT_T1_EES8_T0_S9_, symObjAddr: 0xFB6C, symBinAddr: 0x10001FE54, symSize: 0xA0 }
  - { offsetInCU: 0x72141, offset: 0x91D43, size: 0x8, addend: 0x0, symName: __ZNSt3__18_IterOpsINS_17_ClassicAlgPolicyEE11__iter_moveB8ue170006IRNS_16reverse_iteratorIPiEEEENS_9enable_ifIXsr12is_referenceIDTdeclsr3stdE7declvalIRT_EEEEE5valueEDTclsr3stdE4movedeclsr3stdE7declvalISA_EEEEE4typeEOS9_, symObjAddr: 0xFDA0, symBinAddr: 0x100020088, symSize: 0x28 }
  - { offsetInCU: 0x7216D, offset: 0x91D6F, size: 0x8, addend: 0x0, symName: __ZNKSt3__116reverse_iteratorIPiEdeB8ue170006Ev, symObjAddr: 0xFDC8, symBinAddr: 0x1000200B0, symSize: 0x28 }
  - { offsetInCU: 0x721A1, offset: 0x91DA3, size: 0x8, addend: 0x0, symName: __ZNSt3__116reverse_iteratorIPiEppB8ue170006Ev, symObjAddr: 0xFDF0, symBinAddr: 0x1000200D8, symSize: 0x20 }
  - { offsetInCU: 0x721C7, offset: 0x91DC9, size: 0x8, addend: 0x0, symName: __ZNSt3__18_IterOpsINS_17_ClassicAlgPolicyEE25__validate_iter_referenceB8ue170006IRNS_16reverse_iteratorIPiEEEEvv, symObjAddr: 0xFE10, symBinAddr: 0x1000200F8, symSize: 0x4 }
  - { offsetInCU: 0x721E5, offset: 0x91DE7, size: 0x8, addend: 0x0, symName: __ZNSt3__118__unwrap_iter_implINS_16reverse_iteratorIPiEELb0EE8__unwrapB8ue170006ES3_, symObjAddr: 0xFE14, symBinAddr: 0x1000200FC, symSize: 0x24 }
  - { offsetInCU: 0x7220E, offset: 0x91E10, size: 0x8, addend: 0x0, symName: __ZNSt3__14pairINS_16reverse_iteratorIPiEES3_EC1B8ue170006IS3_S3_LPv0EEEOT_OT0_, symObjAddr: 0xFE38, symBinAddr: 0x100020120, symSize: 0x3C }
  - { offsetInCU: 0x7226C, offset: 0x91E6E, size: 0x8, addend: 0x0, symName: __ZNSt3__14pairINS_16reverse_iteratorIPiEES3_EC2B8ue170006IS3_S3_LPv0EEEOT_OT0_, symObjAddr: 0xFE74, symBinAddr: 0x10002015C, symSize: 0x34 }
  - { offsetInCU: 0x722CA, offset: 0x91ECC, size: 0x8, addend: 0x0, symName: __ZNSt3__118__unwrap_iter_implINS_16reverse_iteratorIPiEELb0EE8__rewrapB8ue170006ES3_S3_, symObjAddr: 0xFEA8, symBinAddr: 0x100020190, symSize: 0x2C }
  - { offsetInCU: 0x722F8, offset: 0x91EFA, size: 0x8, addend: 0x0, symName: __ZNSt3__116reverse_iteratorIPiEC2B8ue170006ES1_, symObjAddr: 0xFED4, symBinAddr: 0x1000201BC, symSize: 0x28 }
  - { offsetInCU: 0x72330, offset: 0x91F32, size: 0x8, addend: 0x0, symName: __ZNSt3__114__split_bufferIiRNS_9allocatorIiEEED2Ev, symObjAddr: 0xFEFC, symBinAddr: 0x1000201E4, symSize: 0x8C }
  - { offsetInCU: 0x7235C, offset: 0x91F5E, size: 0x8, addend: 0x0, symName: __ZNSt3__114__split_bufferIiRNS_9allocatorIiEEE5clearB8ue170006Ev, symObjAddr: 0xFF88, symBinAddr: 0x100020270, symSize: 0x28 }
  - { offsetInCU: 0x72382, offset: 0x91F84, size: 0x8, addend: 0x0, symName: __ZNKSt3__114__split_bufferIiRNS_9allocatorIiEEE8capacityB8ue170006Ev, symObjAddr: 0xFFB0, symBinAddr: 0x100020298, symSize: 0x40 }
  - { offsetInCU: 0x723A8, offset: 0x91FAA, size: 0x8, addend: 0x0, symName: __ZNSt3__114__split_bufferIiRNS_9allocatorIiEEE17__destruct_at_endB8ue170006EPi, symObjAddr: 0xFFF0, symBinAddr: 0x1000202D8, symSize: 0x2C }
  - { offsetInCU: 0x723DC, offset: 0x91FDE, size: 0x8, addend: 0x0, symName: __ZNSt3__114__split_bufferIiRNS_9allocatorIiEEE17__destruct_at_endB8ue170006EPiNS_17integral_constantIbLb0EEE, symObjAddr: 0x1001C, symBinAddr: 0x100020304, symSize: 0x80 }
  - { offsetInCU: 0x7241D, offset: 0x9201F, size: 0x8, addend: 0x0, symName: __ZNKSt3__114__split_bufferIiRNS_9allocatorIiEEE9__end_capB8ue170006Ev, symObjAddr: 0x1009C, symBinAddr: 0x100020384, symSize: 0x28 }
  - { offsetInCU: 0x72443, offset: 0x92045, size: 0x8, addend: 0x0, symName: __ZNKSt3__117__compressed_pairIPiRNS_9allocatorIiEEE5firstB8ue170006Ev, symObjAddr: 0x100C4, symBinAddr: 0x1000203AC, symSize: 0x24 }
  - { offsetInCU: 0x72469, offset: 0x9206B, size: 0x8, addend: 0x0, symName: '__ZNSt3__122__compressed_pair_elemIZ23test_fifo_single_threadvE3$_2Li0ELb0EE5__getB8ue170006Ev', symObjAddr: 0x100E8, symBinAddr: 0x1000203D0, symSize: 0x14 }
  - { offsetInCU: 0x7248F, offset: 0x92091, size: 0x8, addend: 0x0, symName: '__ZNSt3__110unique_ptrINS_10__function6__baseIFvvEEENS_22__allocator_destructorINS_9allocatorINS1_6__funcIZ23test_fifo_single_threadvE3$_2NS6_IS8_EES3_EEEEEEED2B8ue170006Ev', symObjAddr: 0x100FC, symBinAddr: 0x1000203E4, symSize: 0x30 }
  - { offsetInCU: 0x724B9, offset: 0x920BB, size: 0x8, addend: 0x0, symName: '__ZNSt3__110unique_ptrINS_10__function6__baseIFvvEEENS_22__allocator_destructorINS_9allocatorINS1_6__funcIZ23test_fifo_single_threadvE3$_2NS6_IS8_EES3_EEEEEEE5resetB8ue170006EPSA_', symObjAddr: 0x1012C, symBinAddr: 0x100020414, symSize: 0x78 }
  - { offsetInCU: 0x724FE, offset: 0x92100, size: 0x8, addend: 0x0, symName: '__ZNSt3__18functionIFvvEEC2IZ22test_concurrent_stressvE3$_3vEET_', symObjAddr: 0x101A4, symBinAddr: 0x10002048C, symSize: 0x3C }
  - { offsetInCU: 0x72543, offset: 0x92145, size: 0x8, addend: 0x0, symName: '__ZNSt3__110__function12__value_funcIFvvEEC1B8ue170006IZ22test_concurrent_stressvE3$_3vEEOT_', symObjAddr: 0x101E0, symBinAddr: 0x1000204C8, symSize: 0x50 }
  - { offsetInCU: 0x72586, offset: 0x92188, size: 0x8, addend: 0x0, symName: '__ZNSt3__19allocatorIZ22test_concurrent_stressvE3$_3EC1B8ue170006Ev', symObjAddr: 0x10230, symBinAddr: 0x100020518, symSize: 0x2C }
  - { offsetInCU: 0x725B0, offset: 0x921B2, size: 0x8, addend: 0x0, symName: '__ZNSt3__110__function12__value_funcIFvvEEC1B8ue170006IZ22test_concurrent_stressvE3$_3NS_9allocatorIS5_EEEEOT_RKT0_', symObjAddr: 0x1025C, symBinAddr: 0x100020544, symSize: 0x3C }
  - { offsetInCU: 0x7260A, offset: 0x9220C, size: 0x8, addend: 0x0, symName: '__ZNSt3__19allocatorIZ22test_concurrent_stressvE3$_3EC2B8ue170006Ev', symObjAddr: 0x10298, symBinAddr: 0x100020580, symSize: 0x2C }
  - { offsetInCU: 0x72634, offset: 0x92236, size: 0x8, addend: 0x0, symName: '__ZNSt3__116__non_trivial_ifILb1ENS_9allocatorIZ22test_concurrent_stressvE3$_3EEEC2B8ue170006Ev', symObjAddr: 0x102C4, symBinAddr: 0x1000205AC, symSize: 0x14 }
  - { offsetInCU: 0x7265E, offset: 0x92260, size: 0x8, addend: 0x0, symName: '__ZNSt3__110__function12__value_funcIFvvEEC2B8ue170006IZ22test_concurrent_stressvE3$_3NS_9allocatorIS5_EEEEOT_RKT0_', symObjAddr: 0x102D8, symBinAddr: 0x1000205C0, symSize: 0x94 }
  - { offsetInCU: 0x7270C, offset: 0x9230E, size: 0x8, addend: 0x0, symName: '__ZNSt3__19allocatorINS_10__function6__funcIZ22test_concurrent_stressvE3$_3NS0_IS3_EEFvvEEEEC1B8ue170006IS3_EERKNS0_IT_EE', symObjAddr: 0x10384, symBinAddr: 0x10002066C, symSize: 0x34 }
  - { offsetInCU: 0x72750, offset: 0x92352, size: 0x8, addend: 0x0, symName: '__ZNSt3__19allocatorIZ22test_concurrent_stressvE3$_3EC1B8ue170006INS_10__function6__funcIS1_S2_FvvEEEEERKNS0_IT_EE', symObjAddr: 0x103B8, symBinAddr: 0x1000206A0, symSize: 0x34 }
  - { offsetInCU: 0x7278E, offset: 0x92390, size: 0x8, addend: 0x0, symName: '__ZNSt3__110__function6__funcIZ22test_concurrent_stressvE3$_3NS_9allocatorIS2_EEFvvEEC1B8ue170006EOS2_OS4_', symObjAddr: 0x103EC, symBinAddr: 0x1000206D4, symSize: 0x3C }
  - { offsetInCU: 0x727D6, offset: 0x923D8, size: 0x8, addend: 0x0, symName: '__ZNSt3__19allocatorINS_10__function6__funcIZ22test_concurrent_stressvE3$_3NS0_IS3_EEFvvEEEEC2B8ue170006IS3_EERKNS0_IT_EE', symObjAddr: 0x10428, symBinAddr: 0x100020710, symSize: 0x30 }
  - { offsetInCU: 0x72814, offset: 0x92416, size: 0x8, addend: 0x0, symName: '__ZNSt3__116__non_trivial_ifILb1ENS_9allocatorINS_10__function6__funcIZ22test_concurrent_stressvE3$_3NS1_IS4_EEFvvEEEEEEC2B8ue170006Ev', symObjAddr: 0x10458, symBinAddr: 0x100020740, symSize: 0x14 }
  - { offsetInCU: 0x7283E, offset: 0x92440, size: 0x8, addend: 0x0, symName: '__ZNSt3__19allocatorIZ22test_concurrent_stressvE3$_3EC2B8ue170006INS_10__function6__funcIS1_S2_FvvEEEEERKNS0_IT_EE', symObjAddr: 0x1046C, symBinAddr: 0x100020754, symSize: 0x30 }
  - { offsetInCU: 0x7287C, offset: 0x9247E, size: 0x8, addend: 0x0, symName: '__ZNSt3__110__function6__funcIZ22test_concurrent_stressvE3$_3NS_9allocatorIS2_EEFvvEEC2B8ue170006EOS2_OS4_', symObjAddr: 0x1049C, symBinAddr: 0x100020784, symSize: 0x88 }
  - { offsetInCU: 0x728C4, offset: 0x924C6, size: 0x8, addend: 0x0, symName: '__ZNSt3__110__function12__alloc_funcIZ22test_concurrent_stressvE3$_3NS_9allocatorIS2_EEFvvEEC1B8ue170006EOS2_OS4_', symObjAddr: 0x10524, symBinAddr: 0x10002080C, symSize: 0x3C }
  - { offsetInCU: 0x7290A, offset: 0x9250C, size: 0x8, addend: 0x0, symName: '__ZNSt3__110__function6__funcIZ22test_concurrent_stressvE3$_3NS_9allocatorIS2_EEFvvEED1Ev', symObjAddr: 0x10560, symBinAddr: 0x100020848, symSize: 0x2C }
  - { offsetInCU: 0x72937, offset: 0x92539, size: 0x8, addend: 0x0, symName: '__ZNSt3__110__function6__funcIZ22test_concurrent_stressvE3$_3NS_9allocatorIS2_EEFvvEED0Ev', symObjAddr: 0x1058C, symBinAddr: 0x100020874, symSize: 0x30 }
  - { offsetInCU: 0x72964, offset: 0x92566, size: 0x8, addend: 0x0, symName: '__ZNKSt3__110__function6__funcIZ22test_concurrent_stressvE3$_3NS_9allocatorIS2_EEFvvEE7__cloneEv', symObjAddr: 0x105BC, symBinAddr: 0x1000208A4, symSize: 0xFC }
  - { offsetInCU: 0x729B8, offset: 0x925BA, size: 0x8, addend: 0x0, symName: '__ZNKSt3__110__function6__funcIZ22test_concurrent_stressvE3$_3NS_9allocatorIS2_EEFvvEE7__cloneEPNS0_6__baseIS5_EE', symObjAddr: 0x106B8, symBinAddr: 0x1000209A0, symSize: 0x58 }
  - { offsetInCU: 0x729EF, offset: 0x925F1, size: 0x8, addend: 0x0, symName: '__ZNSt3__110__function6__funcIZ22test_concurrent_stressvE3$_3NS_9allocatorIS2_EEFvvEE7destroyEv', symObjAddr: 0x10710, symBinAddr: 0x1000209F8, symSize: 0x28 }
  - { offsetInCU: 0x72A17, offset: 0x92619, size: 0x8, addend: 0x0, symName: '__ZNSt3__110__function6__funcIZ22test_concurrent_stressvE3$_3NS_9allocatorIS2_EEFvvEE18destroy_deallocateEv', symObjAddr: 0x10738, symBinAddr: 0x100020A20, symSize: 0x58 }
  - { offsetInCU: 0x72A5B, offset: 0x9265D, size: 0x8, addend: 0x0, symName: '__ZNSt3__110__function6__funcIZ22test_concurrent_stressvE3$_3NS_9allocatorIS2_EEFvvEEclEv', symObjAddr: 0x10790, symBinAddr: 0x100020A78, symSize: 0x28 }
  - { offsetInCU: 0x72A83, offset: 0x92685, size: 0x8, addend: 0x0, symName: '__ZNKSt3__110__function6__funcIZ22test_concurrent_stressvE3$_3NS_9allocatorIS2_EEFvvEE6targetERKSt9type_info', symObjAddr: 0x107B8, symBinAddr: 0x100020AA0, symSize: 0x60 }
  - { offsetInCU: 0x72ABA, offset: 0x926BC, size: 0x8, addend: 0x0, symName: '__ZNKSt3__110__function6__funcIZ22test_concurrent_stressvE3$_3NS_9allocatorIS2_EEFvvEE11target_typeEv', symObjAddr: 0x10818, symBinAddr: 0x100020B00, symSize: 0x18 }
  - { offsetInCU: 0x72AE2, offset: 0x926E4, size: 0x8, addend: 0x0, symName: '__ZNSt3__110__function12__alloc_funcIZ22test_concurrent_stressvE3$_3NS_9allocatorIS2_EEFvvEEC2B8ue170006EOS2_OS4_', symObjAddr: 0x10830, symBinAddr: 0x100020B18, symSize: 0x5C }
  - { offsetInCU: 0x72B28, offset: 0x9272A, size: 0x8, addend: 0x0, symName: '__ZNSt3__117__compressed_pairIZ22test_concurrent_stressvE3$_3NS_9allocatorIS1_EEEC1B8ue170006IJOS1_EJOS3_EEENS_21piecewise_construct_tENS_5tupleIJDpT_EEENS9_IJDpT0_EEE', symObjAddr: 0x108E4, symBinAddr: 0x100020BCC, symSize: 0x3C }
  - { offsetInCU: 0x72B92, offset: 0x92794, size: 0x8, addend: 0x0, symName: '__ZNSt3__15tupleIJOZ22test_concurrent_stressvE3$_3EEC1B8ue170006IJS1_ELi0EEEDpOT_', symObjAddr: 0x10920, symBinAddr: 0x100020C08, symSize: 0x34 }
  - { offsetInCU: 0x72BDC, offset: 0x927DE, size: 0x8, addend: 0x0, symName: '__ZNSt3__15tupleIJOZ22test_concurrent_stressvE3$_3EEC2B8ue170006IJS1_ELi0EEEDpOT_', symObjAddr: 0x10954, symBinAddr: 0x100020C3C, symSize: 0x34 }
  - { offsetInCU: 0x72C26, offset: 0x92828, size: 0x8, addend: 0x0, symName: '__ZNSt3__112__tuple_implINS_15__tuple_indicesIJLm0EEEEJOZ22test_concurrent_stressvE3$_3EEC1B8ue170006IJLm0EEJS4_EJEJEJS3_EEENS1_IJXspT_EEEENS_13__tuple_typesIJDpT0_EEENS1_IJXspT1_EEEENS8_IJDpT2_EEEDpOT3_', symObjAddr: 0x10988, symBinAddr: 0x100020C70, symSize: 0x34 }
  - { offsetInCU: 0x72CBB, offset: 0x928BD, size: 0x8, addend: 0x0, symName: '__ZNSt3__112__tuple_implINS_15__tuple_indicesIJLm0EEEEJOZ22test_concurrent_stressvE3$_3EEC2B8ue170006IJLm0EEJS4_EJEJEJS3_EEENS1_IJXspT_EEEENS_13__tuple_typesIJDpT0_EEENS1_IJXspT1_EEEENS8_IJDpT2_EEEDpOT3_', symObjAddr: 0x109BC, symBinAddr: 0x100020CA4, symSize: 0x34 }
  - { offsetInCU: 0x72D50, offset: 0x92952, size: 0x8, addend: 0x0, symName: '__ZNSt3__112__tuple_leafILm0EOZ22test_concurrent_stressvE3$_3Lb0EEC2B8ue170006IS1_vEEOT_', symObjAddr: 0x109F0, symBinAddr: 0x100020CD8, symSize: 0x20 }
  - { offsetInCU: 0x72D93, offset: 0x92995, size: 0x8, addend: 0x0, symName: '__ZNSt3__15tupleIJONS_9allocatorIZ22test_concurrent_stressvE3$_3EEEEC1B8ue170006IJS3_ELi0EEEDpOT_', symObjAddr: 0x10A10, symBinAddr: 0x100020CF8, symSize: 0x34 }
  - { offsetInCU: 0x72DDD, offset: 0x929DF, size: 0x8, addend: 0x0, symName: '__ZNSt3__15tupleIJONS_9allocatorIZ22test_concurrent_stressvE3$_3EEEEC2B8ue170006IJS3_ELi0EEEDpOT_', symObjAddr: 0x10A44, symBinAddr: 0x100020D2C, symSize: 0x34 }
  - { offsetInCU: 0x72E27, offset: 0x92A29, size: 0x8, addend: 0x0, symName: '__ZNSt3__112__tuple_implINS_15__tuple_indicesIJLm0EEEEJONS_9allocatorIZ22test_concurrent_stressvE3$_3EEEEC1B8ue170006IJLm0EEJS6_EJEJEJS5_EEENS1_IJXspT_EEEENS_13__tuple_typesIJDpT0_EEENS1_IJXspT1_EEEENSA_IJDpT2_EEEDpOT3_', symObjAddr: 0x10A78, symBinAddr: 0x100020D60, symSize: 0x34 }
  - { offsetInCU: 0x72EBC, offset: 0x92ABE, size: 0x8, addend: 0x0, symName: '__ZNSt3__112__tuple_implINS_15__tuple_indicesIJLm0EEEEJONS_9allocatorIZ22test_concurrent_stressvE3$_3EEEEC2B8ue170006IJLm0EEJS6_EJEJEJS5_EEENS1_IJXspT_EEEENS_13__tuple_typesIJDpT0_EEENS1_IJXspT1_EEEENSA_IJDpT2_EEEDpOT3_', symObjAddr: 0x10AAC, symBinAddr: 0x100020D94, symSize: 0x34 }
  - { offsetInCU: 0x72F51, offset: 0x92B53, size: 0x8, addend: 0x0, symName: '__ZNSt3__112__tuple_leafILm0EONS_9allocatorIZ22test_concurrent_stressvE3$_3EELb0EEC2B8ue170006IS3_vEEOT_', symObjAddr: 0x10AE0, symBinAddr: 0x100020DC8, symSize: 0x20 }
  - { offsetInCU: 0x72F94, offset: 0x92B96, size: 0x8, addend: 0x0, symName: '__ZNSt3__117__compressed_pairIZ22test_concurrent_stressvE3$_3NS_9allocatorIS1_EEEC2B8ue170006IJOS1_EJOS3_EEENS_21piecewise_construct_tENS_5tupleIJDpT_EEENS9_IJDpT0_EEE', symObjAddr: 0x10B00, symBinAddr: 0x100020DE8, symSize: 0x54 }
  - { offsetInCU: 0x72FFE, offset: 0x92C00, size: 0x8, addend: 0x0, symName: '__ZNSt3__122__compressed_pair_elemIZ22test_concurrent_stressvE3$_3Li0ELb0EEC2B8ue170006IJOS1_EJLm0EEEENS_21piecewise_construct_tENS_5tupleIJDpT_EEENS_15__tuple_indicesIJXspT0_EEEE', symObjAddr: 0x10B54, symBinAddr: 0x100020E3C, symSize: 0x44 }
  - { offsetInCU: 0x73063, offset: 0x92C65, size: 0x8, addend: 0x0, symName: '__ZNSt3__122__compressed_pair_elemINS_9allocatorIZ22test_concurrent_stressvE3$_3EELi1ELb1EEC2B8ue170006IJOS3_EJLm0EEEENS_21piecewise_construct_tENS_5tupleIJDpT_EEENS_15__tuple_indicesIJXspT0_EEEE', symObjAddr: 0x10B98, symBinAddr: 0x100020E80, symSize: 0x38 }
  - { offsetInCU: 0x730C8, offset: 0x92CCA, size: 0x8, addend: 0x0, symName: '__ZNSt3__112__tuple_leafILm0EOZ22test_concurrent_stressvE3$_3Lb0EE3getB8ue170006Ev', symObjAddr: 0x10BF4, symBinAddr: 0x100020EDC, symSize: 0x18 }
  - { offsetInCU: 0x730EE, offset: 0x92CF0, size: 0x8, addend: 0x0, symName: '__ZNSt3__112__tuple_leafILm0EONS_9allocatorIZ22test_concurrent_stressvE3$_3EELb0EE3getB8ue170006Ev', symObjAddr: 0x10C30, symBinAddr: 0x100020F18, symSize: 0x18 }
  - { offsetInCU: 0x73114, offset: 0x92D16, size: 0x8, addend: 0x0, symName: '__ZNSt3__110__function6__funcIZ22test_concurrent_stressvE3$_3NS_9allocatorIS2_EEFvvEED2Ev', symObjAddr: 0x10C48, symBinAddr: 0x100020F30, symSize: 0x2C }
  - { offsetInCU: 0x73141, offset: 0x92D43, size: 0x8, addend: 0x0, symName: '__ZNKSt3__110__function12__alloc_funcIZ22test_concurrent_stressvE3$_3NS_9allocatorIS2_EEFvvEE15__get_allocatorB8ue170006Ev', symObjAddr: 0x10C74, symBinAddr: 0x100020F5C, symSize: 0x24 }
  - { offsetInCU: 0x73167, offset: 0x92D69, size: 0x8, addend: 0x0, symName: '__ZNSt3__19allocatorINS_10__function6__funcIZ22test_concurrent_stressvE3$_3NS0_IS3_EEFvvEEEE8allocateB8ue170006Em', symObjAddr: 0x10C98, symBinAddr: 0x100020F80, symSize: 0x5C }
  - { offsetInCU: 0x731AD, offset: 0x92DAF, size: 0x8, addend: 0x0, symName: '__ZNSt3__122__allocator_destructorINS_9allocatorINS_10__function6__funcIZ22test_concurrent_stressvE3$_3NS1_IS4_EEFvvEEEEEEC1B8ue170006ERS8_m', symObjAddr: 0x10CF4, symBinAddr: 0x100020FDC, symSize: 0x3C }
  - { offsetInCU: 0x73294, offset: 0x92E96, size: 0x8, addend: 0x0, symName: '__ZNSt3__110unique_ptrINS_10__function6__funcIZ22test_concurrent_stressvE3$_3NS_9allocatorIS3_EEFvvEEENS_22__allocator_destructorINS4_IS7_EEEEEC1B8ue170006ILb1EvEEPS7_NS_16__dependent_typeINS_27__unique_ptr_deleter_sfinaeISA_EEXT_EE20__good_rval_ref_typeE', symObjAddr: 0x10D30, symBinAddr: 0x100021018, symSize: 0x3C }
  - { offsetInCU: 0x732E5, offset: 0x92EE7, size: 0x8, addend: 0x0, symName: '__ZNKSt3__110unique_ptrINS_10__function6__funcIZ22test_concurrent_stressvE3$_3NS_9allocatorIS3_EEFvvEEENS_22__allocator_destructorINS4_IS7_EEEEE3getB8ue170006Ev', symObjAddr: 0x10D6C, symBinAddr: 0x100021054, symSize: 0x28 }
  - { offsetInCU: 0x7330B, offset: 0x92F0D, size: 0x8, addend: 0x0, symName: '__ZNKSt3__110__function12__alloc_funcIZ22test_concurrent_stressvE3$_3NS_9allocatorIS2_EEFvvEE8__targetB8ue170006Ev', symObjAddr: 0x10D94, symBinAddr: 0x10002107C, symSize: 0x24 }
  - { offsetInCU: 0x73331, offset: 0x92F33, size: 0x8, addend: 0x0, symName: '__ZNSt3__110__function6__funcIZ22test_concurrent_stressvE3$_3NS_9allocatorIS2_EEFvvEEC1B8ue170006ERKS2_OS4_', symObjAddr: 0x10DB8, symBinAddr: 0x1000210A0, symSize: 0x3C }
  - { offsetInCU: 0x73379, offset: 0x92F7B, size: 0x8, addend: 0x0, symName: '__ZNSt3__110unique_ptrINS_10__function6__funcIZ22test_concurrent_stressvE3$_3NS_9allocatorIS3_EEFvvEEENS_22__allocator_destructorINS4_IS7_EEEEE7releaseB8ue170006Ev', symObjAddr: 0x10DF4, symBinAddr: 0x1000210DC, symSize: 0x44 }
  - { offsetInCU: 0x733AF, offset: 0x92FB1, size: 0x8, addend: 0x0, symName: '__ZNSt3__110unique_ptrINS_10__function6__funcIZ22test_concurrent_stressvE3$_3NS_9allocatorIS3_EEFvvEEENS_22__allocator_destructorINS4_IS7_EEEEED1B8ue170006Ev', symObjAddr: 0x10E38, symBinAddr: 0x100021120, symSize: 0x2C }
  - { offsetInCU: 0x733D9, offset: 0x92FDB, size: 0x8, addend: 0x0, symName: '__ZNKSt3__117__compressed_pairIZ22test_concurrent_stressvE3$_3NS_9allocatorIS1_EEE6secondB8ue170006Ev', symObjAddr: 0x10E64, symBinAddr: 0x10002114C, symSize: 0x24 }
  - { offsetInCU: 0x733FF, offset: 0x93001, size: 0x8, addend: 0x0, symName: '__ZNKSt3__122__compressed_pair_elemINS_9allocatorIZ22test_concurrent_stressvE3$_3EELi1ELb1EE5__getB8ue170006Ev', symObjAddr: 0x10E88, symBinAddr: 0x100021170, symSize: 0x14 }
  - { offsetInCU: 0x73430, offset: 0x93032, size: 0x8, addend: 0x0, symName: '__ZNSt3__116allocator_traitsINS_9allocatorINS_10__function6__funcIZ22test_concurrent_stressvE3$_3NS1_IS4_EEFvvEEEEEE8max_sizeB8ue170006IS8_vEEmRKS8_', symObjAddr: 0x10E9C, symBinAddr: 0x100021184, symSize: 0x24 }
  - { offsetInCU: 0x7345E, offset: 0x93060, size: 0x8, addend: 0x0, symName: '__ZNKSt3__19allocatorINS_10__function6__funcIZ22test_concurrent_stressvE3$_3NS0_IS3_EEFvvEEEE8max_sizeB8ue170006Ev', symObjAddr: 0x10EC0, symBinAddr: 0x1000211A8, symSize: 0x18 }
  - { offsetInCU: 0x73484, offset: 0x93086, size: 0x8, addend: 0x0, symName: '__ZNSt3__122__allocator_destructorINS_9allocatorINS_10__function6__funcIZ22test_concurrent_stressvE3$_3NS1_IS4_EEFvvEEEEEEC2B8ue170006ERS8_m', symObjAddr: 0x10ED8, symBinAddr: 0x1000211C0, symSize: 0x2C }
  - { offsetInCU: 0x734CA, offset: 0x930CC, size: 0x8, addend: 0x0, symName: '__ZNSt3__110unique_ptrINS_10__function6__funcIZ22test_concurrent_stressvE3$_3NS_9allocatorIS3_EEFvvEEENS_22__allocator_destructorINS4_IS7_EEEEEC2B8ue170006ILb1EvEEPS7_NS_16__dependent_typeINS_27__unique_ptr_deleter_sfinaeISA_EEXT_EE20__good_rval_ref_typeE', symObjAddr: 0x10F04, symBinAddr: 0x1000211EC, symSize: 0x48 }
  - { offsetInCU: 0x7351B, offset: 0x9311D, size: 0x8, addend: 0x0, symName: '__ZNSt3__117__compressed_pairIPNS_10__function6__funcIZ22test_concurrent_stressvE3$_3NS_9allocatorIS3_EEFvvEEENS_22__allocator_destructorINS4_IS7_EEEEEC1B8ue170006IRS8_SB_EEOT_OT0_', symObjAddr: 0x10F4C, symBinAddr: 0x100021234, symSize: 0x3C }
  - { offsetInCU: 0x73573, offset: 0x93175, size: 0x8, addend: 0x0, symName: '__ZNSt3__117__compressed_pairIPNS_10__function6__funcIZ22test_concurrent_stressvE3$_3NS_9allocatorIS3_EEFvvEEENS_22__allocator_destructorINS4_IS7_EEEEEC2B8ue170006IRS8_SB_EEOT_OT0_', symObjAddr: 0x10F88, symBinAddr: 0x100021270, symSize: 0x48 }
  - { offsetInCU: 0x735CB, offset: 0x931CD, size: 0x8, addend: 0x0, symName: '__ZNSt3__122__compressed_pair_elemIPNS_10__function6__funcIZ22test_concurrent_stressvE3$_3NS_9allocatorIS3_EEFvvEEELi0ELb0EEC2B8ue170006IRS8_vEEOT_', symObjAddr: 0x10FD0, symBinAddr: 0x1000212B8, symSize: 0x24 }
  - { offsetInCU: 0x7360D, offset: 0x9320F, size: 0x8, addend: 0x0, symName: '__ZNSt3__122__compressed_pair_elemINS_22__allocator_destructorINS_9allocatorINS_10__function6__funcIZ22test_concurrent_stressvE3$_3NS2_IS5_EEFvvEEEEEEELi1ELb0EEC2B8ue170006ISA_vEEOT_', symObjAddr: 0x10FF4, symBinAddr: 0x1000212DC, symSize: 0x24 }
  - { offsetInCU: 0x7364F, offset: 0x93251, size: 0x8, addend: 0x0, symName: '__ZNKSt3__117__compressed_pairIPNS_10__function6__funcIZ22test_concurrent_stressvE3$_3NS_9allocatorIS3_EEFvvEEENS_22__allocator_destructorINS4_IS7_EEEEE5firstB8ue170006Ev', symObjAddr: 0x11018, symBinAddr: 0x100021300, symSize: 0x24 }
  - { offsetInCU: 0x73675, offset: 0x93277, size: 0x8, addend: 0x0, symName: '__ZNKSt3__122__compressed_pair_elemIPNS_10__function6__funcIZ22test_concurrent_stressvE3$_3NS_9allocatorIS3_EEFvvEEELi0ELb0EE5__getB8ue170006Ev', symObjAddr: 0x1103C, symBinAddr: 0x100021324, symSize: 0x14 }
  - { offsetInCU: 0x7369B, offset: 0x9329D, size: 0x8, addend: 0x0, symName: '__ZNKSt3__117__compressed_pairIZ22test_concurrent_stressvE3$_3NS_9allocatorIS1_EEE5firstB8ue170006Ev', symObjAddr: 0x11050, symBinAddr: 0x100021338, symSize: 0x24 }
  - { offsetInCU: 0x736C1, offset: 0x932C3, size: 0x8, addend: 0x0, symName: '__ZNKSt3__122__compressed_pair_elemIZ22test_concurrent_stressvE3$_3Li0ELb0EE5__getB8ue170006Ev', symObjAddr: 0x11074, symBinAddr: 0x10002135C, symSize: 0x14 }
  - { offsetInCU: 0x736E7, offset: 0x932E9, size: 0x8, addend: 0x0, symName: '__ZNSt3__110__function6__funcIZ22test_concurrent_stressvE3$_3NS_9allocatorIS2_EEFvvEEC2B8ue170006ERKS2_OS4_', symObjAddr: 0x11088, symBinAddr: 0x100021370, symSize: 0x88 }
  - { offsetInCU: 0x7372F, offset: 0x93331, size: 0x8, addend: 0x0, symName: '__ZNSt3__110__function12__alloc_funcIZ22test_concurrent_stressvE3$_3NS_9allocatorIS2_EEFvvEEC1B8ue170006ERKS2_OS4_', symObjAddr: 0x11110, symBinAddr: 0x1000213F8, symSize: 0x3C }
  - { offsetInCU: 0x73775, offset: 0x93377, size: 0x8, addend: 0x0, symName: '__ZNSt3__110__function12__alloc_funcIZ22test_concurrent_stressvE3$_3NS_9allocatorIS2_EEFvvEEC2B8ue170006ERKS2_OS4_', symObjAddr: 0x1114C, symBinAddr: 0x100021434, symSize: 0x5C }
  - { offsetInCU: 0x737BB, offset: 0x933BD, size: 0x8, addend: 0x0, symName: '__ZNSt3__117__compressed_pairIZ22test_concurrent_stressvE3$_3NS_9allocatorIS1_EEEC1B8ue170006IJRKS1_EJOS3_EEENS_21piecewise_construct_tENS_5tupleIJDpT_EEENSA_IJDpT0_EEE', symObjAddr: 0x111D4, symBinAddr: 0x1000214BC, symSize: 0x3C }
  - { offsetInCU: 0x73825, offset: 0x93427, size: 0x8, addend: 0x0, symName: '__ZNSt3__15tupleIJRKZ22test_concurrent_stressvE3$_3EEC1B8ue170006INS_4_AndELi0EEES3_', symObjAddr: 0x11210, symBinAddr: 0x1000214F8, symSize: 0x34 }
  - { offsetInCU: 0x7386E, offset: 0x93470, size: 0x8, addend: 0x0, symName: '__ZNSt3__15tupleIJRKZ22test_concurrent_stressvE3$_3EEC2B8ue170006INS_4_AndELi0EEES3_', symObjAddr: 0x11244, symBinAddr: 0x10002152C, symSize: 0x34 }
  - { offsetInCU: 0x738B7, offset: 0x934B9, size: 0x8, addend: 0x0, symName: '__ZNSt3__112__tuple_implINS_15__tuple_indicesIJLm0EEEEJRKZ22test_concurrent_stressvE3$_3EEC1B8ue170006IJLm0EEJS5_EJEJEJS5_EEENS1_IJXspT_EEEENS_13__tuple_typesIJDpT0_EEENS1_IJXspT1_EEEENS9_IJDpT2_EEEDpOT3_', symObjAddr: 0x11278, symBinAddr: 0x100021560, symSize: 0x34 }
  - { offsetInCU: 0x7394C, offset: 0x9354E, size: 0x8, addend: 0x0, symName: '__ZNSt3__112__tuple_implINS_15__tuple_indicesIJLm0EEEEJRKZ22test_concurrent_stressvE3$_3EEC2B8ue170006IJLm0EEJS5_EJEJEJS5_EEENS1_IJXspT_EEEENS_13__tuple_typesIJDpT0_EEENS1_IJXspT1_EEEENS9_IJDpT2_EEEDpOT3_', symObjAddr: 0x112AC, symBinAddr: 0x100021594, symSize: 0x34 }
  - { offsetInCU: 0x739E1, offset: 0x935E3, size: 0x8, addend: 0x0, symName: '__ZNSt3__112__tuple_leafILm0ERKZ22test_concurrent_stressvE3$_3Lb0EEC2B8ue170006IS3_vEEOT_', symObjAddr: 0x112E0, symBinAddr: 0x1000215C8, symSize: 0x20 }
  - { offsetInCU: 0x73A24, offset: 0x93626, size: 0x8, addend: 0x0, symName: '__ZNSt3__117__compressed_pairIZ22test_concurrent_stressvE3$_3NS_9allocatorIS1_EEEC2B8ue170006IJRKS1_EJOS3_EEENS_21piecewise_construct_tENS_5tupleIJDpT_EEENSA_IJDpT0_EEE', symObjAddr: 0x11300, symBinAddr: 0x1000215E8, symSize: 0x54 }
  - { offsetInCU: 0x73A8E, offset: 0x93690, size: 0x8, addend: 0x0, symName: '__ZNSt3__122__compressed_pair_elemIZ22test_concurrent_stressvE3$_3Li0ELb0EEC2B8ue170006IJRKS1_EJLm0EEEENS_21piecewise_construct_tENS_5tupleIJDpT_EEENS_15__tuple_indicesIJXspT0_EEEE', symObjAddr: 0x11354, symBinAddr: 0x10002163C, symSize: 0x44 }
  - { offsetInCU: 0x73AF3, offset: 0x936F5, size: 0x8, addend: 0x0, symName: '__ZNSt3__112__tuple_leafILm0ERKZ22test_concurrent_stressvE3$_3Lb0EE3getB8ue170006Ev', symObjAddr: 0x113BC, symBinAddr: 0x1000216A4, symSize: 0x18 }
  - { offsetInCU: 0x73B19, offset: 0x9371B, size: 0x8, addend: 0x0, symName: '__ZNSt3__117__compressed_pairIPNS_10__function6__funcIZ22test_concurrent_stressvE3$_3NS_9allocatorIS3_EEFvvEEENS_22__allocator_destructorINS4_IS7_EEEEE5firstB8ue170006Ev', symObjAddr: 0x113D4, symBinAddr: 0x1000216BC, symSize: 0x24 }
  - { offsetInCU: 0x73B3F, offset: 0x93741, size: 0x8, addend: 0x0, symName: '__ZNSt3__122__compressed_pair_elemIPNS_10__function6__funcIZ22test_concurrent_stressvE3$_3NS_9allocatorIS3_EEFvvEEELi0ELb0EE5__getB8ue170006Ev', symObjAddr: 0x113F8, symBinAddr: 0x1000216E0, symSize: 0x14 }
  - { offsetInCU: 0x73B65, offset: 0x93767, size: 0x8, addend: 0x0, symName: '__ZNSt3__110unique_ptrINS_10__function6__funcIZ22test_concurrent_stressvE3$_3NS_9allocatorIS3_EEFvvEEENS_22__allocator_destructorINS4_IS7_EEEEED2B8ue170006Ev', symObjAddr: 0x1140C, symBinAddr: 0x1000216F4, symSize: 0x30 }
  - { offsetInCU: 0x73B8F, offset: 0x93791, size: 0x8, addend: 0x0, symName: '__ZNSt3__110unique_ptrINS_10__function6__funcIZ22test_concurrent_stressvE3$_3NS_9allocatorIS3_EEFvvEEENS_22__allocator_destructorINS4_IS7_EEEEE5resetB8ue170006EPS7_', symObjAddr: 0x1143C, symBinAddr: 0x100021724, symSize: 0x78 }
  - { offsetInCU: 0x73BD4, offset: 0x937D6, size: 0x8, addend: 0x0, symName: '__ZNSt3__117__compressed_pairIPNS_10__function6__funcIZ22test_concurrent_stressvE3$_3NS_9allocatorIS3_EEFvvEEENS_22__allocator_destructorINS4_IS7_EEEEE6secondB8ue170006Ev', symObjAddr: 0x114B4, symBinAddr: 0x10002179C, symSize: 0x28 }
  - { offsetInCU: 0x73BFA, offset: 0x937FC, size: 0x8, addend: 0x0, symName: '__ZNSt3__122__allocator_destructorINS_9allocatorINS_10__function6__funcIZ22test_concurrent_stressvE3$_3NS1_IS4_EEFvvEEEEEEclB8ue170006EPS7_', symObjAddr: 0x114DC, symBinAddr: 0x1000217C4, symSize: 0x34 }
  - { offsetInCU: 0x73C2E, offset: 0x93830, size: 0x8, addend: 0x0, symName: '__ZNSt3__122__compressed_pair_elemINS_22__allocator_destructorINS_9allocatorINS_10__function6__funcIZ22test_concurrent_stressvE3$_3NS2_IS5_EEFvvEEEEEEELi1ELb0EE5__getB8ue170006Ev', symObjAddr: 0x11510, symBinAddr: 0x1000217F8, symSize: 0x14 }
